(dp0
S'452635382904266752'
p1
S'Other useful information'
p2
sS'456696436545945602'
p3
S'"Personal updates'
p4
sS'451320116995559425'
p5
S'Other useful information'
p6
sS'451759441969299457'
p7
S'"Personal updates'
p8
sS'451651495277383681'
p9
S'Other useful information'
p10
sS'451289528397864960'
p11
S'Other useful information'
p12
sS'451625486733824000'
p13
S'Other useful information'
p14
sS'451289361104261120'
p15
S'Other useful information'
p16
sS'451332410706522112'
p17
S'Other useful information'
p18
sS'451337693482319872'
p19
S'Injured and dead'
p20
sS'451293821562011648'
p21
S'Caution and advice'
p22
sS'451622228392570880'
p23
S'Other useful information'
p24
sS'451361359976869888'
p25
S'Other useful information'
p26
sS'452287015569342464'
p27
S'Other useful information'
p28
sS'451419187676999680'
p29
S'Other useful information'
p30
sS'452273307774357505'
p31
S'Other useful information'
p32
sS'451300338789019648'
p33
S'Injured and dead'
p34
sS'451650956326096896'
p35
S'"Personal updates'
p36
sS'451615123653025792'
p37
S'Other useful information'
p38
sS'452265127073427456'
p39
S'Other useful information'
p40
sS'451624301922226176'
p41
S'Infrastructure'
p42
sS'451618270966067200'
p43
S'Other useful information'
p44
sS'451960090120048640'
p45
S'Other useful information'
p46
sS'451300464269983744'
p47
S'Injured and dead'
p48
sS'451348529055690753'
p49
S'Injured and dead'
p50
sS'451308164932440064'
p51
S'Injured and dead'
p52
sS'451618338750230528'
p53
S'Injured and dead'
p54
sS'451624542063316992'
p55
S'Other useful information'
p56
sS'451303636556328960'
p57
S'Injured and dead'
p58
sS'451783604490608640'
p59
S'Other useful information'
p60
sS'451758191202672640'
p61
S'Other useful information'
p62
sS'451805578461859840'
p63
S'Other useful information'
p64
sS'451360178714050561'
p65
S'Other useful information'
p66
sS'451283095946547200'
p67
S'Other useful information'
p68
sS'451968765186437120'
p69
S'"Personal updates'
p70
sS'452274873151541248'
p71
S'Other useful information'
p72
sS'451362273617932288'
p73
S'Other useful information'
p74
sS'451758800098164736'
p75
S'Other useful information'
p76
sS'452241848350691328'
p77
S'Other useful information'
p78
sS'451292183119679488'
p79
S'"Personal updates'
p80
sS'451622740995227650'
p81
S'Other useful information'
p82
sS'451650473205190656'
p83
S'Injured and dead'
p84
sS'451298441499795456'
p85
S'Other useful information'
p86
sS'451617718471380992'
p87
S'Caution and advice'
p88
sS'451944804352421888'
p89
S'Other useful information'
p90
sS'451335636617011200'
p91
S'Injured and dead'
p92
sS'451293013763817472'
p93
S'Caution and advice'
p94
sS'451304386728177664'
p95
S'Other useful information'
p96
sS'451807153808871424'
p97
S'Other useful information'
p98
sS'451295461974884352'
p99
S'Other useful information'
p100
sS'451292839628898304'
p101
S'Injured and dead'
p102
sS'451625478692958208'
p103
S'Other useful information'
p104
sS'451338184518279169'
p105
S'Injured and dead'
p106
sS'451352040514392065'
p107
S'Other useful information'
p108
sS'451758636105080832'
p109
S'Other useful information'
p110
sS'451341445484789760'
p111
S'Other useful information'
p112
sS'451870367397588992'
p113
S'"Personal updates'
p114
sS'456136150764113920'
p115
S'Caution and advice'
p116
sS'451759966693507072'
p117
S'"Personal updates'
p118
sS'451623710907068416'
p119
S'Other useful information'
p120
sS'451341970431279104'
p121
S'Other useful information'
p122
sS'456654341324013568'
p123
S'Caution and advice'
p124
sS'451299040466989056'
p125
S'Caution and advice'
p126
sS'451612525243559936'
p127
S'Caution and advice'
p128
sS'451625827671605248'
p129
S'Infrastructure'
p130
sS'451652147122155520'
p131
S'Other useful information'
p132
sS'451626145323053056'
p133
S'Infrastructure'
p134
sS'451281792809439233'
p135
S'Injured and dead'
p136
sS'451294409594634241'
p137
S'Other useful information'
p138
sS'451292911511281664'
p139
S'"Personal updates'
p140
sS'451614428728139776'
p141
S'Other useful information'
p142
sS'451287464947113984'
p143
S'"Personal updates'
p144
sS'456633664768458754'
p145
S'Other useful information'
p146
sS'451652542456287232'
p147
S'Other useful information'
p148
sS'452687416155836416'
p149
S'Injured and dead'
p150
sS'451788074297872385'
p151
S'Other useful information'
p152
sS'452297605608112129'
p153
S'Other useful information'
p154
sS'451613985880563713'
p155
S'Caution and advice'
p156
sS'451296651122966528'
p157
S'Caution and advice'
p158
sS'451608563417235457'
p159
S'Other useful information'
p160
sS'451314370195496960'
p161
S'Injured and dead'
p162
sS'451285737904672768'
p163
S'Caution and advice'
p164
sS'451650229524131840'
p165
S'Other useful information'
p166
sS'451295873297690624'
p167
S'Injured and dead'
p168
sS'452704646415777793'
p169
S'Other useful information'
p170
sS'451620935125438464'
p171
S'Other useful information'
p172
sS'451287576973148160'
p173
S'"Personal updates'
p174
sS'451651997398073344'
p175
S'Other useful information'
p176
sS'451622792992018432'
p177
S'Other useful information'
p178
sS'451652672722989056'
p179
S'Other useful information'
p180
sS'451625063834345472'
p181
S'Other useful information'
p182
sS'452276965043482624'
p183
S'Caution and advice'
p184
sS'451608316729229312'
p185
S'Infrastructure'
p186
sS'451652440967098369'
p187
S'"Personal updates'
p188
sS'451426799478906880'
p189
S'Injured and dead'
p190
sS'451281747703902208'
p191
S'"Personal updates'
p192
sS'451620284852740096'
p193
S'Other useful information'
p194
sS'451292019072049152'
p195
S'"Personal updates'
p196
sS'451295241107025920'
p197
S'Caution and advice'
p198
sS'451326605026394112'
p199
S'Other useful information'
p200
sS'451293709288472576'
p201
S'Other useful information'
p202
sS'451798061673488385'
p203
S'Other useful information'
p204
sS'451615515098624000'
p205
S'Other useful information'
p206
sS'451609342639603712'
p207
S'Other useful information'
p208
sS'451398729455919104'
p209
S'Injured and dead'
p210
sS'451320801581486080'
p211
S'Other useful information'
p212
sS'452272028746121216'
p213
S'Other useful information'
p214
sS'451375117864411137'
p215
S'Infrastructure'
p216
sS'451802681657798658'
p217
S'Other useful information'
p218
sS'451622634405769216'
p219
S'Other useful information'
p220
sS'451946908706037760'
p221
S'Caution and advice'
p222
sS'452239020819365888'
p223
S'Caution and advice'
p224
sS'451305166638030848'
p225
S'Caution and advice'
p226
sS'452282875459551232'
p227
S'Caution and advice'
p228
sS'451978306758270976'
p229
S'Other useful information'
p230
sS'451296996490346496'
p231
S'Other useful information'
p232
sS'451621802561646592'
p233
S'Caution and advice'
p234
sS'451761304647499776'
p235
S'Caution and advice'
p236
sS'451792209671507968'
p237
S'Injured and dead'
p238
sS'451650987824918529'
p239
S'Other useful information'
p240
sS'451611700630781952'
p241
S'Caution and advice'
p242
sS'451300558935060481'
p243
S'"Personal updates'
p244
sS'451759355407654912'
p245
S'Other useful information'
p246
sS'451363999108448256'
p247
S'Injured and dead'
p248
sS'451295348175011840'
p249
S'Injured and dead'
p250
sS'451606941857357824'
p251
S'Injured and dead'
p252
sS'451283243749224449'
p253
S'Injured and dead'
p254
sS'451301328493375488'
p255
S'Other useful information'
p256
sS'451621305230446592'
p257
S'"Personal updates'
p258
sS'451287098990292992'
p259
S'Caution and advice'
p260
sS'451608563660496896'
p261
S'Caution and advice'
p262
sS'451611974317522944'
p263
S'Other useful information'
p264
sS'451963283067514880'
p265
S'Needs of those affected'
p266
sS'451289244636438529'
p267
S'"Personal updates'
p268
sS'452270608122777600'
p269
S'"Personal updates'
p270
sS'452276981355122688'
p271
S'Other useful information'
p272
sS'451285590810435584'
p273
S'"Personal updates'
p274
sS'451367888968888320'
p275
S'Injured and dead'
p276
sS'451615228795432960'
p277
S'Other useful information'
p278
sS'451428197117468675'
p279
S'Other useful information'
p280
sS'451286484625412096'
p281
S'"Personal updates'
p282
sS'451622825774682112'
p283
S'Other useful information'
p284
sS'451617095072378880'
p285
S'Other useful information'
p286
sS'451759926348886016'
p287
S'Other useful information'
p288
sS'451282059923693569'
p289
S'Other useful information'
p290
sS'451762110515929088'
p291
S'Other useful information'
p292
sS'452313787962372096'
p293
S'Caution and advice'
p294
sS'451759117174964224'
p295
S'Other useful information'
p296
sS'452668167047745536'
p297
S'"Personal updates'
p298
sS'451651388041224192'
p299
S'"Personal updates'
p300
sS'451619754063572992'
p301
S'Other useful information'
p302
sS'451615710909722624'
p303
S'Caution and advice'
p304
sS'451626175673417728'
p305
S'Other useful information'
p306
sS'451353040189009920'
p307
S'Other useful information'
p308
sS'451759875098689536'
p309
S'Other useful information'
p310
sS'451326995545092096'
p311
S'Other useful information'
p312
sS'451613574863925248'
p313
S'Caution and advice'
p314
sS'451610099686330368'
p315
S'Other useful information'
p316
sS'451611819988115456'
p317
S'"Personal updates'
p318
sS'451624654306701312'
p319
S'Other useful information'
p320
sS'451941391145259008'
p321
S'Caution and advice'
p322
sS'451617374962458624'
p323
S'Caution and advice'
p324
sS'451293812791738369'
p325
S'Caution and advice'
p326
sS'451894519898718209'
p327
S'Other useful information'
p328
sS'451302990776123392'
p329
S'Other useful information'
p330
sS'451758440147603456'
p331
S'Other useful information'
p332
sS'451344693578584065'
p333
S'Other useful information'
p334
sS'451798698612494336'
p335
S'"Personal updates'
p336
sS'451607633233862657'
p337
S'Injured and dead'
p338
sS'451617006874525696'
p339
S'Other useful information'
p340
sS'451281935130583040'
p341
S'Injured and dead'
p342
sS'451331388583591936'
p343
S'Other useful information'
p344
sS'451761253942591488'
p345
S'"Personal updates'
p346
sS'451758823305265152'
p347
S'"Personal updates'
p348
sS'451621604234387456'
p349
S'Other useful information'
p350
sS'451791266783588352'
p351
S'Other useful information'
p352
sS'451783410609299456'
p353
S'Other useful information'
p354
sS'451955859388923905'
p355
S'Other useful information'
p356
sS'451304870088548353'
p357
S'Caution and advice'
p358
sS'451358891217936386'
p359
S'"Personal updates'
p360
sS'451617733881241600'
p361
S'Injured and dead'
p362
sS'451623668624261120'
p363
S'Other useful information'
p364
sS'451300025834827777'
p365
S'Caution and advice'
p366
sS'451335138857607169'
p367
S'Injured and dead'
p368
sS'451406916820803584'
p369
S'Injured and dead'
p370
sS'451617619758415872'
p371
S'Other useful information'
p372
sS'451620272693444608'
p373
S'Caution and advice'
p374
sS'451281454429769728'
p375
S'Other useful information'
p376
sS'451972967145017344'
p377
S'Caution and advice'
p378
sS'451282106111766529'
p379
S'"Personal updates'
p380
sS'452261802987253760'
p381
S'Other useful information'
p382
sS'452272803773808643'
p383
S'Other useful information'
p384
sS'451758748714160129'
p385
S'Other useful information'
p386
sS'451300081917231105'
p387
S'Injured and dead'
p388
sS'451622526368505856'
p389
S'Caution and advice'
p390
sS'451299480692731904'
p391
S'Caution and advice'
p392
sS'451355251237724161'
p393
S'"Personal updates'
p394
sS'451345750325071872'
p395
S'Caution and advice'
p396
sS'451307097028718592'
p397
S'Injured and dead'
p398
sS'451285847049256960'
p399
S'Caution and advice'
p400
sS'451285505582575616'
p401
S'"Personal updates'
p402
sS'451385668048916481'
p403
S'Injured and dead'
p404
sS'451905726403706880'
p405
S'Other useful information'
p406
sS'451335407217545216'
p407
S'Injured and dead'
p408
sS'451781664839303168'
p409
S'Other useful information'
p410
sS'451285951176650752'
p411
S'Caution and advice'
p412
sS'451978517647872001'
p413
S'Other useful information'
p414
sS'451619071113445378'
p415
S'Other useful information'
p416
sS'451651764563881984'
p417
S'Infrastructure'
p418
sS'451785703500705792'
p419
S'"Personal updates'
p420
sS'451758426339954688'
p421
S'Other useful information'
p422
sS'451348759172349952'
p423
S'Caution and advice'
p424
sS'451652261572538368'
p425
S'Other useful information'
p426
sS'451351836809650176'
p427
S'Other useful information'
p428
sS'451614297089515520'
p429
S'Other useful information'
p430
sS'451369604292804608'
p431
S'"Personal updates'
p432
sS'451380442110107648'
p433
S'Other useful information'
p434
sS'451380698515902465'
p435
S'Infrastructure'
p436
sS'451792814146207744'
p437
S'Donations of money'
p438
sS'451294459313938433'
p439
S'Caution and advice'
p440
sS'451350170584621056'
p441
S'"Personal updates'
p442
sS'451289616641847297'
p443
S'Injured and dead'
p444
sS'451601794741710849'
p445
S'Other useful information'
p446
sS'451920870181572608'
p447
S'Other useful information'
p448
sS'451759642826539008'
p449
S'Other useful information'
p450
sS'451300039055650816'
p451
S'Injured and dead'
p452
sS'452277201896235008'
p453
S'Other useful information'
p454
sS'451616025973637120'
p455
S'Other useful information'
p456
sS'451623325123346432'
p457
S'Other useful information'
p458
sS'451409390256394240'
p459
S'Other useful information'
p460
sS'451319815387742208'
p461
S'Other useful information'
p462
sS'451303167364702208'
p463
S'Caution and advice'
p464
sS'451761977409277952'
p465
S'"Personal updates'
p466
sS'451318521264209920'
p467
S'Other useful information'
p468
sS'451622043696381952'
p469
S'Other useful information'
p470
sS'451293321835474944'
p471
S'Other useful information'
p472
sS'451940047890022400'
p473
S'Other useful information'
p474
sS'451740535158755329'
p475
S'Caution and advice'
p476
sS'451619510663909377'
p477
S'Other useful information'
p478
sS'451308960109195266'
p479
S'Injured and dead'
p480
sS'451334970494054400'
p481
S'Other useful information'
p482
sS'451617760410234881'
p483
S'Other useful information'
p484
sS'451782485849149440'
p485
S'Infrastructure'
p486
sS'451356420219215873'
p487
S'Injured and dead'
p488
sS'451902523872260096'
p489
S'Injured and dead'
p490
sS'451414467717234688'
p491
S'Caution and advice'
p492
sS'451877737708683264'
p493
S'Other useful information'
p494
sS'451907456075968513'
p495
S'Other useful information'
p496
sS'451367210691219456'
p497
S'Other useful information'
p498
sS'451622797286989824'
p499
S'Caution and advice'
p500
sS'451335390633291776'
p501
S'Injured and dead'
p502
sS'451758694905020416'
p503
S'"Personal updates'
p504
sS'451302956634497024'
p505
S'Other useful information'
p506
sS'451349236643155968'
p507
S'Injured and dead'
p508
sS'451786794808647680'
p509
S'Other useful information'
p510
sS'451759680730054657'
p511
S'Other useful information'
p512
sS'451759017472184320'
p513
S'"Personal updates'
p514
sS'451285444009799681'
p515
S'"Personal updates'
p516
sS'451760574624706560'
p517
S'"Personal updates'
p518
sS'451415345975160833'
p519
S'Caution and advice'
p520
sS'451295594204897280'
p521
S'Other useful information'
p522
sS'451795276689195008'
p523
S'Other useful information'
p524
sS'456703651633827840'
p525
S'Other useful information'
p526
sS'451297320336752640'
p527
S'Caution and advice'
p528
sS'451359806738026497'
p529
S'"Personal updates'
p530
sS'451784341211725824'
p531
S'Other useful information'
p532
sS'451950643406598144'
p533
S'Other useful information'
p534
sS'451285364548722688'
p535
S'Other useful information'
p536
sS'451375221677621248'
p537
S'Injured and dead'
p538
sS'451617636145963008'
p539
S'Other useful information'
p540
sS'451286074757632000'
p541
S'Caution and advice'
p542
sS'451611576081350656'
p543
S'Other useful information'
p544
sS'451293728678760448'
p545
S'Caution and advice'
p546
sS'451286374323191808'
p547
S'"Personal updates'
p548
sS'451760255228469248'
p549
S'"Personal updates'
p550
sS'451372910024728576'
p551
S'Other useful information'
p552
sS'451781616042786816'
p553
S'Other useful information'
p554
sS'451379978605584384'
p555
S'Other useful information'
p556
sS'451294437336170496'
p557
S'"Personal updates'
p558
sS'451760532257652736'
p559
S'Other useful information'
p560
sS'451621012698705920'
p561
S'Injured and dead'
p562
sS'451286345743233024'
p563
S'"Personal updates'
p564
sS'452300887017287682'
p565
S'Other useful information'
p566
sS'451652164377927681'
p567
S'"Personal updates'
p568
sS'451885134392729601'
p569
S'Other useful information'
p570
sS'451616371244146688'
p571
S'"Personal updates'
p572
sS'451652145616416768'
p573
S'Other useful information'
p574
sS'451285573605789697'
p575
S'Other useful information'
p576
sS'451652477062893568'
p577
S'Other useful information'
p578
sS'451346180946296832'
p579
S'Other useful information'
p580
sS'451346383308468224'
p581
S'Other useful information'
p582
sS'451907272382636032'
p583
S'Other useful information'
p584
sS'451616246237102080'
p585
S'"Personal updates'
p586
sS'451416475572514817'
p587
S'Caution and advice'
p588
sS'451805812357222401'
p589
S'Other useful information'
p590
sS'451761132337115136'
p591
S'Other useful information'
p592
sS'451336002708459520'
p593
S'Injured and dead'
p594
sS'451651371876376576'
p595
S'Other useful information'
p596
sS'451299112882032640'
p597
S'Infrastructure'
p598
sS'451619777492942848'
p599
S'Caution and advice'
p600
sS'451954765552168960'
p601
S'Other useful information'
p602
sS'451351351834845184'
p603
S'Other useful information'
p604
sS'451346600070107136'
p605
S'Other useful information'
p606
sS'451321075880951808'
p607
S'"Personal updates'
p608
sS'452269718532263936'
p609
S'Other useful information'
p610
sS'451296615010013184'
p611
S'Injured and dead'
p612
sS'451759636279201792'
p613
S'Other useful information'
p614
sS'451626293608873984'
p615
S'Other useful information'
p616
sS'451297993564495872'
p617
S'Injured and dead'
p618
sS'451300301254184960'
p619
S'"Personal updates'
p620
sS'451285984895070208'
p621
S'"Personal updates'
p622
sS'451651337294716929'
p623
S'Caution and advice'
p624
sS'451758022944366593'
p625
S'Other useful information'
p626
sS'451292069605031936'
p627
S'"Personal updates'
p628
sS'451958862619242496'
p629
S'Injured and dead'
p630
sS'451294070757797888'
p631
S'Caution and advice'
p632
sS'451615203202179072'
p633
S'Caution and advice'
p634
sS'451761682092929024'
p635
S'Other useful information'
p636
sS'451368166720286720'
p637
S'Other useful information'
p638
sS'451351281966133250'
p639
S'Other useful information'
p640
sS'456705432464011265'
p641
S'Caution and advice'
p642
sS'451977906424537088'
p643
S'Caution and advice'
p644
sS'451615510925303808'
p645
S'Caution and advice'
p646
sS'451622120255004672'
p647
S'Infrastructure'
p648
sS'451285666350239744'
p649
S'"Personal updates'
p650
sS'451787146316484608'
p651
S'"Personal updates'
p652
sS'451761942470746113'
p653
S'Other useful information'
p654
sS'456136015913033728'
p655
S'Caution and advice'
p656
sS'451610709169045504'
p657
S'Caution and advice'
p658
sS'451953047301013504'
p659
S'Other useful information'
p660
sS'451946268647260160'
p661
S'Other useful information'
p662
sS'451293478589194240'
p663
S'Injured and dead'
p664
sS'451624252458811392'
p665
S'Other useful information'
p666
sS'451342480772853760'
p667
S'Other useful information'
p668
sS'451299098558091264'
p669
S'Caution and advice'
p670
sS'451759310532804608'
p671
S'Other useful information'
p672
sS'451619795398455296'
p673
S'Other useful information'
p674
sS'452248283977502720'
p675
S'Caution and advice'
p676
sS'456639039001460736'
p677
S'Other useful information'
p678
sS'452284375347265536'
p679
S'"Personal updates'
p680
sS'451797177132941312'
p681
S'Infrastructure'
p682
sS'452617503991013376'
p683
S'"Personal updates'
p684
sS'451613085782908928'
p685
S'Caution and advice'
p686
sS'451333128372506626'
p687
S'Injured and dead'
p688
sS'451293010437763072'
p689
S'"Personal updates'
p690
sS'451285334920142848'
p691
S'"Personal updates'
p692
sS'451374887962439680'
p693
S'Other useful information'
p694
sS'451623447232143361'
p695
S'Caution and advice'
p696
sS'451618365715406849'
p697
S'Injured and dead'
p698
sS'451651669814960128'
p699
S'Infrastructure'
p700
sS'451616077525422080'
p701
S'Injured and dead'
p702
sS'451299877733941249'
p703
S'Caution and advice'
p704
sS'451300362901680128'
p705
S'Injured and dead'
p706
sS'451280656090157056'
p707
S'"Personal updates'
p708
sS'451387852665159680'
p709
S'Other useful information'
p710
sS'451345481990295552'
p711
S'Caution and advice'
p712
sS'451789580396953600'
p713
S'Other useful information'
p714
sS'451403341348626435'
p715
S'Caution and advice'
p716
sS'451281861029793792'
p717
S'"Personal updates'
p718
sS'451758081261989889'
p719
S'Other useful information'
p720
sS'456611206602575872'
p721
S'Caution and advice'
p722
sS'451343111877193728'
p723
S'Other useful information'
p724
sS'451347155685736448'
p725
S'"Personal updates'
p726
sS'451603671059804160'
p727
S'Injured and dead'
p728
sS'451350628757819392'
p729
S'Other useful information'
p730
sS'451294941889572864'
p731
S'Caution and advice'
p732
sS'451619018739159040'
p733
S'Other useful information'
p734
sS'451622197673881600'
p735
S'Other useful information'
p736
sS'451807116257275904'
p737
S'Other useful information'
p738
sS'451760052391534592'
p739
S'Infrastructure'
p740
sS'451304975033847808'
p741
S'Injured and dead'
p742
sS'451292972290932737'
p743
S'Donations of money'
p744
sS'451614567441788928'
p745
S'Caution and advice'
p746
sS'451612624896397312'
p747
S'Other useful information'
p748
sS'456369685957582848'
p749
S'Other useful information'
p750
sS'451620531222376448'
p751
S'Injured and dead'
p752
sS'451805187452469248'
p753
S'Other useful information'
p754
sS'451302189135577088'
p755
S'"Personal updates'
p756
sS'451800368947556353'
p757
S'Other useful information'
p758
sS'451616608926982144'
p759
S'Other useful information'
p760
sS'451943687829086208'
p761
S'Injured and dead'
p762
sS'451417850818101248'
p763
S'Injured and dead'
p764
sS'451612575734976513'
p765
S'Other useful information'
p766
sS'452287690395119617'
p767
S'Caution and advice'
p768
sS'451608367421980672'
p769
S'Caution and advice'
p770
sS'451739718057611264'
p771
S'Caution and advice'
p772
sS'451368502650470400'
p773
S'Caution and advice'
p774
sS'451650224575217664'
p775
S'Other useful information'
p776
sS'451761770663661569'
p777
S'Caution and advice'
p778
sS'451297797094916096'
p779
S'Caution and advice'
p780
sS'451914810230603776'
p781
S'Other useful information'
p782
sS'451739723305074688'
p783
S'Caution and advice'
p784
sS'452278592114655234'
p785
S'Other useful information'
p786
sS'451292943404384256'
p787
S'Caution and advice'
p788
sS'451788896570204160'
p789
S'Infrastructure'
p790
sS'451789301487906816'
p791
S'Other useful information'
p792
sS'451351702340243458'
p793
S'"Personal updates'
p794
sS'451354597445996544'
p795
S'Injured and dead'
p796
sS'451625287319445504'
p797
S'Other useful information'
p798
sS'451652176557789184'
p799
S'Caution and advice'
p800
sS'451306443162279937'
p801
S'Injured and dead'
p802
sS'451301788990197761'
p803
S'Caution and advice'
p804
sS'451298191846420480'
p805
S'Injured and dead'
p806
sS'456678826026627072'
p807
S'Infrastructure'
p808
sS'451329363300986881'
p809
S'Other useful information'
p810
sS'452655860993380354'
p811
S'Caution and advice'
p812
sS'451359927375003649'
p813
S'Injured and dead'
p814
sS'451623428995284992'
p815
S'Other useful information'
p816
sS'451621504581500928'
p817
S'Other useful information'
p818
sS'451333448599609344'
p819
S'Other useful information'
p820
sS'451292864366923776'
p821
S'"Personal updates'
p822
sS'451372321031602176'
p823
S'Other useful information'
p824
sS'451620387462205440'
p825
S'Other useful information'
p826
sS'451351693494476801'
p827
S'Other useful information'
p828
sS'451289286764032000'
p829
S'Other useful information'
p830
sS'451293572902301696'
p831
S'Injured and dead'
p832
sS'456704246814371840'
p833
S'"Personal updates'
p834
sS'451343617215307776'
p835
S'"Personal updates'
p836
sS'451622407522881536'
p837
S'Infrastructure'
p838
sS'451785707879948288'
p839
S'Other useful information'
p840
sS'451906661121544192'
p841
S'Other useful information'
p842
sS'451802665727832064'
p843
S'Other useful information'
p844
sS'451334367508316161'
p845
S'Other useful information'
p846
sS'451305585758064640'
p847
S'Injured and dead'
p848
sS'451298692994064384'
p849
S'Other useful information'
p850
sS'451611530107183105'
p851
S'Other useful information'
p852
sS'451624770833244160'
p853
S'Caution and advice'
p854
sS'452272427272126465'
p855
S'Other useful information'
p856
sS'451607561158918144'
p857
S'Caution and advice'
p858
sS'451757890823815169'
p859
S'"Personal updates'
p860
sS'451348749554442240'
p861
S'Other useful information'
p862
sS'451406990724431872'
p863
S'Other useful information'
p864
sS'451757860285059072'
p865
S'Other useful information'
p866
sS'451285570400960512'
p867
S'"Personal updates'
p868
sS'451791119211175936'
p869
S'"Personal updates'
p870
sS'451797420608065536'
p871
S'Other useful information'
p872
sS'452251955491266560'
p873
S'Infrastructure'
p874
sS'451349026000994304'
p875
S'Other useful information'
p876
sS'451759998339907584'
p877
S'Other useful information'
p878
sS'451335975289880576'
p879
S'Other useful information'
p880
s.