(dp0
S''
p1
S'deaths_reports'
p2
sS'460577285582508032'
p3
S'affected_people'
p4
sS'460574811555512320'
p5
S'disease_signs_or_symptoms'
p6
sS'460425313206665216'
p7
S'other_useful_information'
p8
sS'460575944261267456'
p9
S'affected_people'
p10
sS'460660443275853824'
p11
S'affected_people'
p12
sS'460446753679216640'
p13
S'other_useful_information'
p14
sS'460413501300035584'
p15
S'prevention'
p16
sS'460554131199893505'
p17
S'other_useful_information'
p18
sS'460594476806057984'
p19
S'other_useful_information'
p20
sS'460582892729409536'
p21
S'disease_transmission'
p22
sS'460467083105824769'
p23
S'other_useful_information'
p24
sS'460535768474062848'
p25
S'affected_people'
p26
sS'460523275613769728'
p27
S'disease_transmission'
p28
sS'460425119882416128'
p29
S'prevention'
p30
sS'460565143038861313'
p31
S'treatment'
p32
sS'460473983649849344'
p33
S'affected_people'
p34
sS'460577556035432450'
p35
S'affected_people'
p36
sS'460575673250095105'
p37
S'other_useful_information'
p38
sS'460576415964860416'
p39
S'other_useful_information'
p40
sS'460598559012704256'
p41
S'disease_transmission'
p42
sS'460488785558396928'
p43
S'other_useful_information'
p44
sS'460670079135674368'
p45
S'other_useful_information'
p46
sS'460479799476355073'
p47
S'affected_people'
p48
sS'460416938867314692'
p49
S'other_useful_information'
p50
sS'460512563344588800'
p51
S'affected_people'
p52
sS'460576796833251329'
p53
S'affected_people'
p54
sS'460402945717456896'
p55
S'affected_people'
p56
sS'460461235532988417'
p57
S'other_useful_information'
p58
sS'460673831678791680'
p59
S'other_useful_information'
p60
sS'460463063674937344'
p61
S'treatment'
p62
sS'460443343546097668'
p63
S'affected_people'
p64
sS'460420992754397184'
p65
S'treatment'
p66
sS'460448458537988097'
p67
S'other_useful_information'
p68
sS'460461744994131968'
p69
S'affected_people'
p70
sS'460626183101480962'
p71
S'other_useful_information'
p72
sS'460632604983562241'
p73
S'disease_transmission'
p74
sS'460636091662352385'
p75
S'affected_people'
p76
sS'460561189391847424'
p77
S'disease_signs_or_symptoms'
p78
sS'460576753711185920'
p79
S'affected_people'
p80
sS'460524072980320257'
p81
S'other_useful_information'
p82
sS'460482617091960832'
p83
S'disease_signs_or_symptoms'
p84
sS'460659813937348608'
p85
S'affected_people'
p86
sS'460408019411812353'
p87
S'other_useful_information'
p88
sS'460537701490368512'
p89
S'disease_transmission'
p90
sS'460517930350825472'
p91
S'not_related_or_irrelevant'
p92
sS'460672250157334528'
p93
S'disease_transmission'
p94
sS'460471553592160257'
p95
S'other_useful_information'
p96
sS'460457872258658304'
p97
S'disease_signs_or_symptoms'
p98
sS'460506588672176128'
p99
S'disease_signs_or_symptoms'
p100
sS'460671574988038144'
p101
S'prevention'
p102
sS'460417548475826178'
p103
S'disease_signs_or_symptoms'
p104
sS'460655690420613120'
p105
S'affected_people'
p106
sS'460585833766985729'
p107
S'disease_transmission'
p108
sS'460527412955348993'
p109
S'other_useful_information'
p110
sS'460435253958438912'
p111
S'affected_people'
p112
sS'460578165224923137'
p113
S'disease_transmission'
p114
sS'460494950980145152'
p115
S'affected_people'
p116
sS'460639907745386496'
p117
S'affected_people'
p118
sS'460575668649332736'
p119
S'other_useful_information'
p120
sS'460550925342736384'
p121
S'other_useful_information'
p122
sS'460617901532540928'
p123
S'other_useful_information'
p124
sS'460411835892908032'
p125
S'disease_signs_or_symptoms'
p126
sS'460603202908344320'
p127
S'affected_people'
p128
sS'460576664754192384'
p129
S'treatment'
p130
sS'460523427187552257'
p131
S'disease_signs_or_symptoms'
p132
sS'460584567548563456'
p133
S'other_useful_information'
p134
sS'460579049841389568'
p135
S'affected_people'
p136
sS'460641200585064448'
p137
S'affected_people'
p138
sS'460477646921793536'
p139
S'affected_people'
p140
sS'460646020594941952'
p141
S'affected_people'
p142
sS'460672783652257792'
p143
S'disease_transmission'
p144
sS'460430959465496576'
p145
S'other_useful_information'
p146
sS'460522310793846785'
p147
S'affected_people'
p148
sS'460416963165315072'
p149
S'other_useful_information'
p150
sS'460644674919993344'
p151
S'disease_signs_or_symptoms'
p152
sS'460492006716747776'
p153
S'other_useful_information'
p154
sS'460429177271767040'
p155
S'other_useful_information'
p156
sS'460521116885196800'
p157
S'affected_people'
p158
sS'460577075057815553'
p159
S'other_useful_information'
p160
sS'460582458648313857'
p161
S'affected_people'
p162
sS'460465348740141056'
p163
S'disease_transmission'
p164
sS'460578109138284546'
p165
S'affected_people'
p166
sS'460576571867533312'
p167
S'other_useful_information'
p168
sS'460411788098424832'
p169
S'affected_people'
p170
sS'460563643823058944'
p171
S'affected_people'
p172
sS'460639619575336961'
p173
S'affected_people'
p174
sS'460630761452752896'
p175
S'other_useful_information'
p176
sS'460403706295377920'
p177
S'other_useful_information'
p178
sS'460583087424806912'
p179
S'other_useful_information'
p180
sS'460562704252407808'
p181
S'affected_people'
p182
sS'460570070930845696'
p183
S'other_useful_information'
p184
sS'460514067057111041'
p185
S'other_useful_information'
p186
sS'460582474540527616'
p187
S'affected_people'
p188
sS'460406429867057152'
p189
S'other_useful_information'
p190
sS'460553912383471616'
p191
S'other_useful_information'
p192
sS'460406798349250560'
p193
S'affected_people'
p194
sS'460541977713709056'
p195
S'other_useful_information'
p196
sS'460578625599713280'
p197
S'disease_transmission'
p198
sS'460443300982710273'
p199
S'prevention'
p200
sS'460586771219095552'
p201
S'affected_people'
p202
sS'460420507678949377'
p203
S'other_useful_information'
p204
sS'460561182211178496'
p205
S'other_useful_information'
p206
sS'460451345309663232'
p207
S'treatment'
p208
sS'460428276498825216'
p209
S'other_useful_information'
p210
sS'460501160898473984'
p211
S'other_useful_information'
p212
sS'460471830323535873'
p213
S'affected_people'
p214
sS'460578537909399552'
p215
S'affected_people'
p216
sS'460562699647082496'
p217
S'other_useful_information'
p218
sS'460654881599397888'
p219
S'other_useful_information'
p220
sS'460584942192189441'
p221
S'disease_signs_or_symptoms'
p222
sS'460508663393046528'
p223
S'affected_people'
p224
sS'460470758775717888'
p225
S'other_useful_information'
p226
sS'460593643498123264'
p227
S'other_useful_information'
p228
sS'460482011161821184'
p229
S'other_useful_information'
p230
sS'460672350154162176'
p231
S'other_useful_information'
p232
sS'460583943834574848'
p233
S'affected_people'
p234
sS'460435353640247297'
p235
S'affected_people'
p236
sS'460419025504591872'
p237
S'disease_transmission'
p238
sS'460447219183661058'
p239
S'disease_transmission'
p240
sS'460526965187821569'
p241
S'treatment'
p242
sS'460561614505136128'
p243
S'affected_people'
p244
sS'460476050904854528'
p245
S'disease_transmission'
p246
sS'460584014567313408'
p247
S'affected_people'
p248
sS'460652253930856448'
p249
S'prevention'
p250
sS'460502674438238209'
p251
S'disease_signs_or_symptoms'
p252
sS'460584620090593280'
p253
S'other_useful_information'
p254
sS'460563809502240768'
p255
S'prevention'
p256
sS'460479770330136576'
p257
S'other_useful_information'
p258
sS'460400017107214336'
p259
S'other_useful_information'
p260
sS'460451278511177728'
p261
S'disease_transmission'
p262
sS'460521855565053952'
p263
S'affected_people'
p264
sS'460418766505922560'
p265
S'affected_people'
p266
sS'460604611343048704'
p267
S'affected_people'
p268
sS'460562890081042432'
p269
S'prevention'
p270
sS'460568968902615040'
p271
S'disease_signs_or_symptoms'
p272
sS'460427326501945344'
p273
S'affected_people'
p274
sS'460512668411908096'
p275
S'disease_transmission'
p276
sS'460585892470456321'
p277
S'other_useful_information'
p278
sS'460587892117864448'
p279
S'affected_people'
p280
sS'460653270252658688'
p281
S'other_useful_information'
p282
sS'460465222302830592'
p283
S'disease_transmission'
p284
sS'460447447417114624'
p285
S'affected_people'
p286
sS'460398552372752384'
p287
S'disease_signs_or_symptoms'
p288
sS'460657761382957056'
p289
S'other_useful_information'
p290
sS'460579603564593152'
p291
S'affected_people'
p292
sS'460585271654756353'
p293
S'affected_people'
p294
sS'460577687262621697'
p295
S'disease_transmission'
p296
sS'460442830385586177'
p297
S'other_useful_information'
p298
sS'460663268416421888'
p299
S'affected_people'
p300
sS'460505873719099392'
p301
S'disease_transmission'
p302
sS'460632119664865281'
p303
S'affected_people'
p304
sS'460421321722437632'
p305
S'affected_people'
p306
sS'460621934523609088'
p307
S'affected_people'
p308
sS'460520601913143297'
p309
S'affected_people'
p310
sS'460443528729198592'
p311
S'disease_transmission'
p312
sS'460468064128360449'
p313
S'affected_people'
p314
sS'460473561388290048'
p315
S'other_useful_information'
p316
sS'460673803408797696'
p317
S'affected_people'
p318
sS'460567695432224769'
p319
S'disease_transmission'
p320
sS'460585549783257088'
p321
S'disease_transmission'
p322
sS'460530618154356736'
p323
S'disease_signs_or_symptoms'
p324
sS'460456337621520384'
p325
S'affected_people'
p326
sS'460521912762785792'
p327
S'affected_people'
p328
sS'460406059845156864'
p329
S'affected_people'
p330
sS'460576675474845696'
p331
S'other_useful_information'
p332
sS'460453112088903680'
p333
S'disease_transmission'
p334
sS'460671831322542080'
p335
S'other_useful_information'
p336
sS'460400710874431489'
p337
S'other_useful_information'
p338
sS'460628395420692482'
p339
S'affected_people'
p340
sS'460447744726167552'
p341
S'other_useful_information'
p342
sS'460464260514996227'
p343
S'disease_transmission'
p344
sS'460663578480349184'
p345
S'affected_people'
p346
sS'460572697425358848'
p347
S'disease_signs_or_symptoms'
p348
sS'460406562004406272'
p349
S'other_useful_information'
p350
sS'460584077989400576'
p351
S'other_useful_information'
p352
sS'460607117414514688'
p353
S'other_useful_information'
p354
sS'460563285557772288'
p355
S'other_useful_information'
p356
sS'460583172283961344'
p357
S'other_useful_information'
p358
sS'460458584912838656'
p359
S'affected_people'
p360
sS'460526814440730624'
p361
S'affected_people'
p362
sS'460399795212140544'
p363
S'other_useful_information'
p364
sS'460421238842998784'
p365
S'other_useful_information'
p366
sS'460543503706378240'
p367
S'other_useful_information'
p368
sS'460636395891982336'
p369
S'other_useful_information'
p370
sS'460443709948301312'
p371
S'affected_people'
p372
sS'460564464673107968'
p373
S'other_useful_information'
p374
sS'460400959785418752'
p375
S'affected_people'
p376
sS'460527819567923200'
p377
S'other_useful_information'
p378
sS'460548296495230976'
p379
S'disease_signs_or_symptoms'
p380
sS'460548129696522240'
p381
S'affected_people'
p382
sS'460491788264812544'
p383
S'other_useful_information'
p384
sS'460627476558139393'
p385
S'other_useful_information'
p386
sS'460624619125227521'
p387
S'other_useful_information'
p388
sS'460536836059058176'
p389
S'treatment'
p390
sS'460527731206152192'
p391
S'affected_people'
p392
sS'460456319141421057'
p393
S'affected_people'
p394
sS'460514981054652416'
p395
S'other_useful_information'
p396
sS'460470280209842176'
p397
S'disease_transmission'
p398
sS'460475730850508800'
p399
S'disease_transmission'
p400
sS'460622749984382976'
p401
S'disease_transmission'
p402
sS'460577642366783488'
p403
S'affected_people'
p404
sS'460546007080509440'
p405
S'affected_people'
p406
sS'460438207490838529'
p407
S'affected_people'
p408
sS'460493702276730881'
p409
S'other_useful_information'
p410
sS'460538331315449856'
p411
S'other_useful_information'
p412
sS'460537476189536256'
p413
S'other_useful_information'
p414
sS'460622112957669377'
p415
S'disease_transmission'
p416
sS'460632753646895104'
p417
S'other_useful_information'
p418
sS'460645182418210816'
p419
S'other_useful_information'
p420
sS'460533256207618049'
p421
S'affected_people'
p422
sS'460504366798348288'
p423
S'disease_transmission'
p424
sS'460550595880189953'
p425
S'other_useful_information'
p426
sS'460512997103132673'
p427
S'affected_people'
p428
sS'460515622850293760'
p429
S'other_useful_information'
p430
sS'460632398950961154'
p431
S'other_useful_information'
p432
sS'460467179347914752'
p433
S'disease_transmission'
p434
sS'460579265675673601'
p435
S'affected_people'
p436
sS'460668278667767808'
p437
S'other_useful_information'
p438
sS'460531857541447680'
p439
S'other_useful_information'
p440
sS'460566124640235520'
p441
S'affected_people'
p442
sS'460584726734987264'
p443
S'other_useful_information'
p444
sS'460668239840686080'
p445
S'affected_people'
p446
sS'460503610825379840'
p447
S'disease_transmission'
p448
sS'460649261697204224'
p449
S'affected_people'
p450
sS'460460832799723523'
p451
S'affected_people'
p452
sS'460448694001627136'
p453
S'affected_people'
p454
sS'460486747671891969'
p455
S'disease_signs_or_symptoms'
p456
sS'460403550799945728'
p457
S'prevention'
p458
sS'460499729282240512'
p459
S'prevention'
p460
sS'460673628854824960'
p461
S'affected_people'
p462
sS'460563410665480193'
p463
S'disease_signs_or_symptoms'
p464
sS'460449404399681536'
p465
S'other_useful_information'
p466
sS'460408897917181952'
p467
S'prevention'
p468
sS'460430732309966848'
p469
S'affected_people'
p470
sS'460411380357947392'
p471
S'affected_people'
p472
sS'460465100546404352'
p473
S'not_related_or_irrelevant'
p474
sS'460508691364446208'
p475
S'affected_people'
p476
sS'460512995739570176'
p477
S'affected_people'
p478
sS'460575679671578624'
p479
S'treatment'
p480
sS'460446299754467331'
p481
S'affected_people'
p482
sS'460450092592287744'
p483
S'prevention'
p484
sS'460578472679596033'
p485
S'affected_people'
p486
sS'460404961533497344'
p487
S'affected_people'
p488
sS'460396339978072064'
p489
S'affected_people'
p490
sS'460535878520033281'
p491
S'other_useful_information'
p492
sS'460479544684601346'
p493
S'other_useful_information'
p494
sS'460671958909071360'
p495
S'disease_signs_or_symptoms'
p496
sS'460541260130832385'
p497
S'affected_people'
p498
sS'460455072506589184'
p499
S'other_useful_information'
p500
sS'460414620843261952'
p501
S'other_useful_information'
p502
sS'460599687850905600'
p503
S'disease_transmission'
p504
sS'460585474004762624'
p505
S'prevention'
p506
sS'460497151613599744'
p507
S'affected_people'
p508
sS'460536160587350016'
p509
S'other_useful_information'
p510
sS'460659356280061952'
p511
S'other_useful_information'
p512
sS'460633302005972992'
p513
S'other_useful_information'
p514
sS'460566388961054720'
p515
S'other_useful_information'
p516
sS'460459187278217216'
p517
S'affected_people'
p518
sS'460562500618948608'
p519
S'disease_transmission'
p520
sS'460477190883131393'
p521
S'treatment'
p522
sS'460592367389532160'
p523
S'disease_signs_or_symptoms'
p524
sS'460625343771324416'
p525
S'not_related_or_irrelevant'
p526
sS'460571767812403200'
p527
S'other_useful_information'
p528
sS'460398461972541440'
p529
S'disease_signs_or_symptoms'
p530
sS'460451400187514880'
p531
S'affected_people'
p532
sS'460465640114249728'
p533
S'affected_people'
p534
sS'460435301429555200'
p535
S'treatment'
p536
sS'460432972550656000'
p537
S'other_useful_information'
p538
sS'460639516001193984'
p539
S'other_useful_information'
p540
sS'460601811574214657'
p541
S'disease_signs_or_symptoms'
p542
sS'460435311546208256'
p543
S'other_useful_information'
p544
sS'460654849558720512'
p545
S'other_useful_information'
p546
sS'460672690655731712'
p547
S'affected_people'
p548
sS'460464123935854594'
p549
S'other_useful_information'
p550
sS'460626142257348608'
p551
S'disease_transmission'
p552
sS'460428788581793792'
p553
S'disease_transmission'
p554
sS'460671437616201728'
p555
S'other_useful_information'
p556
sS'460510648355786752'
p557
S'affected_people'
p558
sS'460475863965134848'
p559
S'affected_people'
p560
sS'460397759087247360'
p561
S'disease_signs_or_symptoms'
p562
sS'460659082928467968'
p563
S'other_useful_information'
p564
sS'460514775806775296'
p565
S'affected_people'
p566
sS'460421897348739072'
p567
S'affected_people'
p568
sS'460562303805431809'
p569
S'disease_transmission'
p570
sS'460408961028456448'
p571
S'affected_people'
p572
sS'460577869584818176'
p573
S'affected_people'
p574
sS'460439801271824384'
p575
S'other_useful_information'
p576
sS'460396396534071296'
p577
S'other_useful_information'
p578
sS'460429598707429376'
p579
S'affected_people'
p580
sS'460578764830015488'
p581
S'affected_people'
p582
sS'460435272463695874'
p583
S'affected_people'
p584
sS'460561915454828544'
p585
S'affected_people'
p586
sS'460580817870151680'
p587
S'other_useful_information'
p588
sS'460469368216756224'
p589
S'disease_signs_or_symptoms'
p590
sS'460563224786526208'
p591
S'other_useful_information'
p592
sS'460424803548401664'
p593
S'affected_people'
p594
sS'460561551447949314'
p595
S'affected_people'
p596
sS'460464983114252289'
p597
S'affected_people'
p598
sS'460588952458506241'
p599
S'not_related_or_irrelevant'
p600
sS'460463845564497920'
p601
S'affected_people'
p602
sS'460586282997915648'
p603
S'affected_people'
p604
sS'460411267002667008'
p605
S'other_useful_information'
p606
sS'460499002127962113'
p607
S'prevention'
p608
sS'460604287878696960'
p609
S'other_useful_information'
p610
sS'460566798409408512'
p611
S'affected_people'
p612
sS'460582893291462657'
p613
S'other_useful_information'
p614
sS'460541911892119552'
p615
S'other_useful_information'
p616
sS'460575810055700481'
p617
S'other_useful_information'
p618
sS'460664709218574336'
p619
S'affected_people'
p620
sS'460570427442483200'
p621
S'affected_people'
p622
sS'460401993606234112'
p623
S'other_useful_information'
p624
sS'460563060021678080'
p625
S'other_useful_information'
p626
sS'460672278804832256'
p627
S'other_useful_information'
p628
sS'460416571345620992'
p629
S'prevention'
p630
sS'460537012186284032'
p631
S'other_useful_information'
p632
sS'460465410434154496'
p633
S'affected_people'
p634
sS'460644774887063552'
p635
S'disease_signs_or_symptoms'
p636
sS'460424671419465728'
p637
S'affected_people'
p638
sS'460446209304313856'
p639
S'affected_people'
p640
sS'460577856230146048'
p641
S'affected_people'
p642
sS'460410358923264000'
p643
S'other_useful_information'
p644
sS'460605657327357952'
p645
S'other_useful_information'
p646
sS'460576523108372481'
p647
S'other_useful_information'
p648
sS'460475601556885504'
p649
S'other_useful_information'
p650
sS'460581841372577792'
p651
S'disease_signs_or_symptoms'
p652
sS'460562968137048064'
p653
S'other_useful_information'
p654
sS'460563420610179072'
p655
S'other_useful_information'
p656
sS'460514863932911616'
p657
S'affected_people'
p658
sS'460474138663350272'
p659
S'disease_signs_or_symptoms'
p660
sS'460464498395348992'
p661
S'prevention'
p662
sS'460485868747124736'
p663
S'treatment'
p664
sS'460601811515490304'
p665
S'affected_people'
p666
sS'460404220437344257'
p667
S'affected_people'
p668
sS'460576794479833088'
p669
S'other_useful_information'
p670
sS'460577921111834624'
p671
S'affected_people'
p672
sS'460447416769327104'
p673
S'other_useful_information'
p674
sS'460562847152349184'
p675
S'disease_transmission'
p676
sS'460400481089515520'
p677
S'affected_people'
p678
sS'460480561614553090'
p679
S'other_useful_information'
p680
sS'460610384362471424'
p681
S'affected_people'
p682
sS'460501707911598082'
p683
S'disease_transmission'
p684
sS'460505894632325120'
p685
S'disease_transmission'
p686
sS'460561616816603136'
p687
S'other_useful_information'
p688
sS'460539382156386304'
p689
S'affected_people'
p690
sS'460584263394414592'
p691
S'affected_people'
p692
sS'460636157844656128'
p693
S'other_useful_information'
p694
sS'460573935219015680'
p695
S'other_useful_information'
p696
sS'460562228890988544'
p697
S'affected_people'
p698
sS'460464709599494144'
p699
S'affected_people'
p700
sS'460576784526766080'
p701
S'other_useful_information'
p702
sS'460464343403220992'
p703
S'other_useful_information'
p704
sS'460533887446167553'
p705
S'treatment'
p706
sS'460490233083994112'
p707
S'affected_people'
p708
sS'460399260291186690'
p709
S'other_useful_information'
p710
sS'460654001671786496'
p711
S'other_useful_information'
p712
sS'460581730009632768'
p713
S'affected_people'
p714
sS'460415826450206720'
p715
S'affected_people'
p716
sS'460562403189465088'
p717
S'affected_people'
p718
sS'460511530610479105'
p719
S'disease_transmission'
p720
sS'460406087980556288'
p721
S'other_useful_information'
p722
sS'460577653695594496'
p723
S'other_useful_information'
p724
sS'460561588483657728'
p725
S'disease_signs_or_symptoms'
p726
sS'460398429802594304'
p727
S'treatment'
p728
sS'460427038831443968'
p729
S'other_useful_information'
p730
sS'460582623434121216'
p731
S'affected_people'
p732
sS'460498796980338689'
p733
S'affected_people'
p734
sS'460672506840748032'
p735
S'disease_transmission'
p736
sS'460583142089166848'
p737
S'treatment'
p738
sS'460436901305257984'
p739
S'affected_people'
p740
sS'460671873244602368'
p741
S'affected_people'
p742
sS'460577277601120256'
p743
S'affected_people'
p744
sS'460491602503286784'
p745
S'affected_people'
p746
sS'460583087127027712'
p747
S'disease_transmission'
p748
sS'460475422610706435'
p749
S'disease_transmission'
p750
sS'460512703334076416'
p751
S'prevention'
p752
sS'460569990820020224'
p753
S'other_useful_information'
p754
sS'460563087636971521'
p755
S'other_useful_information'
p756
sS'460532731160457217'
p757
S'affected_people'
p758
sS'460594710118031361'
p759
S'affected_people'
p760
sS'460605635932217344'
p761
S'affected_people'
p762
sS'460513127311110145'
p763
S'disease_transmission'
p764
sS'460562260209844224'
p765
S'other_useful_information'
p766
sS'460598850399387649'
p767
S'affected_people'
p768
sS'460411786454245377'
p769
S'disease_transmission'
p770
sS'460510940396797952'
p771
S'affected_people'
p772
sS'460409857313492992'
p773
S'other_useful_information'
p774
sS'460672056611573760'
p775
S'affected_people'
p776
sS'460582954201137152'
p777
S'other_useful_information'
p778
sS'460417977050218496'
p779
S'affected_people'
p780
sS'460577957795229698'
p781
S'other_useful_information'
p782
sS'460527808901427200'
p783
S'affected_people'
p784
sS'460599379658018816'
p785
S'other_useful_information'
p786
sS'460486222041735170'
p787
S'affected_people'
p788
sS'460576882925133824'
p789
S'other_useful_information'
p790
sS'460508818418708480'
p791
S'treatment'
p792
sS'460396243022118912'
p793
S'other_useful_information'
p794
sS'460500478019661824'
p795
S'other_useful_information'
p796
sS'460576878449790976'
p797
S'other_useful_information'
p798
sS'460444490248224768'
p799
S'prevention'
p800
sS'460465931789942784'
p801
S'affected_people'
p802
sS'460410661374558208'
p803
S'prevention'
p804
sS'460429911803830274'
p805
S'disease_transmission'
p806
sS'460433091312365568'
p807
S'other_useful_information'
p808
sS'460613253560020994'
p809
S'disease_transmission'
p810
sS'460585977342595072'
p811
S'other_useful_information'
p812
sS'460624907769233409'
p813
S'prevention'
p814
sS'460582893794762752'
p815
S'prevention'
p816
sS'460562805402255361'
p817
S'other_useful_information'
p818
sS'460665661912809472'
p819
S'affected_people'
p820
sS'460577399701139458'
p821
S'disease_transmission'
p822
sS'460473281389531137'
p823
S'other_useful_information'
p824
sS'460668241673990144'
p825
S'disease_transmission'
p826
sS'460528935307333632'
p827
S'affected_people'
p828
sS'460577875620409344'
p829
S'prevention'
p830
sS'460405737190346752'
p831
S'affected_people'
p832
sS'460576315393843200'
p833
S'other_useful_information'
p834
sS'460561082667368448'
p835
S'other_useful_information'
p836
sS'460427974731251712'
p837
S'prevention'
p838
sS'460657359229313024'
p839
S'other_useful_information'
p840
sS'460455581078552576'
p841
S'affected_people'
p842
sS'460440144915353600'
p843
S'affected_people'
p844
sS'460410703774769153'
p845
S'affected_people'
p846
sS'460636511440887808'
p847
S'affected_people'
p848
sS'460586699811069952'
p849
S'other_useful_information'
p850
sS'460491520156504064'
p851
S'other_useful_information'
p852
sS'460528402391633921'
p853
S'disease_transmission'
p854
sS'460435322174570496'
p855
S'other_useful_information'
p856
sS'460669120921759744'
p857
S'other_useful_information'
p858
sS'460584577996562434'
p859
S'affected_people'
p860
sS'460474247824293888'
p861
S'affected_people'
p862
sS'460659869209862144'
p863
S'other_useful_information'
p864
sS'460576154357727232'
p865
S'treatment'
p866
sS'460421806843650050'
p867
S'other_useful_information'
p868
sS'460671330896347136'
p869
S'affected_people'
p870
sS'460418508434984960'
p871
S'not_related_or_irrelevant'
p872
sS'460578290408124416'
p873
S'other_useful_information'
p874
sS'460581443823861760'
p875
S'other_useful_information'
p876
sS'460562757058711552'
p877
S'disease_signs_or_symptoms'
p878
sS'460561865857183744'
p879
S'disease_transmission'
p880
sS'460450809936117760'
p881
S'treatment'
p882
sS'460577793521516544'
p883
S'other_useful_information'
p884
sS'460599904763527169'
p885
S'other_useful_information'
p886
sS'460541801989152768'
p887
S'treatment'
p888
sS'460645206446981121'
p889
S'prevention'
p890
sS'460673520599445504'
p891
S'other_useful_information'
p892
sS'460513909502664705'
p893
S'affected_people'
p894
sS'460660060914745344'
p895
S'other_useful_information'
p896
sS'460562890567585792'
p897
S'affected_people'
p898
sS'460514831314210817'
p899
S'disease_transmission'
p900
sS'460577751582253056'
p901
S'affected_people'
p902
sS'460561844772413440'
p903
S'other_useful_information'
p904
sS'460530686550499328'
p905
S'affected_people'
p906
sS'460629078866157568'
p907
S'affected_people'
p908
sS'460562150910865409'
p909
S'disease_transmission'
p910
sS'460520130318172160'
p911
S'other_useful_information'
p912
sS'460563365773864960'
p913
S'deaths_reports'
p914
sS'460542410636787712'
p915
S'affected_people'
p916
sS'460499205094899712'
p917
S'disease_transmission'
p918
sS'460577843773063171'
p919
S'other_useful_information'
p920
sS'460504822123614210'
p921
S'affected_people'
p922
sS'460443166324580352'
p923
S'affected_people'
p924
sS'460560542050963456'
p925
S'affected_people'
p926
sS'460582568002199552'
p927
S'prevention'
p928
sS'460579104828297218'
p929
S'deaths_reports'
p930
sS'460438523804254208'
p931
S'other_useful_information'
p932
sS'460410970989690880'
p933
S'disease_signs_or_symptoms'
p934
sS'460629077947195392'
p935
S'affected_people'
p936
sS'460611672806543360'
p937
S'other_useful_information'
p938
sS'460587561585741824'
p939
S'affected_people'
p940
sS'460537204171739136'
p941
S'disease_transmission'
p942
sS'460563244759801857'
p943
S'affected_people'
p944
sS'460564610202865664'
p945
S'other_useful_information'
p946
sS'460576727140282368'
p947
S'prevention'
p948
sS'460543709390467073'
p949
S'other_useful_information'
p950
sS'460517059659452417'
p951
S'other_useful_information'
p952
sS'460537418647482369'
p953
S'other_useful_information'
p954
sS'460444343091081216'
p955
S'affected_people'
p956
sS'460562142018551808'
p957
S'affected_people'
p958
sS'460442625246756865'
p959
S'other_useful_information'
p960
sS'460465012255895552'
p961
S'affected_people'
p962
sS'460448177066639360'
p963
S'affected_people'
p964
sS'460583610882347008'
p965
S'other_useful_information'
p966
sS'460561891874443264'
p967
S'affected_people'
p968
sS'460577285859340288'
p969
S'affected_people'
p970
sS'460549505478586368'
p971
S'disease_transmission'
p972
sS'460551677108822017'
p973
S'affected_people'
p974
sS'460582340608004096'
p975
S'other_useful_information'
p976
sS'460668511778787328'
p977
S'other_useful_information'
p978
sS'460564520658681856'
p979
S'other_useful_information'
p980
sS'460454472599470080'
p981
S'other_useful_information'
p982
sS'460579965948264448'
p983
S'affected_people'
p984
sS'460669341630201856'
p985
S'affected_people'
p986
sS'460575771719761920'
p987
S'other_useful_information'
p988
sS'460665288199909377'
p989
S'other_useful_information'
p990
sS'460634080569470976'
p991
S'affected_people'
p992
sS'460534446257471489'
p993
S'disease_transmission'
p994
sS'460590127266684928'
p995
S'affected_people'
p996
sS'460435301228228609'
p997
S'affected_people'
p998
sS'460543934481981441'
p999
S'affected_people'
p1000
sS'460668423916507136'
p1001
S'affected_people'
p1002
sS'460587166272602112'
p1003
S'affected_people'
p1004
sS'460567686729457664'
p1005
S'prevention'
p1006
sS'460571244224446466'
p1007
S'disease_signs_or_symptoms'
p1008
sS'460619559628578817'
p1009
S'other_useful_information'
p1010
sS'460590138847162368'
p1011
S'other_useful_information'
p1012
sS'460431412467077120'
p1013
S'affected_people'
p1014
sS'460576562719387648'
p1015
S'other_useful_information'
p1016
sS'460577617381302273'
p1017
S'other_useful_information'
p1018
sS'460435675956137984'
p1019
S'disease_transmission'
p1020
sS'460476974306041856'
p1021
S'affected_people'
p1022
sS'460548996314836993'
p1023
S'affected_people'
p1024
sS'460400656780513280'
p1025
S'disease_transmission'
p1026
sS'460668210077921281'
p1027
S'disease_transmission'
p1028
sS'460398400970575872'
p1029
S'other_useful_information'
p1030
sS'460588488443056128'
p1031
S'disease_signs_or_symptoms'
p1032
sS'460396601010585600'
p1033
S'prevention'
p1034
sS'460598152047779840'
p1035
S'affected_people'
p1036
sS'460561977991888896'
p1037
S'affected_people'
p1038
sS'460600270385606656'
p1039
S'other_useful_information'
p1040
sS'460561295599992833'
p1041
S'affected_people'
p1042
sS'460563296886587392'
p1043
S'other_useful_information'
p1044
sS'460596672951627776'
p1045
S'affected_people'
p1046
sS'460465031772385281'
p1047
S'other_useful_information'
p1048
sS'460545545803923456'
p1049
S'affected_people'
p1050
sS'460592739906641921'
p1051
S'prevention'
p1052
sS'460403081528635393'
p1053
S'affected_people'
p1054
sS'460634440008761344'
p1055
S'affected_people'
p1056
sS'460620212036194304'
p1057
S'prevention'
p1058
sS'460577734901522432'
p1059
S'affected_people'
p1060
sS'460431943075516416'
p1061
S'other_useful_information'
p1062
sS'460428699389923330'
p1063
S'other_useful_information'
p1064
sS'460463623501266944'
p1065
S'other_useful_information'
p1066
sS'460398592939659264'
p1067
S'affected_people'
p1068
sS'460578588996026369'
p1069
S'disease_transmission'
p1070
sS'460428413040201728'
p1071
S'affected_people'
p1072
sS'460427112277491713'
p1073
S'deaths_reports'
p1074
sS'460563440067551235'
p1075
S'disease_signs_or_symptoms'
p1076
sS'460465504067801090'
p1077
S'other_useful_information'
p1078
sS'460607525272842240'
p1079
S'other_useful_information'
p1080
sS'460582303807205376'
p1081
S'other_useful_information'
p1082
sS'460551551547756544'
p1083
S'affected_people'
p1084
sS'460408909317304320'
p1085
S'affected_people'
p1086
sS'460464642159308800'
p1087
S'affected_people'
p1088
sS'460576813274505216'
p1089
S'disease_transmission'
p1090
sS'460425571705831424'
p1091
S'prevention'
p1092
sS'460400471992070144'
p1093
S'prevention'
p1094
sS'460561656133603329'
p1095
S'affected_people'
p1096
sS'460564387829260289'
p1097
S'other_useful_information'
p1098
sS'460572688487309312'
p1099
S'disease_signs_or_symptoms'
p1100
sS'460579292494036992'
p1101
S'affected_people'
p1102
sS'460431989988790272'
p1103
S'other_useful_information'
p1104
sS'460617681700659200'
p1105
S'affected_people'
p1106
sS'460535827916136448'
p1107
S'affected_people'
p1108
sS'460584507234451457'
p1109
S'not_related_or_irrelevant'
p1110
sS'460526895793471488'
p1111
S'affected_people'
p1112
sS'460671043456466944'
p1113
S'disease_signs_or_symptoms'
p1114
sS'460645574945939456'
p1115
S'disease_signs_or_symptoms'
p1116
sS'460645352635658240'
p1117
S'treatment'
p1118
sS'460457570285920256'
p1119
S'affected_people'
p1120
sS'460674148315172864'
p1121
S'disease_transmission'
p1122
sS'460536697919266816'
p1123
S'disease_transmission'
p1124
sS'460578985546510336'
p1125
S'other_useful_information'
p1126
sS'460427664981893120'
p1127
S'prevention'
p1128
sS'460583087047327744'
p1129
S'affected_people'
p1130
sS'460600682190757888'
p1131
S'other_useful_information'
p1132
sS'460440336163438592'
p1133
S'affected_people'
p1134
sS'460420457158942721'
p1135
S'other_useful_information'
p1136
sS'460565234206257152'
p1137
S'affected_people'
p1138
sS'460535979703820289'
p1139
S'disease_signs_or_symptoms'
p1140
sS'460485626597748736'
p1141
S'other_useful_information'
p1142
sS'460512799475924992'
p1143
S'other_useful_information'
p1144
sS'460577903462203392'
p1145
S'treatment'
p1146
sS'460437633584214016'
p1147
S'affected_people'
p1148
sS'460429236730204160'
p1149
S'affected_people'
p1150
sS'460565479405281280'
p1151
S'disease_signs_or_symptoms'
p1152
sS'460504524663554048'
p1153
S'other_useful_information'
p1154
sS'460479311255199744'
p1155
S'affected_people'
p1156
sS'460439830321983488'
p1157
S'treatment'
p1158
sS'460398492465119232'
p1159
S'other_useful_information'
p1160
sS'460582378662932480'
p1161
S'deaths_reports'
p1162
sS'460476064901632000'
p1163
S'other_useful_information'
p1164
sS'460403787987816449'
p1165
S'disease_transmission'
p1166
sS'460427648464728065'
p1167
S'affected_people'
p1168
sS'460577768338489345'
p1169
S'disease_transmission'
p1170
sS'460570347369029632'
p1171
S'other_useful_information'
p1172
sS'460408458357915650'
p1173
S'other_useful_information'
p1174
sS'460438220048568320'
p1175
S'other_useful_information'
p1176
sS'460575956051034112'
p1177
S'disease_transmission'
p1178
sS'460601811481923584'
p1179
S'affected_people'
p1180
sS'460458468550639616'
p1181
S'affected_people'
p1182
sS'460576965028626432'
p1183
S'affected_people'
p1184
sS'460513344730828800'
p1185
S'affected_people'
p1186
sS'460482014030729216'
p1187
S'disease_transmission'
p1188
sS'460508528512622593'
p1189
S'affected_people'
p1190
sS'460565839876349953'
p1191
S'other_useful_information'
p1192
sS'460485686869909504'
p1193
S'treatment'
p1194
sS'460511633149030400'
p1195
S'other_useful_information'
p1196
sS'460464922481020928'
p1197
S'disease_signs_or_symptoms'
p1198
sS'460558222332424192'
p1199
S'affected_people'
p1200
sS'460575625179566080'
p1201
S'affected_people'
p1202
sS'460411813243682816'
p1203
S'other_useful_information'
p1204
sS'460537633475952640'
p1205
S'other_useful_information'
p1206
sS'460591646048931840'
p1207
S'disease_signs_or_symptoms'
p1208
sS'460563173280448512'
p1209
S'disease_signs_or_symptoms'
p1210
sS'460505881369530370'
p1211
S'treatment'
p1212
sS'460540212041773057'
p1213
S'other_useful_information'
p1214
sS'460566393428013056'
p1215
S'treatment'
p1216
sS'460435205526802432'
p1217
S'other_useful_information'
p1218
sS'460493257643159554'
p1219
S'affected_people'
p1220
sS'460413434761191426'
p1221
S'other_useful_information'
p1222
sS'460592391335215104'
p1223
S'other_useful_information'
p1224
sS'460515803184779266'
p1225
S'treatment'
p1226
sS'460579389155979264'
p1227
S'disease_transmission'
p1228
sS'460464808455061504'
p1229
S'disease_signs_or_symptoms'
p1230
sS'460561842549428224'
p1231
S'other_useful_information'
p1232
sS'460573160635518976'
p1233
S'disease_signs_or_symptoms'
p1234
sS'460563430663925761'
p1235
S'other_useful_information'
p1236
sS'460618912355192832'
p1237
S'disease_signs_or_symptoms'
p1238
sS'460646007123243008'
p1239
S'other_useful_information'
p1240
sS'460398004596244482'
p1241
S'disease_signs_or_symptoms'
p1242
sS'460584517191737345'
p1243
S'affected_people'
p1244
sS'460555828789915648'
p1245
S'other_useful_information'
p1246
sS'460670055655940097'
p1247
S'disease_signs_or_symptoms'
p1248
sS'460512468625006593'
p1249
S'affected_people'
p1250
sS'460538670630453249'
p1251
S'other_useful_information'
p1252
sS'460615757945004033'
p1253
S'disease_signs_or_symptoms'
p1254
sS'460474965939453952'
p1255
S'disease_transmission'
p1256
sS'460428217678311425'
p1257
S'disease_signs_or_symptoms'
p1258
sS'460585978101370880'
p1259
S'affected_people'
p1260
sS'460492431587168257'
p1261
S'disease_transmission'
p1262
sS'460473001629483008'
p1263
S'affected_people'
p1264
sS'460671035902132225'
p1265
S'disease_transmission'
p1266
sS'460408681822437376'
p1267
S'affected_people'
p1268
sS'460493837702402049'
p1269
S'other_useful_information'
p1270
sS'460566182475464704'
p1271
S'other_useful_information'
p1272
sS'460462775962468352'
p1273
S'other_useful_information'
p1274
sS'460579383917703169'
p1275
S'affected_people'
p1276
sS'460623523669897216'
p1277
S'affected_people'
p1278
sS'460483617693904896'
p1279
S'affected_people'
p1280
sS'460462133101494272'
p1281
S'treatment'
p1282
sS'460584779159568384'
p1283
S'other_useful_information'
p1284
sS'460435271889068032'
p1285
S'other_useful_information'
p1286
sS'460478139890937856'
p1287
S'other_useful_information'
p1288
sS'460465527966928896'
p1289
S'other_useful_information'
p1290
sS'460558295917678592'
p1291
S'disease_transmission'
p1292
sS'460669419338096640'
p1293
S'prevention'
p1294
sS'460454511304134656'
p1295
S'affected_people'
p1296
sS'460447350323163136'
p1297
S'affected_people'
p1298
sS'460407670915076098'
p1299
S'other_useful_information'
p1300
sS'460542989262417920'
p1301
S'affected_people'
p1302
sS'460438219989856258'
p1303
S'other_useful_information'
p1304
sS'460538910725398528'
p1305
S'disease_signs_or_symptoms'
p1306
sS'460579440460722176'
p1307
S'treatment'
p1308
sS'460528756684517376'
p1309
S'disease_signs_or_symptoms'
p1310
sS'460529951914344448'
p1311
S'prevention'
p1312
sS'460493099849220097'
p1313
S'other_useful_information'
p1314
sS'460582980482658305'
p1315
S'other_useful_information'
p1316
sS'460577274719264768'
p1317
S'affected_people'
p1318
sS'460537443486539776'
p1319
S'affected_people'
p1320
sS'460645415184908288'
p1321
S'affected_people'
p1322
sS'460500309304168448'
p1323
S'affected_people'
p1324
sS'460525525799542784'
p1325
S'other_useful_information'
p1326
sS'460536028650946560'
p1327
S'other_useful_information'
p1328
sS'460517931667841024'
p1329
S'other_useful_information'
p1330
sS'460518853827514370'
p1331
S'affected_people'
p1332
sS'460497985898418178'
p1333
S'other_useful_information'
p1334
sS'460560566168190976'
p1335
S'affected_people'
p1336
sS'460481461725167616'
p1337
S'other_useful_information'
p1338
sS'460508889474015232'
p1339
S'disease_transmission'
p1340
sS'460590757779226624'
p1341
S'treatment'
p1342
sS'460567402288541696'
p1343
S'disease_signs_or_symptoms'
p1344
sS'460671044479492096'
p1345
S'other_useful_information'
p1346
sS'460435331150405633'
p1347
S'affected_people'
p1348
sS'460407011960561665'
p1349
S'other_useful_information'
p1350
sS'460458692152811520'
p1351
S'disease_signs_or_symptoms'
p1352
sS'460430482191421440'
p1353
S'other_useful_information'
p1354
sS'460432216577691649'
p1355
S'disease_transmission'
p1356
sS'460508429048881152'
p1357
S'disease_signs_or_symptoms'
p1358
sS'460644771707756544'
p1359
S'other_useful_information'
p1360
sS'460408286014341120'
p1361
S'affected_people'
p1362
sS'460561283448700928'
p1363
S'other_useful_information'
p1364
sS'460398064923344896'
p1365
S'other_useful_information'
p1366
sS'460560756358934528'
p1367
S'not_related_or_irrelevant'
p1368
sS'460577421872222208'
p1369
S'disease_transmission'
p1370
sS'460407917741486082'
p1371
S'disease_transmission'
p1372
sS'460583139199287296'
p1373
S'affected_people'
p1374
sS'460546768460349440'
p1375
S'other_useful_information'
p1376
sS'460410002021154816'
p1377
S'affected_people'
p1378
sS'460635370502500352'
p1379
S'affected_people'
p1380
sS'460608171669983232'
p1381
S'affected_people'
p1382
sS'460516343649820672'
p1383
S'affected_people'
p1384
sS'460436029468467200'
p1385
S'other_useful_information'
p1386
sS'460611823717584896'
p1387
S'disease_signs_or_symptoms'
p1388
sS'460522263323115520'
p1389
S'other_useful_information'
p1390
sS'460658067462692864'
p1391
S'affected_people'
p1392
sS'460404530157719552'
p1393
S'affected_people'
p1394
sS'460529810612043776'
p1395
S'affected_people'
p1396
sS'460513949201760256'
p1397
S'affected_people'
p1398
sS'460671817456578560'
p1399
S'not_related_or_irrelevant'
p1400
sS'460498368079208448'
p1401
S'other_useful_information'
p1402
sS'460496904259108864'
p1403
S'disease_signs_or_symptoms'
p1404
sS'460566008277639168'
p1405
S'disease_transmission'
p1406
sS'460457349187371009'
p1407
S'other_useful_information'
p1408
sS'460620314146127872'
p1409
S'other_useful_information'
p1410
sS'460659688179109888'
p1411
S'other_useful_information'
p1412
sS'460503372354060288'
p1413
S'disease_transmission'
p1414
sS'460406652836274176'
p1415
S'disease_transmission'
p1416
sS'460456325692928000'
p1417
S'affected_people'
p1418
sS'460522951277019136'
p1419
S'other_useful_information'
p1420
sS'460581534559252480'
p1421
S'affected_people'
p1422
sS'460480486087725056'
p1423
S'affected_people'
p1424
sS'460431682009849856'
p1425
S'other_useful_information'
p1426
sS'460557793779408896'
p1427
S'affected_people'
p1428
sS'460585282127945728'
p1429
S'other_useful_information'
p1430
sS'460521281641668608'
p1431
S'affected_people'
p1432
sS'460520450121273345'
p1433
S'deaths_reports'
p1434
sS'460618838661292032'
p1435
S'affected_people'
p1436
sS'460498825267150848'
p1437
S'affected_people'
p1438
sS'460563317564510208'
p1439
S'other_useful_information'
p1440
sS'460527081534013441'
p1441
S'other_useful_information'
p1442
sS'460505061039570944'
p1443
S'disease_transmission'
p1444
sS'460549903664443392'
p1445
S'disease_transmission'
p1446
sS'460457072027385856'
p1447
S'disease_signs_or_symptoms'
p1448
sS'460471803182608384'
p1449
S'prevention'
p1450
sS'460447319142322177'
p1451
S'affected_people'
p1452
sS'460664101899743232'
p1453
S'other_useful_information'
p1454
sS'460427928942034944'
p1455
S'affected_people'
p1456
sS'460468126254387200'
p1457
S'other_useful_information'
p1458
sS'460564384696135680'
p1459
S'affected_people'
p1460
sS'460470619860389888'
p1461
S'other_useful_information'
p1462
sS'460398146380902400'
p1463
S'other_useful_information'
p1464
sS'460446730194923521'
p1465
S'affected_people'
p1466
sS'460562855675174912'
p1467
S'disease_transmission'
p1468
sS'460432994113970176'
p1469
S'other_useful_information'
p1470
sS'460463480672251904'
p1471
S'affected_people'
p1472
sS'460586051254239233'
p1473
S'disease_transmission'
p1474
sS'460410307178168320'
p1475
S'disease_transmission'
p1476
sS'460494517452689408'
p1477
S'other_useful_information'
p1478
sS'460556397122707456'
p1479
S'deaths_reports'
p1480
sS'460595197425225728'
p1481
S'affected_people'
p1482
sS'460455904232886273'
p1483
S'other_useful_information'
p1484
sS'460562088839376897'
p1485
S'other_useful_information'
p1486
sS'460588943537213440'
p1487
S'other_useful_information'
p1488
sS'460561581466976256'
p1489
S'disease_transmission'
p1490
sS'460606909452935168'
p1491
S'other_useful_information'
p1492
sS'460506559538135040'
p1493
S'affected_people'
p1494
sS'460398555329331200'
p1495
S'disease_signs_or_symptoms'
p1496
sS'460664541274050561'
p1497
S'affected_people'
p1498
sS'460427531712073728'
p1499
S'disease_transmission'
p1500
sS'460672161112264704'
p1501
S'affected_people'
p1502
sS'460448364765908994'
p1503
S'affected_people'
p1504
sS'460604671544266752'
p1505
S'other_useful_information'
p1506
sS'460563394274156544'
p1507
S'other_useful_information'
p1508
sS'460595377461145600'
p1509
S'other_useful_information'
p1510
sS'460574888927830017'
p1511
S'affected_people'
p1512
sS'460584428163440641'
p1513
S'other_useful_information'
p1514
sS'460464670324056064'
p1515
S'other_useful_information'
p1516
sS'460466972237787136'
p1517
S'other_useful_information'
p1518
sS'460582961734103040'
p1519
S'other_useful_information'
p1520
sS'460662709332492289'
p1521
S'other_useful_information'
p1522
sS'460563133656879104'
p1523
S'affected_people'
p1524
sS'460583643820216320'
p1525
S'affected_people'
p1526
sS'460411871192182785'
p1527
S'disease_signs_or_symptoms'
p1528
sS'460508336895832064'
p1529
S'other_useful_information'
p1530
sS'460674939465388033'
p1531
S'other_useful_information'
p1532
sS'460565390829969409'
p1533
S'affected_people'
p1534
sS'460513728102793216'
p1535
S'affected_people'
p1536
sS'460567764575350785'
p1537
S'other_useful_information'
p1538
sS'460577665833918464'
p1539
S'other_useful_information'
p1540
sS'460455637487333376'
p1541
S'affected_people'
p1542
sS'460544801838874624'
p1543
S'disease_signs_or_symptoms'
p1544
sS'460438824506511360'
p1545
S'affected_people'
p1546
sS'460435330730954754'
p1547
S'other_useful_information'
p1548
sS'460543151115997184'
p1549
S'affected_people'
p1550
sS'460562111765020672'
p1551
S'other_useful_information'
p1552
sS'460577682397224960'
p1553
S'disease_signs_or_symptoms'
p1554
sS'460579070984470528'
p1555
S'prevention'
p1556
sS'460601808231333888'
p1557
S'affected_people'
p1558
sS'460602557572718593'
p1559
S'disease_signs_or_symptoms'
p1560
sS'460513767135391744'
p1561
S'affected_people'
p1562
sS'460478918173392896'
p1563
S'treatment'
p1564
sS'460524353516355584'
p1565
S'other_useful_information'
p1566
sS'460562363901820928'
p1567
S'disease_signs_or_symptoms'
p1568
sS'460554443654582272'
p1569
S'affected_people'
p1570
sS'460524191163224065'
p1571
S'affected_people'
p1572
sS'460518582439268352'
p1573
S'affected_people'
p1574
sS'460401843927937024'
p1575
S'affected_people'
p1576
sS'460423004271304704'
p1577
S'disease_transmission'
p1578
sS'460566216529027072'
p1579
S'affected_people'
p1580
sS'460415636343361536'
p1581
S'affected_people'
p1582
sS'460558124496465920'
p1583
S'affected_people'
p1584
sS'460468937701216256'
p1585
S'affected_people'
p1586
sS'460517034284306434'
p1587
S'affected_people'
p1588
sS'460584065310003200'
p1589
S'treatment'
p1590
sS'460509432636792832'
p1591
S'affected_people'
p1592
sS'460561872500948992'
p1593
S'affected_people'
p1594
sS'460435271708708864'
p1595
S'disease_transmission'
p1596
sS'460428624089595904'
p1597
S'disease_transmission'
p1598
sS'460665653595099136'
p1599
S'prevention'
p1600
sS'460478615436943360'
p1601
S'affected_people'
p1602
sS'460554274456358914'
p1603
S'affected_people'
p1604
sS'460513992482766848'
p1605
S'disease_signs_or_symptoms'
p1606
sS'460402577495318528'
p1607
S'not_related_or_irrelevant'
p1608
sS'460498839447683073'
p1609
S'other_useful_information'
p1610
sS'460612369391947777'
p1611
S'disease_transmission'
p1612
sS'460576987854020609'
p1613
S'affected_people'
p1614
sS'460435259377479681'
p1615
S'affected_people'
p1616
sS'460626487675064321'
p1617
S'affected_people'
p1618
sS'460562388282908672'
p1619
S'disease_transmission'
p1620
sS'460568755345444864'
p1621
S'other_useful_information'
p1622
sS'460657819746721792'
p1623
S'affected_people'
p1624
sS'460562423179538433'
p1625
S'treatment'
p1626
sS'460498267898675200'
p1627
S'affected_people'
p1628
sS'460578428475822080'
p1629
S'disease_signs_or_symptoms'
p1630
sS'460586242535485440'
p1631
S'other_useful_information'
p1632
sS'460512091292463105'
p1633
S'affected_people'
p1634
sS'460587341917466624'
p1635
S'other_useful_information'
p1636
sS'460672949083979776'
p1637
S'other_useful_information'
p1638
sS'460417113887637505'
p1639
S'affected_people'
p1640
sS'460533466665201664'
p1641
S'disease_transmission'
p1642
sS'460576805213462528'
p1643
S'affected_people'
p1644
sS'460535683640082432'
p1645
S'other_useful_information'
p1646
sS'460464609627881473'
p1647
S'affected_people'
p1648
sS'460527115297771521'
p1649
S'affected_people'
p1650
sS'460404886882885632'
p1651
S'other_useful_information'
p1652
sS'460561582934589440'
p1653
S'other_useful_information'
p1654
sS'460562221731311616'
p1655
S'other_useful_information'
p1656
sS'460490481688780800'
p1657
S'affected_people'
p1658
sS'460662244783968256'
p1659
S'treatment'
p1660
sS'460625026220564480'
p1661
S'not_related_or_irrelevant'
p1662
sS'460543256808284160'
p1663
S'affected_people'
p1664
sS'460607368766562304'
p1665
S'disease_transmission'
p1666
sS'460578580729446400'
p1667
S'affected_people'
p1668
sS'460524565207064577'
p1669
S'affected_people'
p1670
sS'460673270766116864'
p1671
S'prevention'
p1672
sS'460582892813316096'
p1673
S'other_useful_information'
p1674
sS'460561928281014273'
p1675
S'other_useful_information'
p1676
sS'460576488320794626'
p1677
S'disease_transmission'
p1678
sS'460576278546882560'
p1679
S'affected_people'
p1680
sS'460589432140492801'
p1681
S'affected_people'
p1682
sS'460563128560787456'
p1683
S'disease_signs_or_symptoms'
p1684
sS'460408412476801024'
p1685
S'other_useful_information'
p1686
sS'460601907879243779'
p1687
S'deaths_reports'
p1688
sS'460442150334124032'
p1689
S'disease_transmission'
p1690
sS'460483545178583040'
p1691
S'disease_transmission'
p1692
sS'460522085895647232'
p1693
S'affected_people'
p1694
sS'460630334649143296'
p1695
S'affected_people'
p1696
sS'460577124508643328'
p1697
S'affected_people'
p1698
sS'460651027294089216'
p1699
S'affected_people'
p1700
sS'460521346259513344'
p1701
S'deaths_reports'
p1702
sS'460584034582548480'
p1703
S'affected_people'
p1704
sS'460520125285027841'
p1705
S'affected_people'
p1706
sS'460419679912476672'
p1707
S'affected_people'
p1708
sS'460525522443702273'
p1709
S'disease_signs_or_symptoms'
p1710
sS'460514007599030273'
p1711
S'affected_people'
p1712
sS'460487831530799104'
p1713
S'affected_people'
p1714
sS'460628739261345792'
p1715
S'affected_people'
p1716
sS'460622699086094337'
p1717
S'disease_transmission'
p1718
sS'460561135029063680'
p1719
S'affected_people'
p1720
sS'460405480834080769'
p1721
S'other_useful_information'
p1722
sS'460600435133272064'
p1723
S'treatment'
p1724
sS'460579141989855232'
p1725
S'disease_signs_or_symptoms'
p1726
sS'460454074643906560'
p1727
S'other_useful_information'
p1728
sS'460514096493129728'
p1729
S'other_useful_information'
p1730
sS'460430683346051072'
p1731
S'affected_people'
p1732
sS'460535876343193600'
p1733
S'affected_people'
p1734
sS'460562011818954752'
p1735
S'other_useful_information'
p1736
sS'460562835504758784'
p1737
S'disease_signs_or_symptoms'
p1738
sS'460674456005128192'
p1739
S'deaths_reports'
p1740
sS'460427436740460545'
p1741
S'affected_people'
p1742
sS'460651413740060672'
p1743
S'other_useful_information'
p1744
sS'460577701577781248'
p1745
S'disease_signs_or_symptoms'
p1746
sS'460667593351639040'
p1747
S'affected_people'
p1748
sS'460634277546586112'
p1749
S'affected_people'
p1750
sS'460497093635735554'
p1751
S'treatment'
p1752
sS'460577692551634944'
p1753
S'other_useful_information'
p1754
sS'460673393705357312'
p1755
S'other_useful_information'
p1756
sS'460449474230247424'
p1757
S'other_useful_information'
p1758
sS'460671090214576129'
p1759
S'prevention'
p1760
sS'460502536718655488'
p1761
S'affected_people'
p1762
sS'460596401882161152'
p1763
S'affected_people'
p1764
sS'460584486690762754'
p1765
S'other_useful_information'
p1766
sS'460495130277842944'
p1767
S'affected_people'
p1768
sS'460638927565488129'
p1769
S'other_useful_information'
p1770
sS'460636257849069568'
p1771
S'other_useful_information'
p1772
sS'460550813090209793'
p1773
S'affected_people'
p1774
sS'460404012022771713'
p1775
S'affected_people'
p1776
sS'460622524422692865'
p1777
S'other_useful_information'
p1778
sS'460535288926724096'
p1779
S'affected_people'
p1780
sS'460464890189459457'
p1781
S'affected_people'
p1782
sS'460550877812916225'
p1783
S'affected_people'
p1784
sS'460435469726019586'
p1785
S'other_useful_information'
p1786
sS'460585860530835456'
p1787
S'treatment'
p1788
sS'460433743401189376'
p1789
S'disease_signs_or_symptoms'
p1790
sS'460514361086201856'
p1791
S'other_useful_information'
p1792
sS'460535775654711296'
p1793
S'prevention'
p1794
sS'460673946988183552'
p1795
S'affected_people'
p1796
sS'460585596788805632'
p1797
S'prevention'
p1798
sS'460412578012073984'
p1799
S'disease_signs_or_symptoms'
p1800
sS'460663240528113665'
p1801
S'disease_transmission'
p1802
sS'460612981127409665'
p1803
S'other_useful_information'
p1804
sS'460577432211173376'
p1805
S'affected_people'
p1806
sS'460484627875241984'
p1807
S'other_useful_information'
p1808
sS'460535066582470657'
p1809
S'affected_people'
p1810
sS'460502349736574976'
p1811
S'other_useful_information'
p1812
sS'460451334487945216'
p1813
S'affected_people'
p1814
sS'460573141341708289'
p1815
S'other_useful_information'
p1816
sS'460458856087568384'
p1817
S'disease_transmission'
p1818
sS'460425461617528832'
p1819
S'treatment'
p1820
sS'460489939512090624'
p1821
S'other_useful_information'
p1822
sS'460435738526367745'
p1823
S'disease_transmission'
p1824
sS'460404981527355393'
p1825
S'disease_signs_or_symptoms'
p1826
sS'460512935651991552'
p1827
S'affected_people'
p1828
sS'460577302083297280'
p1829
S'other_useful_information'
p1830
sS'460562178240552960'
p1831
S'other_useful_information'
p1832
sS'460513815164379136'
p1833
S'disease_signs_or_symptoms'
p1834
sS'460507566993571840'
p1835
S'affected_people'
p1836
sS'460581951246569472'
p1837
S'other_useful_information'
p1838
sS'460490708046983170'
p1839
S'other_useful_information'
p1840
sS'460585094508318720'
p1841
S'disease_transmission'
p1842
sS'460577611131805696'
p1843
S'disease_transmission'
p1844
sS'460456085422215169'
p1845
S'affected_people'
p1846
sS'460520757303721984'
p1847
S'deaths_reports'
p1848
sS'460580942533259264'
p1849
S'prevention'
p1850
sS'460489203173064704'
p1851
S'disease_transmission'
p1852
sS'460651305707769856'
p1853
S'disease_transmission'
p1854
sS'460652784019185664'
p1855
S'other_useful_information'
p1856
sS'460424679900348416'
p1857
S'affected_people'
p1858
sS'460501408899670017'
p1859
S'disease_transmission'
p1860
sS'460576024921931776'
p1861
S'other_useful_information'
p1862
sS'460671804525522945'
p1863
S'other_useful_information'
p1864
sS'460673885059678208'
p1865
S'disease_signs_or_symptoms'
p1866
sS'460399751477743617'
p1867
S'other_useful_information'
p1868
sS'460582893362741248'
p1869
S'affected_people'
p1870
sS'460570981460111361'
p1871
S'affected_people'
p1872
sS'460634767458066432'
p1873
S'affected_people'
p1874
sS'460589680732700672'
p1875
S'other_useful_information'
p1876
sS'460613076610740224'
p1877
S'disease_transmission'
p1878
sS'460594722583883776'
p1879
S'disease_signs_or_symptoms'
p1880
sS'460462238285840385'
p1881
S'deaths_reports'
p1882
sS'460665777910448128'
p1883
S'other_useful_information'
p1884
sS'460588987212509184'
p1885
S'affected_people'
p1886
sS'460612102260920320'
p1887
S'affected_people'
p1888
sS'460580314595618816'
p1889
S'other_useful_information'
p1890
sS'460584456110104577'
p1891
S'disease_transmission'
p1892
sS'460466820852764672'
p1893
S'disease_signs_or_symptoms'
p1894
sS'460522006429982720'
p1895
S'affected_people'
p1896
sS'460558967203049474'
p1897
S'other_useful_information'
p1898
sS'460561873868308482'
p1899
S'other_useful_information'
p1900
sS'460435271645810689'
p1901
S'affected_people'
p1902
sS'460458690550571009'
p1903
S'other_useful_information'
p1904
sS'460549354667794433'
p1905
S'disease_transmission'
p1906
sS'460634749909106688'
p1907
S'other_useful_information'
p1908
sS'460507748036526080'
p1909
S'disease_signs_or_symptoms'
p1910
sS'460535961353715712'
p1911
S'disease_transmission'
p1912
sS'460465362799054850'
p1913
S'other_useful_information'
p1914
sS'460527652819173376'
p1915
S'affected_people'
p1916
sS'460569114155577344'
p1917
S'disease_transmission'
p1918
sS'460568279443337216'
p1919
S'affected_people'
p1920
sS'460576187484360705'
p1921
S'other_useful_information'
p1922
sS'460427424040488960'
p1923
S'affected_people'
p1924
sS'460673127413190656'
p1925
S'disease_transmission'
p1926
sS'460594767194521600'
p1927
S'disease_transmission'
p1928
sS'460562208850587648'
p1929
S'affected_people'
p1930
sS'460498826709979136'
p1931
S'treatment'
p1932
sS'460405815367589888'
p1933
S'affected_people'
p1934
sS'460579276128256001'
p1935
S'other_useful_information'
p1936
sS'460509227413295104'
p1937
S'other_useful_information'
p1938
sS'460571781581910016'
p1939
S'affected_people'
p1940
sS'460660969203462144'
p1941
S'other_useful_information'
p1942
sS'460557569052786688'
p1943
S'other_useful_information'
p1944
sS'460562478586265600'
p1945
S'affected_people'
p1946
sS'460441671394942976'
p1947
S'not_related_or_irrelevant'
p1948
sS'460653157324845056'
p1949
S'other_useful_information'
p1950
sS'460566335823417345'
p1951
S'disease_transmission'
p1952
sS'460513949566664704'
p1953
S'affected_people'
p1954
sS'460420608929443841'
p1955
S'affected_people'
p1956
sS'460579272298872832'
p1957
S'affected_people'
p1958
sS'460671491529396224'
p1959
S'treatment'
p1960
sS'460428720382038016'
p1961
S'affected_people'
p1962
sS'460576070324850689'
p1963
S'affected_people'
p1964
sS'460568134936985600'
p1965
S'disease_transmission'
p1966
sS'460584476804780032'
p1967
S'disease_signs_or_symptoms'
p1968
sS'460426779799191554'
p1969
S'other_useful_information'
p1970
sS'460449602408579073'
p1971
S'other_useful_information'
p1972
sS'460585622751559681'
p1973
S'other_useful_information'
p1974
sS'460578175819321344'
p1975
S'other_useful_information'
p1976
sS'460398200315080704'
p1977
S'disease_signs_or_symptoms'
p1978
sS'460576540384710656'
p1979
S'other_useful_information'
p1980
sS'460504323114283008'
p1981
S'disease_transmission'
p1982
sS'460665970072121344'
p1983
S'disease_transmission'
p1984
sS'460512734757416961'
p1985
S'other_useful_information'
p1986
sS'460590620705173504'
p1987
S'other_useful_information'
p1988
sS'460438880945061889'
p1989
S'disease_transmission'
p1990
sS'460663605008928768'
p1991
S'other_useful_information'
p1992
sS'460508901910528001'
p1993
S'affected_people'
p1994
sS'460520416377708545'
p1995
S'affected_people'
p1996
sS'460567487349014528'
p1997
S'disease_transmission'
p1998
sS'460673209583427586'
p1999
S'deaths_reports'
p2000
sS'460401189780463616'
p2001
S'other_useful_information'
p2002
sS'460584097207693312'
p2003
S'not_related_or_irrelevant'
p2004
sS'460427546929025024'
p2005
S'other_useful_information'
p2006
sS'460450920745418752'
p2007
S'other_useful_information'
p2008
sS'460534926258241537'
p2009
S'disease_signs_or_symptoms'
p2010
sS'460571707959287808'
p2011
S'other_useful_information'
p2012
sS'460492605143252992'
p2013
S'disease_transmission'
p2014
sS'460632556376170496'
p2015
S'affected_people'
p2016
sS'460629677523337216'
p2017
S'affected_people'
p2018
sS'460579620840947712'
p2019
S'disease_signs_or_symptoms'
p2020
sS'460464095427567616'
p2021
S'disease_transmission'
p2022
sS'460487332144357376'
p2023
S'other_useful_information'
p2024
sS'460427921778552832'
p2025
S'disease_transmission'
p2026
sS'460671877732921344'
p2027
S'not_related_or_irrelevant'
p2028
sS'460509812531679232'
p2029
S'other_useful_information'
p2030
sS'460583060212183040'
p2031
S'other_useful_information'
p2032
sS'460438344208777216'
p2033
S'treatment'
p2034
sS'460464313766248449'
p2035
S'other_useful_information'
p2036
sS'460434019406999552'
p2037
S'affected_people'
p2038
sS'460654136380231680'
p2039
S'affected_people'
p2040
sS'460549882886234114'
p2041
S'affected_people'
p2042
sS'460560449356849152'
p2043
S'disease_transmission'
p2044
sS'460436267071598592'
p2045
S'affected_people'
p2046
sS'460593470147530753'
p2047
S'other_useful_information'
p2048
sS'460664445644320768'
p2049
S'not_related_or_irrelevant'
p2050
sS'460447796597112832'
p2051
S'disease_transmission'
p2052
sS'460561926070607872'
p2053
S'affected_people'
p2054
sS'460479183320125440'
p2055
S'other_useful_information'
p2056
sS'460472269433602050'
p2057
S'treatment'
p2058
sS'460651265337589760'
p2059
S'affected_people'
p2060
sS'460563071405404161'
p2061
S'affected_people'
p2062
sS'460464300344492033'
p2063
S'other_useful_information'
p2064
sS'460462562342346752'
p2065
S'affected_people'
p2066
sS'460607781817815040'
p2067
S'other_useful_information'
p2068
sS'460407131678994432'
p2069
S'other_useful_information'
p2070
sS'460535175659548672'
p2071
S'other_useful_information'
p2072
sS'460489701859000320'
p2073
S'affected_people'
p2074
sS'460521963514236928'
p2075
S'affected_people'
p2076
sS'460560958726086656'
p2077
S'treatment'
p2078
sS'460579984068071424'
p2079
S'other_useful_information'
p2080
sS'460535136677666816'
p2081
S'other_useful_information'
p2082
sS'460563114434375682'
p2083
S'affected_people'
p2084
sS'460563435571249152'
p2085
S'affected_people'
p2086
sS'460562618277560320'
p2087
S'affected_people'
p2088
sS'460646619395141632'
p2089
S'disease_signs_or_symptoms'
p2090
sS'460584252954787840'
p2091
S'affected_people'
p2092
sS'460422530365669376'
p2093
S'other_useful_information'
p2094
sS'460509919381172229'
p2095
S'deaths_reports'
p2096
sS'460447856860856320'
p2097
S'affected_people'
p2098
sS'460495086183137280'
p2099
S'other_useful_information'
p2100
sS'460475673581481984'
p2101
S'disease_transmission'
p2102
sS'460566228369555457'
p2103
S'not_related_or_irrelevant'
p2104
sS'460556738245455872'
p2105
S'affected_people'
p2106
sS'460588915498303488'
p2107
S'other_useful_information'
p2108
sS'460668396921573376'
p2109
S'other_useful_information'
p2110
sS'460582760625610752'
p2111
S'affected_people'
p2112
sS'460577932918800384'
p2113
S'affected_people'
p2114
sS'460463194570776576'
p2115
S'affected_people'
p2116
sS'460467307345903616'
p2117
S'other_useful_information'
p2118
sS'460587302298087424'
p2119
S'disease_transmission'
p2120
sS'460523637335142400'
p2121
S'affected_people'
p2122
sS'460594968445206528'
p2123
S'other_useful_information'
p2124
sS'460561483701977088'
p2125
S'affected_people'
p2126
sS'460425840845918208'
p2127
S'disease_transmission'
p2128
sS'460597076737282049'
p2129
S'other_useful_information'
p2130
sS'460583703228325888'
p2131
S'other_useful_information'
p2132
sS'460601807899996160'
p2133
S'affected_people'
p2134
sS'460516184237301760'
p2135
S'other_useful_information'
p2136
sS'460486414480572417'
p2137
S'treatment'
p2138
sS'460577409566126080'
p2139
S'disease_transmission'
p2140
sS'460518023674085376'
p2141
S'disease_transmission'
p2142
sS'460487311499616257'
p2143
S'affected_people'
p2144
sS'460606818545590272'
p2145
S'other_useful_information'
p2146
sS'460625621149032448'
p2147
S'affected_people'
p2148
sS'460425374342840320'
p2149
S'other_useful_information'
p2150
sS'460488700485308418'
p2151
S'other_useful_information'
p2152
sS'460594683618402305'
p2153
S'other_useful_information'
p2154
sS'460398876827320320'
p2155
S'disease_transmission'
p2156
sS'460578547032006656'
p2157
S'disease_transmission'
p2158
sS'460581696929157120'
p2159
S'affected_people'
p2160
sS'460438219952119809'
p2161
S'other_useful_information'
p2162
sS'460464749806112768'
p2163
S'other_useful_information'
p2164
sS'460415931764981761'
p2165
S'other_useful_information'
p2166
sS'460420401802539008'
p2167
S'other_useful_information'
p2168
sS'460642491503767552'
p2169
S'other_useful_information'
p2170
sS'460419656948658176'
p2171
S'prevention'
p2172
sS'460577261398155264'
p2173
S'disease_signs_or_symptoms'
p2174
sS'460449725482037248'
p2175
S'other_useful_information'
p2176
sS'460399646729601024'
p2177
S'affected_people'
p2178
sS'460452028729552896'
p2179
S'affected_people'
p2180
sS'460471957029666816'
p2181
S'affected_people'
p2182
sS'460543552150593536'
p2183
S'affected_people'
p2184
sS'460579862063751168'
p2185
S'disease_signs_or_symptoms'
p2186
sS'460562870971793409'
p2187
S'other_useful_information'
p2188
sS'460492160152764416'
p2189
S'other_useful_information'
p2190
sS'460413375629901825'
p2191
S'affected_people'
p2192
sS'460480733417848832'
p2193
S'other_useful_information'
p2194
sS'460486372910850048'
p2195
S'affected_people'
p2196
sS'460498207575769088'
p2197
S'affected_people'
p2198
sS'460561447723233281'
p2199
S'other_useful_information'
p2200
sS'460398364228874240'
p2201
S'disease_transmission'
p2202
sS'460428258581168128'
p2203
S'disease_transmission'
p2204
sS'460516476907433985'
p2205
S'affected_people'
p2206
sS'460666602162118656'
p2207
S'other_useful_information'
p2208
sS'460420245313060864'
p2209
S'disease_transmission'
p2210
sS'460488438320738304'
p2211
S'deaths_reports'
p2212
sS'460585132798124032'
p2213
S'affected_people'
p2214
sS'460561339321040897'
p2215
S'affected_people'
p2216
sS'460518597602078720'
p2217
S'affected_people'
p2218
sS'460585010194837504'
p2219
S'affected_people'
p2220
sS'460447175001276416'
p2221
S'affected_people'
p2222
sS'460411412528254976'
p2223
S'disease_transmission'
p2224
sS'460630527654248448'
p2225
S'affected_people'
p2226
sS'460513786995441664'
p2227
S'treatment'
p2228
sS'460450810103861248'
p2229
S'other_useful_information'
p2230
sS'460458834411417600'
p2231
S'other_useful_information'
p2232
sS'460460095722516481'
p2233
S'prevention'
p2234
sS'460474855713177600'
p2235
S'affected_people'
p2236
sS'460506829999468545'
p2237
S'other_useful_information'
p2238
sS'460520911162990592'
p2239
S'affected_people'
p2240
sS'460411786941194240'
p2241
S'other_useful_information'
p2242
sS'460528246673526785'
p2243
S'affected_people'
p2244
sS'460437739700510720'
p2245
S'disease_transmission'
p2246
sS'460403121723043841'
p2247
S'disease_signs_or_symptoms'
p2248
sS'460561686013808641'
p2249
S'affected_people'
p2250
sS'460577508333588480'
p2251
S'affected_people'
p2252
sS'460575719987642369'
p2253
S'affected_people'
p2254
sS'460631009609125889'
p2255
S'disease_transmission'
p2256
sS'460577863108800512'
p2257
S'affected_people'
p2258
sS'460577893135831041'
p2259
S'affected_people'
p2260
sS'460482422304681984'
p2261
S'affected_people'
p2262
sS'460551077893787648'
p2263
S'disease_transmission'
p2264
sS'460568621778214912'
p2265
S'affected_people'
p2266
sS'460644878503133184'
p2267
S'other_useful_information'
p2268
sS'460582442353438722'
p2269
S'treatment'
p2270
sS'460492550944460800'
p2271
S'other_useful_information'
p2272
sS'460420872268828673'
p2273
S'disease_transmission'
p2274
sS'460580546423578624'
p2275
S'affected_people'
p2276
sS'460452205519048707'
p2277
S'affected_people'
p2278
sS'460406831647850496'
p2279
S'affected_people'
p2280
sS'460540519266123777'
p2281
S'affected_people'
p2282
sS'460561500583649281'
p2283
S'affected_people'
p2284
sS'460406925109510144'
p2285
S'other_useful_information'
p2286
sS'460516836891959297'
p2287
S'prevention'
p2288
sS'460576612472205313'
p2289
S'disease_transmission'
p2290
sS'460623040829988864'
p2291
S'affected_people'
p2292
sS'460564509032058880'
p2293
S'affected_people'
p2294
sS'460514170819997696'
p2295
S'disease_transmission'
p2296
sS'460440663423975424'
p2297
S'affected_people'
p2298
sS'460501996349718528'
p2299
S'other_useful_information'
p2300
sS'460468080200929280'
p2301
S'prevention'
p2302
sS'460577611408613377'
p2303
S'disease_transmission'
p2304
sS'460597329603469312'
p2305
S'other_useful_information'
p2306
sS'460628300759437312'
p2307
S'affected_people'
p2308
sS'460674493078585344'
p2309
S'disease_signs_or_symptoms'
p2310
sS'460576589940396032'
p2311
S'other_useful_information'
p2312
sS'460399448871665665'
p2313
S'other_useful_information'
p2314
sS'460572687987769344'
p2315
S'other_useful_information'
p2316
sS'460591161619382272'
p2317
S'affected_people'
p2318
sS'460410333753249792'
p2319
S'affected_people'
p2320
sS'460577497977872384'
p2321
S'other_useful_information'
p2322
sS'460539741264310273'
p2323
S'other_useful_information'
p2324
sS'460431689861173249'
p2325
S'treatment'
p2326
sS'460567061177987072'
p2327
S'other_useful_information'
p2328
sS'460525723812630528'
p2329
S'other_useful_information'
p2330
sS'460450810980470784'
p2331
S'disease_transmission'
p2332
sS'460578614644207616'
p2333
S'disease_signs_or_symptoms'
p2334
sS'460552084895830016'
p2335
S'other_useful_information'
p2336
sS'460465643146706944'
p2337
S'affected_people'
p2338
sS'460423752518352897'
p2339
S'other_useful_information'
p2340
sS'460524273975984130'
p2341
S'other_useful_information'
p2342
sS'460562853783535617'
p2343
S'disease_transmission'
p2344
sS'460590696802820096'
p2345
S'affected_people'
p2346
sS'460461832927318016'
p2347
S'prevention'
p2348
sS'460575624617144321'
p2349
S'other_useful_information'
p2350
sS'460467742085484545'
p2351
S'affected_people'
p2352
sS'460651427119906816'
p2353
S'other_useful_information'
p2354
sS'460487381548670976'
p2355
S'affected_people'
p2356
sS'460597887806607360'
p2357
S'other_useful_information'
p2358
sS'460650190081232896'
p2359
S'other_useful_information'
p2360
sS'460470122344644608'
p2361
S'other_useful_information'
p2362
sS'460672181769216000'
p2363
S'other_useful_information'
p2364
sS'460435358459506688'
p2365
S'other_useful_information'
p2366
sS'460648021936832512'
p2367
S'other_useful_information'
p2368
sS'460599724815306752'
p2369
S'disease_transmission'
p2370
sS'460485574814478337'
p2371
S'other_useful_information'
p2372
sS'460561178729906176'
p2373
S'affected_people'
p2374
sS'460608186446131200'
p2375
S'affected_people'
p2376
sS'460464461045055488'
p2377
S'other_useful_information'
p2378
sS'460497944504836096'
p2379
S'treatment'
p2380
sS'460525224317186048'
p2381
S'affected_people'
p2382
sS'460535729047613441'
p2383
S'not_related_or_irrelevant'
p2384
sS'460598320629829632'
p2385
S'disease_signs_or_symptoms'
p2386
sS'460425063939178496'
p2387
S'other_useful_information'
p2388
sS'460550252383051777'
p2389
S'affected_people'
p2390
sS'460518495667908608'
p2391
S'other_useful_information'
p2392
sS'460582141936816128'
p2393
S'other_useful_information'
p2394
sS'460564493626392576'
p2395
S'other_useful_information'
p2396
sS'460523631685033984'
p2397
S'disease_signs_or_symptoms'
p2398
sS'460564460046786560'
p2399
S'affected_people'
p2400
sS'460588184619864064'
p2401
S'other_useful_information'
p2402
sS'460565920558379008'
p2403
S'other_useful_information'
p2404
sS'460464269474414592'
p2405
S'other_useful_information'
p2406
sS'460650874537119745'
p2407
S'affected_people'
p2408
sS'460581955667369985'
p2409
S'affected_people'
p2410
sS'460562380187897856'
p2411
S'affected_people'
p2412
sS'460578654217445376'
p2413
S'other_useful_information'
p2414
sS'460439803566116865'
p2415
S'disease_signs_or_symptoms'
p2416
sS'460508388300845056'
p2417
S'other_useful_information'
p2418
sS'460427744627916800'
p2419
S'other_useful_information'
p2420
sS'460492629105324034'
p2421
S'disease_transmission'
p2422
sS'460587967870816256'
p2423
S'disease_transmission'
p2424
sS'460405862138675200'
p2425
S'treatment'
p2426
sS'460396304519024640'
p2427
S'disease_signs_or_symptoms'
p2428
sS'460650814068240384'
p2429
S'disease_transmission'
p2430
sS'460482952946659328'
p2431
S'disease_signs_or_symptoms'
p2432
sS'460406992939810816'
p2433
S'other_useful_information'
p2434
sS'460585382132723713'
p2435
S'affected_people'
p2436
sS'460637801227497472'
p2437
S'other_useful_information'
p2438
sS'460672801062400000'
p2439
S'other_useful_information'
p2440
sS'460489662935465984'
p2441
S'affected_people'
p2442
sS'460579322563399680'
p2443
S'other_useful_information'
p2444
sS'460406475308142592'
p2445
S'other_useful_information'
p2446
sS'460506784172478464'
p2447
S'other_useful_information'
p2448
sS'460400702985347072'
p2449
S'affected_people'
p2450
sS'460672153201831936'
p2451
S'other_useful_information'
p2452
sS'460575831815778304'
p2453
S'treatment'
p2454
sS'460583525029142528'
p2455
S'other_useful_information'
p2456
sS'460550182778970112'
p2457
S'not_related_or_irrelevant'
p2458
sS'460563260375175168'
p2459
S'other_useful_information'
p2460
sS'460409346590248960'
p2461
S'affected_people'
p2462
sS'460426968404873216'
p2463
S'affected_people'
p2464
sS'460552886808633344'
p2465
S'other_useful_information'
p2466
sS'460577298261876736'
p2467
S'other_useful_information'
p2468
sS'460528327573262338'
p2469
S'disease_signs_or_symptoms'
p2470
sS'460562021293891584'
p2471
S'disease_transmission'
p2472
sS'460548794472345601'
p2473
S'affected_people'
p2474
sS'460493002423545856'
p2475
S'prevention'
p2476
sS'460469014842867713'
p2477
S'affected_people'
p2478
sS'460470614076039168'
p2479
S'disease_transmission'
p2480
sS'460499965542817793'
p2481
S'disease_signs_or_symptoms'
p2482
sS'460574029804359680'
p2483
S'other_useful_information'
p2484
sS'460535354882134016'
p2485
S'disease_signs_or_symptoms'
p2486
sS'460562916656160768'
p2487
S'affected_people'
p2488
sS'460492008625143810'
p2489
S'affected_people'
p2490
sS'460568021006692352'
p2491
S'disease_signs_or_symptoms'
p2492
sS'460585356169977856'
p2493
S'other_useful_information'
p2494
sS'460431362475184128'
p2495
S'prevention'
p2496
sS'460525729416237056'
p2497
S'disease_transmission'
p2498
sS'460597855611154433'
p2499
S'disease_signs_or_symptoms'
p2500
sS'460564004859940865'
p2501
S'affected_people'
p2502
sS'460413969682165760'
p2503
S'other_useful_information'
p2504
sS'460530750534610944'
p2505
S'other_useful_information'
p2506
sS'460665635979423744'
p2507
S'other_useful_information'
p2508
sS'460539281170112512'
p2509
S'disease_transmission'
p2510
sS'460561371579428864'
p2511
S'disease_transmission'
p2512
sS'460483732940390401'
p2513
S'other_useful_information'
p2514
sS'460532509395402752'
p2515
S'other_useful_information'
p2516
sS'460475410078527488'
p2517
S'disease_transmission'
p2518
sS'460429650003382272'
p2519
S'other_useful_information'
p2520
sS'460575721334009856'
p2521
S'other_useful_information'
p2522
sS'460564071893323776'
p2523
S'disease_signs_or_symptoms'
p2524
sS'460448897950044160'
p2525
S'affected_people'
p2526
sS'460584658585919488'
p2527
S'disease_transmission'
p2528
sS'460561378521001984'
p2529
S'affected_people'
p2530
sS'460561561627918336'
p2531
S'affected_people'
p2532
sS'460584854074040320'
p2533
S'other_useful_information'
p2534
sS'460567402506252288'
p2535
S'other_useful_information'
p2536
sS'460490415720787968'
p2537
S'disease_transmission'
p2538
sS'460576932078161920'
p2539
S'disease_transmission'
p2540
sS'460451822332030977'
p2541
S'other_useful_information'
p2542
sS'460486283148529664'
p2543
S'disease_transmission'
p2544
sS'460429314438074370'
p2545
S'disease_transmission'
p2546
sS'460516377200431104'
p2547
S'other_useful_information'
p2548
sS'460585661536276480'
p2549
S'affected_people'
p2550
sS'460621382972628992'
p2551
S'other_useful_information'
p2552
sS'460513164871081984'
p2553
S'affected_people'
p2554
sS'460482681394835456'
p2555
S'affected_people'
p2556
sS'460469409753358337'
p2557
S'not_related_or_irrelevant'
p2558
sS'460585550089420800'
p2559
S'affected_people'
p2560
sS'460585188796665856'
p2561
S'other_useful_information'
p2562
sS'460563129181560832'
p2563
S'affected_people'
p2564
sS'460658434027700224'
p2565
S'affected_people'
p2566
sS'460401830573256704'
p2567
S'affected_people'
p2568
sS'460576898083332096'
p2569
S'affected_people'
p2570
sS'460585205141479424'
p2571
S'other_useful_information'
p2572
sS'460452149382889472'
p2573
S'other_useful_information'
p2574
sS'460563447118168065'
p2575
S'deaths_reports'
p2576
sS'460459673238253569'
p2577
S'other_useful_information'
p2578
sS'460664543593902080'
p2579
S'other_useful_information'
p2580
sS'460584121157160960'
p2581
S'other_useful_information'
p2582
sS'460478235319734273'
p2583
S'treatment'
p2584
sS'460588080546996224'
p2585
S'other_useful_information'
p2586
sS'460518906671927297'
p2587
S'disease_signs_or_symptoms'
p2588
sS'460488079623471104'
p2589
S'other_useful_information'
p2590
sS'460457968828686336'
p2591
S'affected_people'
p2592
sS'460541233560297472'
p2593
S'disease_transmission'
p2594
sS'460648939364962304'
p2595
S'other_useful_information'
p2596
sS'460577206599557120'
p2597
S'not_related_or_irrelevant'
p2598
sS'460431953775185920'
p2599
S'prevention'
p2600
sS'460557434541461504'
p2601
S'disease_signs_or_symptoms'
p2602
sS'460497775528923138'
p2603
S'affected_people'
p2604
sS'460492029697748992'
p2605
S'treatment'
p2606
sS'460575967467958272'
p2607
S'other_useful_information'
p2608
sS'460496381732347904'
p2609
S'disease_signs_or_symptoms'
p2610
sS'460644577553432576'
p2611
S'other_useful_information'
p2612
sS'460486454972780545'
p2613
S'affected_people'
p2614
sS'460586780795092992'
p2615
S'affected_people'
p2616
sS'460562234855653376'
p2617
S'affected_people'
p2618
sS'460578677508431872'
p2619
S'not_related_or_irrelevant'
p2620
sS'460448319014043648'
p2621
S'disease_transmission'
p2622
sS'460582445583040512'
p2623
S'affected_people'
p2624
sS'460463463874457601'
p2625
S'other_useful_information'
p2626
sS'460566220899495936'
p2627
S'other_useful_information'
p2628
sS'460630372623986688'
p2629
S'other_useful_information'
p2630
sS'460577824806412288'
p2631
S'affected_people'
p2632
sS'460449166800736256'
p2633
S'affected_people'
p2634
sS'460397967103754240'
p2635
S'disease_signs_or_symptoms'
p2636
sS'460667308500070400'
p2637
S'affected_people'
p2638
sS'460410242791378944'
p2639
S'disease_transmission'
p2640
sS'460534369363308545'
p2641
S'disease_signs_or_symptoms'
p2642
sS'460430120281321472'
p2643
S'not_related_or_irrelevant'
p2644
sS'460573652358934528'
p2645
S'other_useful_information'
p2646
sS'460450809961250816'
p2647
S'treatment'
p2648
sS'460632699435118592'
p2649
S'affected_people'
p2650
sS'460464580368424960'
p2651
S'other_useful_information'
p2652
sS'460468099951898624'
p2653
S'affected_people'
p2654
sS'460429463994793985'
p2655
S'other_useful_information'
p2656
sS'460671142714294272'
p2657
S'other_useful_information'
p2658
sS'460629714965499904'
p2659
S'other_useful_information'
p2660
sS'460583903019806722'
p2661
S'affected_people'
p2662
sS'460464423052668930'
p2663
S'not_related_or_irrelevant'
p2664
sS'460527588650127361'
p2665
S'disease_transmission'
p2666
sS'460618644645355520'
p2667
S'affected_people'
p2668
sS'460522028781408259'
p2669
S'prevention'
p2670
sS'460558597173174272'
p2671
S'other_useful_information'
p2672
sS'460649292189822977'
p2673
S'affected_people'
p2674
sS'460427911023968257'
p2675
S'treatment'
p2676
sS'460492105383952384'
p2677
S'affected_people'
p2678
sS'460418765092831233'
p2679
S'affected_people'
p2680
sS'460569222326673408'
p2681
S'treatment'
p2682
sS'460496578500120576'
p2683
S'affected_people'
p2684
sS'460503572342243328'
p2685
S'affected_people'
p2686
sS'460400944769806337'
p2687
S'affected_people'
p2688
sS'460584939528781824'
p2689
S'disease_signs_or_symptoms'
p2690
sS'460615790190800896'
p2691
S'other_useful_information'
p2692
sS'460518461458743296'
p2693
S'affected_people'
p2694
sS'460636287095943168'
p2695
S'other_useful_information'
p2696
sS'460561456644501504'
p2697
S'affected_people'
p2698
sS'460457996108460032'
p2699
S'other_useful_information'
p2700
sS'460528026518695936'
p2701
S'disease_signs_or_symptoms'
p2702
sS'460575792356159488'
p2703
S'prevention'
p2704
sS'460490746118688768'
p2705
S'other_useful_information'
p2706
sS'460554062275309568'
p2707
S'other_useful_information'
p2708
sS'460456319225327617'
p2709
S'treatment'
p2710
sS'460448290278866947'
p2711
S'other_useful_information'
p2712
sS'460513703906246656'
p2713
S'disease_signs_or_symptoms'
p2714
sS'460542519894237185'
p2715
S'affected_people'
p2716
sS'460492653306470400'
p2717
S'other_useful_information'
p2718
sS'460523186367778816'
p2719
S'other_useful_information'
p2720
sS'460610038034223104'
p2721
S'other_useful_information'
p2722
sS'460450809915121664'
p2723
S'affected_people'
p2724
sS'460435272065249280'
p2725
S'disease_transmission'
p2726
sS'460418522124795905'
p2727
S'other_useful_information'
p2728
sS'460447460415262721'
p2729
S'disease_transmission'
p2730
sS'460448105565933568'
p2731
S'other_useful_information'
p2732
sS'460517210104930305'
p2733
S'prevention'
p2734
sS'460480239131688960'
p2735
S'prevention'
p2736
sS'460561289723392000'
p2737
S'other_useful_information'
p2738
sS'460580820583845889'
p2739
S'affected_people'
p2740
sS'460499945028866048'
p2741
S'other_useful_information'
p2742
sS'460406930742063107'
p2743
S'other_useful_information'
p2744
sS'460582774647164929'
p2745
S'disease_transmission'
p2746
sS'460660331946078208'
p2747
S'disease_signs_or_symptoms'
p2748
sS'460585157993312256'
p2749
S'disease_signs_or_symptoms'
p2750
sS'460457940861075456'
p2751
S'other_useful_information'
p2752
sS'460578568422977536'
p2753
S'other_useful_information'
p2754
sS'460448540402413569'
p2755
S'affected_people'
p2756
sS'460512884359823360'
p2757
S'disease_transmission'
p2758
sS'460410135593353217'
p2759
S'affected_people'
p2760
sS'460561508385423360'
p2761
S'other_useful_information'
p2762
sS'460470244331753474'
p2763
S'other_useful_information'
p2764
sS'460455236122198016'
p2765
S'other_useful_information'
p2766
sS'460576852239605761'
p2767
S'disease_transmission'
p2768
sS'460564505626296320'
p2769
S'affected_people'
p2770
sS'460489793797758976'
p2771
S'disease_signs_or_symptoms'
p2772
sS'460521275849310210'
p2773
S'other_useful_information'
p2774
sS'460450144086142976'
p2775
S'affected_people'
p2776
sS'460549109762772993'
p2777
S'other_useful_information'
p2778
sS'460667838257049600'
p2779
S'other_useful_information'
p2780
sS'460576736577454080'
p2781
S'affected_people'
p2782
sS'460439235154030592'
p2783
S'affected_people'
p2784
sS'460653410900250624'
p2785
S'affected_people'
p2786
sS'460575695220277248'
p2787
S'not_related_or_irrelevant'
p2788
sS'460486305063763968'
p2789
S'disease_transmission'
p2790
sS'460521190965407744'
p2791
S'disease_transmission'
p2792
sS'460457717392764928'
p2793
S'disease_transmission'
p2794
sS'460674635269668864'
p2795
S'disease_transmission'
p2796
sS'460396258717233155'
p2797
S'affected_people'
p2798
sS'460653414595440640'
p2799
S'affected_people'
p2800
sS'460522727292416000'
p2801
S'affected_people'
p2802
sS'460465255450419202'
p2803
S'other_useful_information'
p2804
sS'460464582235291648'
p2805
S'affected_people'
p2806
sS'460615810549968897'
p2807
S'affected_people'
p2808
sS'460562216576499714'
p2809
S'disease_transmission'
p2810
sS'460452114842808320'
p2811
S'disease_signs_or_symptoms'
p2812
sS'460479826701615104'
p2813
S'other_useful_information'
p2814
sS'460583428157480960'
p2815
S'other_useful_information'
p2816
sS'460427444785135616'
p2817
S'prevention'
p2818
sS'460562177468792832'
p2819
S'affected_people'
p2820
sS'460649596260085760'
p2821
S'affected_people'
p2822
sS'460448130404610048'
p2823
S'disease_transmission'
p2824
sS'460554147226320896'
p2825
S'other_useful_information'
p2826
sS'460562827913084928'
p2827
S'affected_people'
p2828
sS'460562278857715712'
p2829
S'other_useful_information'
p2830
sS'460515555150004224'
p2831
S'treatment'
p2832
sS'460584526855405569'
p2833
S'other_useful_information'
p2834
sS'460456156725776384'
p2835
S'other_useful_information'
p2836
sS'460586614574837760'
p2837
S'affected_people'
p2838
sS'460581558596804608'
p2839
S'affected_people'
p2840
sS'460539309632675842'
p2841
S'other_useful_information'
p2842
sS'460578524437282816'
p2843
S'affected_people'
p2844
sS'460562925560664064'
p2845
S'other_useful_information'
p2846
sS'460636868711686145'
p2847
S'other_useful_information'
p2848
sS'460566906986975233'
p2849
S'disease_transmission'
p2850
sS'460538052532649984'
p2851
S'other_useful_information'
p2852
sS'460637841606082560'
p2853
S'disease_signs_or_symptoms'
p2854
sS'460576165074202624'
p2855
S'other_useful_information'
p2856
sS'460514503609024512'
p2857
S'affected_people'
p2858
sS'460580106323628032'
p2859
S'other_useful_information'
p2860
sS'460674652512468992'
p2861
S'other_useful_information'
p2862
sS'460576636086153216'
p2863
S'other_useful_information'
p2864
sS'460602454934298624'
p2865
S'other_useful_information'
p2866
sS'460404961960935425'
p2867
S'prevention'
p2868
sS'460474226127151104'
p2869
S'other_useful_information'
p2870
sS'460476787051737088'
p2871
S'affected_people'
p2872
sS'460597913584807936'
p2873
S'treatment'
p2874
sS'460624986042929152'
p2875
S'affected_people'
p2876
sS'460569807898025984'
p2877
S'other_useful_information'
p2878
sS'460521944807653377'
p2879
S'affected_people'
p2880
sS'460464146023469056'
p2881
S'disease_transmission'
p2882
sS'460570230352130049'
p2883
S'affected_people'
p2884
sS'460648155051479040'
p2885
S'other_useful_information'
p2886
sS'460483811478732800'
p2887
S'affected_people'
p2888
sS'460670295314292737'
p2889
S'treatment'
p2890
sS'460499144805982208'
p2891
S'affected_people'
p2892
sS'460658571231760384'
p2893
S'other_useful_information'
p2894
sS'460413274782048256'
p2895
S'prevention'
p2896
sS'460492238079148033'
p2897
S'disease_transmission'
p2898
sS'460509164087701506'
p2899
S'affected_people'
p2900
sS'460508359083687936'
p2901
S'affected_people'
p2902
sS'460585205384753152'
p2903
S'other_useful_information'
p2904
sS'460574249426882560'
p2905
S'affected_people'
p2906
sS'460558135170572288'
p2907
S'prevention'
p2908
sS'460670948480671744'
p2909
S'affected_people'
p2910
sS'460671603161178112'
p2911
S'other_useful_information'
p2912
sS'460645891158716416'
p2913
S'affected_people'
p2914
sS'460582890087014401'
p2915
S'disease_signs_or_symptoms'
p2916
sS'460556834433404928'
p2917
S'other_useful_information'
p2918
sS'460558968444567552'
p2919
S'disease_signs_or_symptoms'
p2920
sS'460580912749506561'
p2921
S'other_useful_information'
p2922
sS'460524624451612672'
p2923
S'prevention'
p2924
sS'460418736235614209'
p2925
S'treatment'
p2926
sS'460560023861886976'
p2927
S'prevention'
p2928
sS'460597881175826432'
p2929
S'deaths_reports'
p2930
sS'460563664190177280'
p2931
S'disease_signs_or_symptoms'
p2932
sS'460543966661062656'
p2933
S'deaths_reports'
p2934
sS'460674861980221440'
p2935
S'prevention'
p2936
sS'460565677326098432'
p2937
S'other_useful_information'
p2938
sS'460534450623770626'
p2939
S'affected_people'
p2940
sS'460588489772638208'
p2941
S'other_useful_information'
p2942
sS'460509011138605056'
p2943
S'affected_people'
p2944
sS'460578451938766848'
p2945
S'disease_transmission'
p2946
sS'460582605675454464'
p2947
S'other_useful_information'
p2948
sS'460534996143321088'
p2949
S'affected_people'
p2950
sS'460564602049146880'
p2951
S'affected_people'
p2952
sS'460451334701858816'
p2953
S'disease_transmission'
p2954
sS'460577169430032385'
p2955
S'affected_people'
p2956
sS'460464788431048705'
p2957
S'disease_transmission'
p2958
sS'460583176742531072'
p2959
S'other_useful_information'
p2960
sS'460659934741663744'
p2961
S'affected_people'
p2962
sS'460674357539241984'
p2963
S'other_useful_information'
p2964
sS'460563628840607744'
p2965
S'disease_transmission'
p2966
sS'460564422466236416'
p2967
S'affected_people'
p2968
sS'460566228646379520'
p2969
S'other_useful_information'
p2970
sS'460408923791843328'
p2971
S'affected_people'
p2972
sS'460431021431730177'
p2973
S'other_useful_information'
p2974
sS'460615919119499264'
p2975
S'other_useful_information'
p2976
sS'460563115621363712'
p2977
S'other_useful_information'
p2978
sS'460412419341574145'
p2979
S'disease_transmission'
p2980
sS'460403950689456128'
p2981
S'prevention'
p2982
sS'460550879695736832'
p2983
S'affected_people'
p2984
sS'460585764460322816'
p2985
S'other_useful_information'
p2986
sS'460496815398608898'
p2987
S'affected_people'
p2988
sS'460663176385028096'
p2989
S'other_useful_information'
p2990
sS'460490401447964672'
p2991
S'affected_people'
p2992
sS'460576695976603648'
p2993
S'other_useful_information'
p2994
sS'460494975835578368'
p2995
S'affected_people'
p2996
sS'460467881160232960'
p2997
S'treatment'
p2998
sS'460578635359846401'
p2999
S'other_useful_information'
p3000
sS'460428043476295680'
p3001
S'other_useful_information'
p3002
sS'460399197699981312'
p3003
S'disease_signs_or_symptoms'
p3004
sS'460514120492544000'
p3005
S'treatment'
p3006
sS'460422751166013440'
p3007
S'disease_transmission'
p3008
sS'460490364613185537'
p3009
S'deaths_reports'
p3010
sS'460462338664316929'
p3011
S'disease_transmission'
p3012
sS'460430524993904640'
p3013
S'affected_people'
p3014
sS'460568183041454080'
p3015
S'disease_transmission'
p3016
sS'460675146215202816'
p3017
S'other_useful_information'
p3018
sS'460465343798865920'
p3019
S'affected_people'
p3020
sS'460657663643090944'
p3021
S'affected_people'
p3022
sS'460502381353250816'
p3023
S'other_useful_information'
p3024
sS'460563666971004930'
p3025
S'disease_transmission'
p3026
sS'460435337240510464'
p3027
S'deaths_reports'
p3028
sS'460628499641167872'
p3029
S'other_useful_information'
p3030
sS'460586955613286401'
p3031
S'treatment'
p3032
sS'460517168954998784'
p3033
S'other_useful_information'
p3034
sS'460508721609990145'
p3035
S'affected_people'
p3036
sS'460583806466920448'
p3037
S'affected_people'
p3038
sS'460450926927429632'
p3039
S'disease_signs_or_symptoms'
p3040
sS'460577811950862336'
p3041
S'affected_people'
p3042
sS'460577012151635968'
p3043
S'disease_transmission'
p3044
sS'460591026810667008'
p3045
S'other_useful_information'
p3046
sS'460554592275542017'
p3047
S'affected_people'
p3048
sS'460470776563392512'
p3049
S'other_useful_information'
p3050
sS'460476386491531264'
p3051
S'other_useful_information'
p3052
sS'460640336461578241'
p3053
S'affected_people'
p3054
sS'460435301307924480'
p3055
S'other_useful_information'
p3056
sS'460578604816932865'
p3057
S'other_useful_information'
p3058
sS'460522433494413312'
p3059
S'treatment'
p3060
sS'460626534194106368'
p3061
S'other_useful_information'
p3062
sS'460513181220491265'
p3063
S'affected_people'
p3064
sS'460471290600894464'
p3065
S'affected_people'
p3066
sS'460577113527947264'
p3067
S'affected_people'
p3068
sS'460585921390186496'
p3069
S'affected_people'
p3070
sS'460562870833389568'
p3071
S'affected_people'
p3072
sS'460561206328057856'
p3073
S'affected_people'
p3074
sS'460578384423440384'
p3075
S'other_useful_information'
p3076
sS'460595548098015232'
p3077
S'affected_people'
p3078
sS'460416267317706752'
p3079
S'disease_transmission'
p3080
sS'460406612625485824'
p3081
S'disease_transmission'
p3082
sS'460579141688238081'
p3083
S'other_useful_information'
p3084
sS'460462708622897152'
p3085
S'affected_people'
p3086
sS'460439813699563520'
p3087
S'affected_people'
p3088
sS'460615788613742592'
p3089
S'affected_people'
p3090
sS'460429450983661570'
p3091
S'affected_people'
p3092
sS'460524535759261696'
p3093
S'prevention'
p3094
sS'460576046082187264'
p3095
S'other_useful_information'
p3096
sS'460671706202636288'
p3097
S'other_useful_information'
p3098
sS'460574115213344768'
p3099
S'affected_people'
p3100
sS'460562742542204928'
p3101
S'disease_signs_or_symptoms'
p3102
sS'460576706047143936'
p3103
S'treatment'
p3104
sS'460554826783264769'
p3105
S'affected_people'
p3106
sS'460566672089178112'
p3107
S'disease_signs_or_symptoms'
p3108
sS'460473464923901952'
p3109
S'other_useful_information'
p3110
sS'460398268070244352'
p3111
S'disease_signs_or_symptoms'
p3112
sS'460539396186730496'
p3113
S'other_useful_information'
p3114
sS'460461247624794113'
p3115
S'disease_signs_or_symptoms'
p3116
sS'460525602915631104'
p3117
S'affected_people'
p3118
sS'460585410784407552'
p3119
S'other_useful_information'
p3120
sS'460562220225531904'
p3121
S'affected_people'
p3122
sS'460404072126750720'
p3123
S'affected_people'
p3124
sS'460537981389275136'
p3125
S'affected_people'
p3126
sS'460524301611831297'
p3127
S'affected_people'
p3128
sS'460435311521067008'
p3129
S'other_useful_information'
p3130
sS'460577485092974592'
p3131
S'prevention'
p3132
sS'460445987149193216'
p3133
S'not_related_or_irrelevant'
p3134
sS'460669147815239680'
p3135
S'other_useful_information'
p3136
sS'460562772296626176'
p3137
S'other_useful_information'
p3138
sS'460417989603758080'
p3139
S'affected_people'
p3140
sS'460496246336004098'
p3141
S'affected_people'
p3142
sS'460475002945798144'
p3143
S'deaths_reports'
p3144
sS'460580260354879488'
p3145
S'affected_people'
p3146
sS'460469827803414529'
p3147
S'affected_people'
p3148
sS'460664259316572160'
p3149
S'disease_transmission'
p3150
sS'460485604338200576'
p3151
S'disease_signs_or_symptoms'
p3152
sS'460655959321616385'
p3153
S'disease_transmission'
p3154
sS'460617696489799680'
p3155
S'affected_people'
p3156
sS'460457847042486273'
p3157
S'affected_people'
p3158
sS'460415342032859136'
p3159
S'treatment'
p3160
sS'460594472292601856'
p3161
S'affected_people'
p3162
sS'460495141321461760'
p3163
S'disease_transmission'
p3164
sS'460484887502286850'
p3165
S'affected_people'
p3166
sS'460566220974985216'
p3167
S'disease_transmission'
p3168
sS'460572929583886337'
p3169
S'affected_people'
p3170
sS'460415900903301120'
p3171
S'not_related_or_irrelevant'
p3172
sS'460651380076593152'
p3173
S'treatment'
p3174
sS'460670214573948928'
p3175
S'affected_people'
p3176
sS'460465560636383232'
p3177
S'affected_people'
p3178
sS'460605775874756608'
p3179
S'other_useful_information'
p3180
sS'460458956314271745'
p3181
S'disease_transmission'
p3182
sS'460520454080315393'
p3183
S'prevention'
p3184
sS'460552767589732352'
p3185
S'other_useful_information'
p3186
sS'460671281390972929'
p3187
S'other_useful_information'
p3188
sS'460531347128582144'
p3189
S'affected_people'
p3190
sS'460427539026939904'
p3191
S'affected_people'
p3192
sS'460551814622883840'
p3193
S'affected_people'
p3194
sS'460464993688109057'
p3195
S'disease_signs_or_symptoms'
p3196
sS'460565365693501440'
p3197
S'disease_signs_or_symptoms'
p3198
sS'460585739470663680'
p3199
S'disease_signs_or_symptoms'
p3200
sS'460577319732527104'
p3201
S'other_useful_information'
p3202
sS'460434740747579392'
p3203
S'prevention'
p3204
sS'460563094784061440'
p3205
S'disease_transmission'
p3206
sS'460446078421454850'
p3207
S'affected_people'
p3208
sS'460534983132598272'
p3209
S'other_useful_information'
p3210
sS'460579884033515521'
p3211
S'affected_people'
p3212
sS'460669281974616065'
p3213
S'affected_people'
p3214
sS'460575898941419520'
p3215
S'other_useful_information'
p3216
sS'460424838814134272'
p3217
S'affected_people'
p3218
sS'460628250788519938'
p3219
S'other_useful_information'
p3220
sS'460543782501367808'
p3221
S'affected_people'
p3222
sS'460670351479799809'
p3223
S'affected_people'
p3224
sS'460442077319671808'
p3225
S'disease_signs_or_symptoms'
p3226
sS'460420687082307584'
p3227
S'disease_signs_or_symptoms'
p3228
sS'460672993317109760'
p3229
S'other_useful_information'
p3230
sS'460674155835572224'
p3231
S'other_useful_information'
p3232
sS'460485448369192960'
p3233
S'disease_transmission'
p3234
sS'460631006026821634'
p3235
S'other_useful_information'
p3236
sS'460457469244755968'
p3237
S'affected_people'
p3238
sS'460576509212635137'
p3239
S'affected_people'
p3240
sS'460527650516504577'
p3241
S'other_useful_information'
p3242
sS'460578122065137665'
p3243
S'disease_signs_or_symptoms'
p3244
sS'460430111662039041'
p3245
S'affected_people'
p3246
sS'460463710004609025'
p3247
S'affected_people'
p3248
sS'460465267630305281'
p3249
S'other_useful_information'
p3250
sS'460580176275836929'
p3251
S'not_related_or_irrelevant'
p3252
sS'460415010024738816'
p3253
S'affected_people'
p3254
sS'460558672981024768'
p3255
S'treatment'
p3256
sS'460666483249782784'
p3257
S'other_useful_information'
p3258
sS'460577849582182400'
p3259
S'other_useful_information'
p3260
sS'460561198174703616'
p3261
S'affected_people'
p3262
sS'460397584126083072'
p3263
S'affected_people'
p3264
sS'460518380840030208'
p3265
S'affected_people'
p3266
sS'460470399038672896'
p3267
S'other_useful_information'
p3268
sS'460567011047657472'
p3269
S'other_useful_information'
p3270
sS'460467819017420800'
p3271
S'disease_signs_or_symptoms'
p3272
sS'460417979616727040'
p3273
S'other_useful_information'
p3274
sS'460604778633265152'
p3275
S'affected_people'
p3276
sS'460473878209658880'
p3277
S'affected_people'
p3278
sS'460465449030123520'
p3279
S'disease_transmission'
p3280
sS'460512931528966144'
p3281
S'prevention'
p3282
sS'460561978273325056'
p3283
S'other_useful_information'
p3284
sS'460512746623090688'
p3285
S'other_useful_information'
p3286
sS'460408321304829953'
p3287
S'affected_people'
p3288
sS'460409457361428481'
p3289
S'disease_transmission'
p3290
sS'460561905812123648'
p3291
S'affected_people'
p3292
sS'460574042853244928'
p3293
S'affected_people'
p3294
sS'460562542582956032'
p3295
S'other_useful_information'
p3296
sS'460470637509623809'
p3297
S'affected_people'
p3298
sS'460492640337657858'
p3299
S'other_useful_information'
p3300
sS'460522422479765506'
p3301
S'affected_people'
p3302
sS'460510438288277505'
p3303
S'affected_people'
p3304
sS'460582870654808064'
p3305
S'disease_transmission'
p3306
sS'460561778548555776'
p3307
S'affected_people'
p3308
sS'460450810577833984'
p3309
S'disease_transmission'
p3310
sS'460584497008754689'
p3311
S'other_useful_information'
p3312
sS'460517450057261056'
p3313
S'other_useful_information'
p3314
sS'460441342901231616'
p3315
S'other_useful_information'
p3316
sS'460561631366246400'
p3317
S'disease_transmission'
p3318
sS'460477881496240128'
p3319
S'other_useful_information'
p3320
sS'460615163519844352'
p3321
S'other_useful_information'
p3322
sS'460577601111588865'
p3323
S'affected_people'
p3324
sS'460454901844557824'
p3325
S'not_related_or_irrelevant'
p3326
sS'460640272775274497'
p3327
S'affected_people'
p3328
sS'460582718804205569'
p3329
S'affected_people'
p3330
sS'460508046565707776'
p3331
S'other_useful_information'
p3332
sS'460671016524869633'
p3333
S'prevention'
p3334
sS'460465585403752448'
p3335
S'affected_people'
p3336
sS'460463033467564032'
p3337
S'other_useful_information'
p3338
sS'460617612645261312'
p3339
S'affected_people'
p3340
sS'460399569051062272'
p3341
S'affected_people'
p3342
sS'460467691506397184'
p3343
S'prevention'
p3344
sS'460579316674228224'
p3345
S'other_useful_information'
p3346
sS'460567663383941122'
p3347
S'disease_transmission'
p3348
sS'460672396685746176'
p3349
S'treatment'
p3350
sS'460407134266875904'
p3351
S'other_useful_information'
p3352
sS'460460605934432256'
p3353
S'affected_people'
p3354
sS'460441249862803457'
p3355
S'affected_people'
p3356
sS'460402651277295616'
p3357
S'prevention'
p3358
sS'460621724329840640'
p3359
S'disease_signs_or_symptoms'
p3360
sS'460561067874078720'
p3361
S'other_useful_information'
p3362
sS'460575999399170049'
p3363
S'affected_people'
p3364
sS'460419731682787328'
p3365
S'affected_people'
p3366
sS'460646883723997184'
p3367
S'affected_people'
p3368
sS'460531548614172673'
p3369
S'prevention'
p3370
sS'460585832358117377'
p3371
S'disease_transmission'
p3372
sS'460448983911915520'
p3373
S'other_useful_information'
p3374
sS'460575650596659200'
p3375
S'disease_transmission'
p3376
sS'460416251810951169'
p3377
S'disease_transmission'
p3378
sS'460508760415666176'
p3379
S'other_useful_information'
p3380
sS'460401451341451264'
p3381
S'disease_signs_or_symptoms'
p3382
sS'460523519580069889'
p3383
S'affected_people'
p3384
sS'460519416786989056'
p3385
S'other_useful_information'
p3386
sS'460520262816256000'
p3387
S'other_useful_information'
p3388
sS'460412225384353792'
p3389
S'disease_transmission'
p3390
sS'460664464455393280'
p3391
S'other_useful_information'
p3392
sS'460631893663162368'
p3393
S'affected_people'
p3394
sS'460450810569449472'
p3395
S'deaths_reports'
p3396
sS'460562450094366720'
p3397
S'affected_people'
p3398
sS'460589202850082816'
p3399
S'other_useful_information'
p3400
sS'460465404440494080'
p3401
S'affected_people'
p3402
sS'460620259738005504'
p3403
S'affected_people'
p3404
sS'460422874504130560'
p3405
S'affected_people'
p3406
sS'460655176517316608'
p3407
S'prevention'
p3408
sS'460576951510396929'
p3409
S'affected_people'
p3410
sS'460672474435571712'
p3411
S'affected_people'
p3412
sS'460582292453199873'
p3413
S'other_useful_information'
p3414
sS'460528255746179072'
p3415
S'other_useful_information'
p3416
sS'460533555014406144'
p3417
S'other_useful_information'
p3418
sS'460467071936000000'
p3419
S'deaths_reports'
p3420
sS'460407666964455424'
p3421
S'affected_people'
p3422
sS'460576878487928832'
p3423
S'other_useful_information'
p3424
sS'460600127241981952'
p3425
S'disease_signs_or_symptoms'
p3426
sS'460451527031668736'
p3427
S'disease_transmission'
p3428
sS'460508232092778496'
p3429
S'disease_signs_or_symptoms'
p3430
sS'460511004942553088'
p3431
S'other_useful_information'
p3432
sS'460564646533943296'
p3433
S'affected_people'
p3434
sS'460400882518347776'
p3435
S'affected_people'
p3436
sS'460513483734261760'
p3437
S'deaths_reports'
p3438
sS'460507695523848192'
p3439
S'disease_transmission'
p3440
sS'460545456477859840'
p3441
S'other_useful_information'
p3442
sS'460501487760588801'
p3443
S'other_useful_information'
p3444
sS'460450410235318272'
p3445
S'disease_transmission'
p3446
sS'460444093538000898'
p3447
S'affected_people'
p3448
sS'460412971223875586'
p3449
S'disease_signs_or_symptoms'
p3450
sS'460427721680883712'
p3451
S'affected_people'
p3452
sS'460549037570023424'
p3453
S'other_useful_information'
p3454
sS'460585456686477312'
p3455
S'affected_people'
p3456
sS'460635416979595265'
p3457
S'disease_signs_or_symptoms'
p3458
sS'460606415548080128'
p3459
S'disease_signs_or_symptoms'
p3460
sS'460582499303710721'
p3461
S'affected_people'
p3462
sS'460513282667732992'
p3463
S'affected_people'
p3464
sS'460671852369563649'
p3465
S'other_useful_information'
p3466
sS'460465575714885632'
p3467
S'prevention'
p3468
sS'460466951970889728'
p3469
S'disease_transmission'
p3470
sS'460575668074315776'
p3471
S'affected_people'
p3472
sS'460456319355338752'
p3473
S'other_useful_information'
p3474
sS'460406506786394112'
p3475
S'affected_people'
p3476
sS'460672355434369026'
p3477
S'other_useful_information'
p3478
sS'460502180517015555'
p3479
S'affected_people'
p3480
sS'460572791901671424'
p3481
S'affected_people'
p3482
sS'460561926544580609'
p3483
S'other_useful_information'
p3484
sS'460564617173815296'
p3485
S'other_useful_information'
p3486
sS'460404194269495296'
p3487
S'other_useful_information'
p3488
sS'460444560003723264'
p3489
S'disease_signs_or_symptoms'
p3490
sS'460562912034037762'
p3491
S'affected_people'
p3492
sS'460598017301970944'
p3493
S'other_useful_information'
p3494
sS'460548977843535872'
p3495
S'affected_people'
p3496
sS'460586805633773568'
p3497
S'other_useful_information'
p3498
sS'460672972223569920'
p3499
S'other_useful_information'
p3500
sS'460524349695725568'
p3501
S'other_useful_information'
p3502
sS'460561561221087232'
p3503
S'disease_transmission'
p3504
sS'460584557771636737'
p3505
S'other_useful_information'
p3506
sS'460514138813640704'
p3507
S'other_useful_information'
p3508
sS'460421011507519488'
p3509
S'other_useful_information'
p3510
sS'460601811750379520'
p3511
S'prevention'
p3512
sS'460584445804679168'
p3513
S'affected_people'
p3514
sS'460406016640049152'
p3515
S'other_useful_information'
p3516
sS'460398096309309440'
p3517
S'other_useful_information'
p3518
sS'460521004117131264'
p3519
S'affected_people'
p3520
sS'460494765596110848'
p3521
S'treatment'
p3522
sS'460657966082170880'
p3523
S'other_useful_information'
p3524
sS'460406843396071424'
p3525
S'other_useful_information'
p3526
sS'460521477587365888'
p3527
S'affected_people'
p3528
sS'460530979803643905'
p3529
S'disease_signs_or_symptoms'
p3530
sS'460464439729598466'
p3531
S'other_useful_information'
p3532
sS'460448644659818499'
p3533
S'affected_people'
p3534
sS'460525065013301249'
p3535
S'other_useful_information'
p3536
sS'460611187009261568'
p3537
S'disease_transmission'
p3538
sS'460582760210391040'
p3539
S'affected_people'
p3540
sS'460562732601704448'
p3541
S'other_useful_information'
p3542
sS'460468934353747972'
p3543
S'affected_people'
p3544
sS'460430743936962560'
p3545
S'treatment'
p3546
sS'460397492329521152'
p3547
S'other_useful_information'
p3548
sS'460529109718679552'
p3549
S'other_useful_information'
p3550
sS'460561363279286272'
p3551
S'other_useful_information'
p3552
sS'460547885717680131'
p3553
S'affected_people'
p3554
sS'460656553549262848'
p3555
S'affected_people'
p3556
sS'460515362472079360'
p3557
S'affected_people'
p3558
sS'460561655823622144'
p3559
S'other_useful_information'
p3560
sS'460452828461273089'
p3561
S'other_useful_information'
p3562
sS'460409204051025920'
p3563
S'disease_transmission'
p3564
sS'460434616893972480'
p3565
S'other_useful_information'
p3566
sS'460460916354449408'
p3567
S'prevention'
p3568
sS'460584769093251073'
p3569
S'affected_people'
p3570
sS'460515028869713920'
p3571
S'other_useful_information'
p3572
sS'460439806065917952'
p3573
S'other_useful_information'
p3574
sS'460646772839571456'
p3575
S'other_useful_information'
p3576
sS'460444121467850752'
p3577
S'affected_people'
p3578
sS'460562717330268160'
p3579
S'other_useful_information'
p3580
sS'460451785074036736'
p3581
S'disease_transmission'
p3582
sS'460554849479032833'
p3583
S'disease_transmission'
p3584
sS'460517293555187713'
p3585
S'other_useful_information'
p3586
sS'460578226948288512'
p3587
S'other_useful_information'
p3588
sS'460582343669866496'
p3589
S'affected_people'
p3590
sS'460577663703203840'
p3591
S'other_useful_information'
p3592
sS'460435471714099200'
p3593
S'other_useful_information'
p3594
sS'460543661432766464'
p3595
S'affected_people'
p3596
sS'460450022824620032'
p3597
S'other_useful_information'
p3598
sS'460467433942564864'
p3599
S'other_useful_information'
p3600
sS'460397940897378304'
p3601
S'prevention'
p3602
sS'460565900257546240'
p3603
S'treatment'
p3604
sS'460633090889502720'
p3605
S'disease_signs_or_symptoms'
p3606
sS'460577923456454657'
p3607
S'prevention'
p3608
sS'460426562991820800'
p3609
S'disease_transmission'
p3610
sS'460575730943143936'
p3611
S'disease_transmission'
p3612
sS'460592882274299904'
p3613
S'affected_people'
p3614
sS'460437147729002496'
p3615
S'affected_people'
p3616
sS'460645645028560896'
p3617
S'other_useful_information'
p3618
sS'460594484968194048'
p3619
S'deaths_reports'
p3620
sS'460443084741173249'
p3621
S'affected_people'
p3622
sS'460424445224812544'
p3623
S'other_useful_information'
p3624
sS'460456386007416834'
p3625
S'deaths_reports'
p3626
sS'460474302941638656'
p3627
S'other_useful_information'
p3628
sS'460569632051838976'
p3629
S'prevention'
p3630
sS'460567148104929280'
p3631
S'other_useful_information'
p3632
sS'460670539460141056'
p3633
S'other_useful_information'
p3634
sS'460562931256541184'
p3635
S'disease_transmission'
p3636
sS'460415140069126144'
p3637
S'affected_people'
p3638
sS'460511144868737026'
p3639
S'other_useful_information'
p3640
sS'460435272262770688'
p3641
S'other_useful_information'
p3642
sS'460576473452015616'
p3643
S'affected_people'
p3644
sS'460598871400255488'
p3645
S'other_useful_information'
p3646
sS'460564565668167680'
p3647
S'affected_people'
p3648
sS'460563338481528832'
p3649
S'disease_signs_or_symptoms'
p3650
sS'460590152352415744'
p3651
S'other_useful_information'
p3652
sS'460585862359576576'
p3653
S'affected_people'
p3654
sS'460519968002416641'
p3655
S'prevention'
p3656
sS'460630295281008640'
p3657
S'affected_people'
p3658
sS'460501330209943552'
p3659
S'affected_people'
p3660
sS'460449848328994816'
p3661
S'other_useful_information'
p3662
sS'460595104302919680'
p3663
S'disease_transmission'
p3664
sS'460577940011380736'
p3665
S'affected_people'
p3666
sS'460604922065477632'
p3667
S'disease_signs_or_symptoms'
p3668
sS'460453538036862977'
p3669
S'affected_people'
p3670
sS'460674698729500672'
p3671
S'affected_people'
p3672
sS'460463856872353792'
p3673
S'other_useful_information'
p3674
sS'460564859630145536'
p3675
S'other_useful_information'
p3676
sS'460449145816240128'
p3677
S'other_useful_information'
p3678
sS'460429306343063552'
p3679
S'prevention'
p3680
sS'460633358209282048'
p3681
S'other_useful_information'
p3682
sS'460405588196093952'
p3683
S'disease_signs_or_symptoms'
p3684
sS'460513250333843456'
p3685
S'other_useful_information'
p3686
sS'460420657353076736'
p3687
S'other_useful_information'
p3688
sS'460418234429104128'
p3689
S'other_useful_information'
p3690
sS'460564505693802496'
p3691
S'disease_signs_or_symptoms'
p3692
sS'460409768260423681'
p3693
S'disease_transmission'
p3694
sS'460485686635024385'
p3695
S'affected_people'
p3696
sS'460589031412084736'
p3697
S'disease_transmission'
p3698
sS'460576805959634944'
p3699
S'disease_transmission'
p3700
sS'460468086273871872'
p3701
S'affected_people'
p3702
sS'460561865836208130'
p3703
S'disease_transmission'
p3704
sS'460561283260375040'
p3705
S'affected_people'
p3706
sS'460474743083134976'
p3707
S'disease_signs_or_symptoms'
p3708
sS'460522394063368192'
p3709
S'affected_people'
p3710
sS'460564482826063873'
p3711
S'disease_transmission'
p3712
sS'460500129691496448'
p3713
S'other_useful_information'
p3714
sS'460405586031816704'
p3715
S'affected_people'
p3716
sS'460582685711142912'
p3717
S'other_useful_information'
p3718
sS'460576287426220032'
p3719
S'other_useful_information'
p3720
sS'460576055896457216'
p3721
S'disease_transmission'
p3722
sS'460498640633864192'
p3723
S'affected_people'
p3724
sS'460639368453959680'
p3725
S'affected_people'
p3726
sS'460493951456116738'
p3727
S'other_useful_information'
p3728
sS'460418240817004544'
p3729
S'affected_people'
p3730
sS'460439811744997377'
p3731
S'disease_signs_or_symptoms'
p3732
sS'460636947858206720'
p3733
S'prevention'
p3734
sS'460410172834213888'
p3735
S'other_useful_information'
p3736
sS'460539067050897409'
p3737
S'other_useful_information'
p3738
sS'460577881802829824'
p3739
S'prevention'
p3740
sS'460582930905960448'
p3741
S'other_useful_information'
p3742
sS'460584538163269632'
p3743
S'disease_transmission'
p3744
sS'460502403624620032'
p3745
S'prevention'
p3746
sS'460480053290475521'
p3747
S'affected_people'
p3748
sS'460510435213455360'
p3749
S'affected_people'
p3750
sS'460674508907876352'
p3751
S'other_useful_information'
p3752
sS'460512547855007744'
p3753
S'affected_people'
p3754
sS'460492188703404035'
p3755
S'other_useful_information'
p3756
sS'460673251182919680'
p3757
S'disease_signs_or_symptoms'
p3758
sS'460544168037605377'
p3759
S'affected_people'
p3760
sS'460468567797137408'
p3761
S'disease_transmission'
p3762
sS'460397076900487168'
p3763
S'disease_transmission'
p3764
sS'460562955034054656'
p3765
S'affected_people'
p3766
sS'460464728129560577'
p3767
S'treatment'
p3768
sS'460401255584919555'
p3769
S'prevention'
p3770
sS'460562365533003776'
p3771
S'affected_people'
p3772
sS'460494943593566208'
p3773
S'disease_transmission'
p3774
sS'460529626486673409'
p3775
S'affected_people'
p3776
sS'460435777709568001'
p3777
S'other_useful_information'
p3778
sS'460488327758487552'
p3779
S'affected_people'
p3780
sS'460511171389714433'
p3781
S'affected_people'
p3782
sS'460522562762862592'
p3783
S'other_useful_information'
p3784
sS'460465930586173440'
p3785
S'affected_people'
p3786
sS'460563031429111808'
p3787
S'other_useful_information'
p3788
sS'460400130273730561'
p3789
S'affected_people'
p3790
sS'460577703754600448'
p3791
S'affected_people'
p3792
sS'460429419262144512'
p3793
S'other_useful_information'
p3794
sS'460578462080565248'
p3795
S'other_useful_information'
p3796
sS'460422638242762752'
p3797
S'disease_transmission'
p3798
sS'460585071611629568'
p3799
S'affected_people'
p3800
sS'460673026410164224'
p3801
S'disease_transmission'
p3802
sS'460579279148158976'
p3803
S'other_useful_information'
p3804
sS'460576236394131456'
p3805
S'other_useful_information'
p3806
sS'460563143718998016'
p3807
S'other_useful_information'
p3808
sS'460596603842072576'
p3809
S'prevention'
p3810
sS'460508998085935104'
p3811
S'disease_transmission'
p3812
sS'460454559295746048'
p3813
S'affected_people'
p3814
sS'460470296328142848'
p3815
S'disease_signs_or_symptoms'
p3816
sS'460511054850568192'
p3817
S'other_useful_information'
p3818
sS'460581589382995971'
p3819
S'other_useful_information'
p3820
sS'460495185357447168'
p3821
S'affected_people'
p3822
sS'460491275880255490'
p3823
S'other_useful_information'
p3824
sS'460537279186886657'
p3825
S'other_useful_information'
p3826
sS'460589870222540800'
p3827
S'affected_people'
p3828
sS'460561219410067457'
p3829
S'affected_people'
p3830
sS'460491309523173376'
p3831
S'other_useful_information'
p3832
sS'460535406430543872'
p3833
S'affected_people'
p3834
sS'460494454059577344'
p3835
S'affected_people'
p3836
sS'460549445667397632'
p3837
S'other_useful_information'
p3838
sS'460577437688946688'
p3839
S'other_useful_information'
p3840
sS'460627241098313728'
p3841
S'disease_transmission'
p3842
sS'460575699741720576'
p3843
S'treatment'
p3844
sS'460552604221595648'
p3845
S'disease_signs_or_symptoms'
p3846
sS'460419015920218112'
p3847
S'disease_transmission'
p3848
sS'460512817058041856'
p3849
S'other_useful_information'
p3850
sS'460563659597426688'
p3851
S'affected_people'
p3852
sS'460514080332480512'
p3853
S'affected_people'
p3854
sS'460510076378566657'
p3855
S'affected_people'
p3856
sS'460417989326540801'
p3857
S'disease_transmission'
p3858
sS'460583152017084416'
p3859
S'other_useful_information'
p3860
sS'460578598777143296'
p3861
S'affected_people'
p3862
sS'460447381172260864'
p3863
S'disease_transmission'
p3864
sS'460578753819979776'
p3865
S'other_useful_information'
p3866
sS'460657585171881984'
p3867
S'prevention'
p3868
sS'460507593304465408'
p3869
S'treatment'
p3870
sS'460473096135114753'
p3871
S'disease_transmission'
p3872
sS'460504382690562049'
p3873
S'disease_signs_or_symptoms'
p3874
sS'460577782796255233'
p3875
S'affected_people'
p3876
sS'460579069659451392'
p3877
S'affected_people'
p3878
sS'460582631722074112'
p3879
S'other_useful_information'
p3880
sS'460632548369252352'
p3881
S'other_useful_information'
p3882
sS'460562687903019008'
p3883
S'disease_signs_or_symptoms'
p3884
sS'460564453855993856'
p3885
S'affected_people'
p3886
sS'460577071052623872'
p3887
S'affected_people'
p3888
sS'460563326737461248'
p3889
S'other_useful_information'
p3890
sS'460406583823171584'
p3891
S'affected_people'
p3892
sS'460576507182972928'
p3893
S'other_useful_information'
p3894
sS'460596272303710208'
p3895
S'disease_signs_or_symptoms'
p3896
sS'460525076321157120'
p3897
S'disease_transmission'
p3898
sS'460577908168216576'
p3899
S'other_useful_information'
p3900
sS'460442325953826816'
p3901
S'other_useful_information'
p3902
sS'460515969454964736'
p3903
S'disease_transmission'
p3904
sS'460500144513757184'
p3905
S'other_useful_information'
p3906
sS'460419247802687488'
p3907
S'affected_people'
p3908
sS'460486497305911296'
p3909
S'disease_transmission'
p3910
sS'460417989213298688'
p3911
S'disease_signs_or_symptoms'
p3912
sS'460449403439157248'
p3913
S'affected_people'
p3914
sS'460562789832982528'
p3915
S'affected_people'
p3916
sS'460470019068264449'
p3917
S'affected_people'
p3918
sS'460461069312745472'
p3919
S'other_useful_information'
p3920
sS'460429794799124481'
p3921
S'other_useful_information'
p3922
sS'460662160621064192'
p3923
S'disease_transmission'
p3924
sS'460561155912896513'
p3925
S'affected_people'
p3926
sS'460424451339718657'
p3927
S'affected_people'
p3928
sS'460579283204079616'
p3929
S'other_useful_information'
p3930
sS'460584547541725184'
p3931
S'disease_transmission'
p3932
sS'460591486015655936'
p3933
S'affected_people'
p3934
sS'460417275439611904'
p3935
S'affected_people'
p3936
sS'460560306851180544'
p3937
S'affected_people'
p3938
sS'460575819270590464'
p3939
S'affected_people'
p3940
sS'460467168095010816'
p3941
S'other_useful_information'
p3942
sS'460586302174285824'
p3943
S'disease_signs_or_symptoms'
p3944
sS'460638259505143808'
p3945
S'treatment'
p3946
sS'460458385075609602'
p3947
S'affected_people'
p3948
sS'460464422914637824'
p3949
S'not_related_or_irrelevant'
p3950
sS'460584466155438080'
p3951
S'other_useful_information'
p3952
sS'460565265600610304'
p3953
S'other_useful_information'
p3954
sS'460630082168430592'
p3955
S'affected_people'
p3956
sS'460536780861612033'
p3957
S'disease_signs_or_symptoms'
p3958
sS'460559321718222849'
p3959
S'deaths_reports'
p3960
sS'460439819160543232'
p3961
S'deaths_reports'
p3962
sS'460407043778969600'
p3963
S'treatment'
p3964
sS'460563062089465856'
p3965
S'disease_transmission'
p3966
sS'460461213604798464'
p3967
S'affected_people'
p3968
sS'460463602332626944'
p3969
S'other_useful_information'
p3970
sS'460449578069016576'
p3971
S'disease_signs_or_symptoms'
p3972
sS'460582255681757184'
p3973
S'affected_people'
p3974
sS'460603936957677568'
p3975
S'prevention'
p3976
sS'460406086181584896'
p3977
S'affected_people'
p3978
sS'460541005041655809'
p3979
S'disease_signs_or_symptoms'
p3980
sS'460520709521813505'
p3981
S'affected_people'
p3982
sS'460408657851580416'
p3983
S'other_useful_information'
p3984
sS'460566893812649985'
p3985
S'other_useful_information'
p3986
sS'460601807811932161'
p3987
S'other_useful_information'
p3988
sS'460561110429474816'
p3989
S'affected_people'
p3990
sS'460582382332952576'
p3991
S'affected_people'
p3992
sS'460564515570978816'
p3993
S'disease_signs_or_symptoms'
p3994
sS'460467005129506816'
p3995
S'other_useful_information'
p3996
sS'460540220044476416'
p3997
S'other_useful_information'
p3998
sS'460427892661694464'
p3999
S'disease_transmission'
p4000
s.