(dp0
S'460727097993232384'
p1
S'Not related to crisis'
p2
sS'461134206853468160'
p3
S'Personal only'
p4
sS'461129158715015168'
p5
S'Informative'
p6
sS'460426779799191554'
p7
S'Informative'
p8
sS'460988754409172993'
p9
S'Informative'
p10
sS'460412419341574145'
p11
S'Informative'
p12
sS'460425313206665216'
p13
S'Informative'
p14
sS'461096681547640832'
p15
S'Not related to crisis'
p16
sS'460446753679216640'
p17
S'Informative'
p18
sS'461060582049714176'
p19
S'Informative'
p20
sS'488681131920064513'
p21
S'Not related to crisis'
p22
sS'461076448531320833'
p23
S'Not related to crisis'
p24
sS'461150821829197825'
p25
S'Informative'
p26
sS'461148975337578496'
p27
S'Informative'
p28
sS'460428043476295680'
p29
S'Informative'
p30
sS'460972827051450368'
p31
S'Informative'
p32
sS'461110178457214977'
p33
S'Informative'
p34
sS'460803256524873728'
p35
S'Informative'
p36
sS'461151434096914433'
p37
S'Personal only'
p38
sS'460490364613185537'
p39
S'Informative'
p40
sS'461079071523233792'
p41
S'Personal only'
p42
sS'460462338664316929'
p43
S'Informative'
p44
sS'488681148009422848'
p45
S'Not related to crisis'
p46
sS'461135829453115392'
p47
S'Informative'
p48
sS'460488785558396928'
p49
S'Informative'
p50
sS'461149974185529344'
p51
S'Informative'
p52
sS'476574771560194049'
p53
S'Informative'
p54
sS'461061607120834561'
p55
S'Informative'
p56
sS'462895019175591937'
p57
S'Informative'
p58
sS'460435337240510464'
p59
S'Informative'
p60
sS'488712388359622656'
p61
S'Informative'
p62
sS'460438344208777216'
p63
S'Informative'
p64
sS'460420992754397184'
p65
S'Informative'
p66
sS'460434019406999552'
p67
S'Informative'
p68
sS'461031830901497856'
p69
S'Informative'
p70
sS'460654136380231680'
p71
S'Informative'
p72
sS'461066589882699776'
p73
S'Personal only'
p74
sS'460436267071598592'
p75
S'Informative'
p76
sS'461152068791582721'
p77
S'Informative'
p78
sS'461055388700655616'
p79
S'Personal only'
p80
sS'460769318800588800'
p81
S'Informative'
p82
sS'460678279444570112'
p83
S'Informative'
p84
sS'476647666604965888'
p85
S'Informative'
p86
sS'460462562342346752'
p87
S'Informative'
p88
sS'460655690420613120'
p89
S'Informative'
p90
sS'488647320503083008'
p91
S'Not related to crisis'
p92
sS'460435253958438912'
p93
S'Informative'
p94
sS'476620351821320192'
p95
S'Informative'
p96
sS'460494950980145152'
p97
S'Informative'
p98
sS'488711125350223872'
p99
S'Not related to crisis'
p100
sS'461120014351736832'
p101
S'Informative'
p102
sS'460457570285920256'
p103
S'Informative'
p104
sS'460657663643090944'
p105
S'Informative'
p106
sS'474062089758076928'
p107
S'Personal only'
p108
sS'474111146837151744'
p109
S'Not related to crisis'
p110
sS'461063887048429569'
p111
S'Not related to crisis'
p112
sS'460804821310644225'
p113
S'Informative'
p114
sS'460492006716747776'
p115
S'Informative'
p116
sS'488681140836765696'
p117
S'Not related to crisis'
p118
sS'460997687211331584'
p119
S'Informative'
p120
sS'460445987149193216'
p121
S'Informative'
p122
sS'460696705017470976'
p123
S'Informative'
p124
sS'461061765011607552'
p125
S'Informative'
p126
sS'461132678561939458'
p127
S'Personal only'
p128
sS'460496246336004098'
p129
S'Informative'
p130
sS'460486414480572417'
p131
S'Informative'
p132
sS'460700683017404416'
p133
S'Personal only'
p134
sS'460651380076593152'
p135
S'Informative'
p136
sS'460425374342840320'
p137
S'Informative'
p138
sS'474063643101765632'
p139
S'Personal only'
p140
sS'488681144766853121'
p141
S'Not related to crisis'
p142
sS'460626534194106368'
p143
S'Informative'
p144
sS'461085507170996224'
p145
S'Informative'
p146
sS'460495141321461760'
p147
S'Informative'
p148
sS'460785083344224256'
p149
S'Informative'
p150
sS'461099869524881408'
p151
S'Personal only'
p152
sS'488710643038433280'
p153
S'Not related to crisis'
p154
sS'460458468550639616'
p155
S'Informative'
p156
sS'460443300982710273'
p157
S'Informative'
p158
sS'474173001525497858'
p159
S'Personal only'
p160
sS'460762615908536320'
p161
S'Personal only'
p162
sS'460454901844557824'
p163
S'Informative'
p164
sS'488647343068041217'
p165
S'Not related to crisis'
p166
sS'488681130133315584'
p167
S'Not related to crisis'
p168
sS'460755688533557248'
p169
S'Informative'
p170
sS'460399646729601024'
p171
S'Informative'
p172
sS'461112738861678593'
p173
S'Informative'
p174
sS'461147512938954752'
p175
S'Informative'
p176
sS'488711689366294528'
p177
S'Not related to crisis'
p178
sS'488711458377965568'
p179
S'Not related to crisis'
p180
sS'460732292671889409'
p181
S'Informative'
p182
sS'460691021199069184'
p183
S'Personal only'
p184
sS'488647337405722624'
p185
S'Not related to crisis'
p186
sS'488710690312421376'
p187
S'Not related to crisis'
p188
sS'460716320380964864'
p189
S'Informative'
p190
sS'460629677523337216'
p191
S'Informative'
p192
sS'460771474039898112'
p193
S'Informative'
p194
sS'460398364228874240'
p195
S'Informative'
p196
sS'460724278640779265'
p197
S'Personal only'
p198
sS'460425571705831424'
p199
S'Informative'
p200
sS'476620642197184513'
p201
S'Informative'
p202
sS'461127437200273409'
p203
S'Personal only'
p204
sS'477014089420791808'
p205
S'Personal only'
p206
sS'460451278511177728'
p207
S'Informative'
p208
sS'461117583719026688'
p209
S'Personal only'
p210
sS'461142314950615041'
p211
S'Personal only'
p212
sS'474173854785359872'
p213
S'Informative'
p214
sS'474168381801635840'
p215
S'Informative'
p216
sS'461060973928148992'
p217
S'Informative'
p218
sS'476558172451123200'
p219
S'Informative'
p220
sS'461077182979129344'
p221
S'Not related to crisis'
p222
sS'476666161208496128'
p223
S'Informative'
p224
sS'460678443865493504'
p225
S'Informative'
p226
sS'460462775962468352'
p227
S'Informative'
p228
sS'460683156668944384'
p229
S'Informative'
p230
sS'474072984076832768'
p231
S'Informative'
p232
sS'460796207338885120'
p233
S'Personal only'
p234
sS'460657761382957056'
p235
S'Informative'
p236
sS'460430111662039041'
p237
S'Informative'
p238
sS'460958530917257216'
p239
S'Personal only'
p240
sS'460983772645584896'
p241
S'Informative'
p242
sS'460455637487333376'
p243
S'Informative'
p244
sS'460724386983464960'
p245
S'Personal only'
p246
sS'460438219989856258'
p247
S'Informative'
p248
sS'460443528729198592'
p249
S'Informative'
p250
sS'460732146059976705'
p251
S'Informative'
p252
sS'460436029468467200'
p253
S'Personal only'
p254
sS'460492550944460800'
p255
S'Informative'
p256
sS'488681127217868800'
p257
S'Not related to crisis'
p258
sS'474065454743289856'
p259
S'Informative'
p260
sS'460804979838554113'
p261
S'Informative'
p262
sS'460409457361428481'
p263
S'Informative'
p264
sS'476665551066910720'
p265
S'Informative'
p266
sS'474123824363888640'
p267
S'Informative'
p268
sS'474167966347837440'
p269
S'Informative'
p270
sS'461099533103943680'
p271
S'Not related to crisis'
p272
sS'460447744726167552'
p273
S'Informative'
p274
sS'460753193488498688'
p275
S'Informative'
p276
sS'461002477161447424'
p277
S'Personal only'
p278
sS'488681144100331521'
p279
S'Not related to crisis'
p280
sS'460431689861173249'
p281
S'Personal only'
p282
sS'460690615479435264'
p283
S'Informative'
p284
sS'460699888519770112'
p285
S'Not related to crisis'
p286
sS'460420507678949377'
p287
S'Informative'
p288
sS'461122487875403778'
p289
S'Personal only'
p290
sS'460423752518352897'
p291
S'Informative'
p292
sS'460797929083510785'
p293
S'Not related to crisis'
p294
sS'460575624617144321'
p295
S'Personal only'
p296
sS'460690822040526848'
p297
S'Informative'
p298
sS'461110626879029248'
p299
S'Informative'
p300
sS'460691608086642688'
p301
S'Informative'
p302
sS'460487381548670976'
p303
S'Informative'
p304
sS'460491788264812544'
p305
S'Informative'
p306
sS'488681124705480704'
p307
S'Not related to crisis'
p308
sS'460485574814478337'
p309
S'Informative'
p310
sS'460456319141421057'
p311
S'Informative'
p312
sS'460685751294779392'
p313
S'Informative'
p314
sS'460493702276730881'
p315
S'Informative'
p316
sS'460448983911915520'
p317
S'Informative'
p318
sS'460403550799945728'
p319
S'Personal only'
p320
sS'460439803566116865'
p321
S'Informative'
p322
sS'460427744627916800'
p323
S'Informative'
p324
sS'460766364580343808'
p325
S'Informative'
p326
sS'460492629105324034'
p327
S'Informative'
p328
sS'460683560152604672'
p329
S'Informative'
p330
sS'460497775528923138'
p331
S'Informative'
p332
sS'476625235501142016'
p333
S'Informative'
p334
sS'460422874504130560'
p335
S'Informative'
p336
sS'460691351726596096'
p337
S'Informative'
p338
sS'461062262619267073'
p339
S'Informative'
p340
sS'461091844990832640'
p341
S'Informative'
p342
sS'460664101899743232'
p343
S'Personal only'
p344
sS'460448694001627136'
p345
S'Informative'
p346
sS'476603713382273024'
p347
S'Informative'
p348
sS'476558139048087552'
p349
S'Informative'
p350
sS'460804978811351041'
p351
S'Informative'
p352
sS'460455236122198016'
p353
S'Informative'
p354
sS'460693530608820224'
p355
S'Informative'
p356
sS'460621724329840640'
p357
S'Informative'
p358
sS'460750714776457216'
p359
S'Not related to crisis'
p360
sS'461122723654037504'
p361
S'Informative'
p362
sS'460494517452689408'
p363
S'Informative'
p364
sS'460493002423545856'
p365
S'Informative'
p366
sS'460685579676434432'
p367
S'Personal only'
p368
sS'474122023254634497'
p369
S'Informative'
p370
sS'460455904232886273'
p371
S'Informative'
p372
sS'460763649779707904'
p373
S'Personal only'
p374
sS'460804186112679936'
p375
S'Informative'
p376
sS'461080306544807938'
p377
S'Informative'
p378
sS'461005118041624576'
p379
S'Informative'
p380
sS'488711551956697088'
p381
S'Not related to crisis'
p382
sS'460497151613599744'
p383
S'Informative'
p384
sS'460398555329331200'
p385
S'Informative'
p386
sS'488647336596217857'
p387
S'Not related to crisis'
p388
sS'460448364765908994'
p389
S'Informative'
p390
sS'476632834690785280'
p391
S'Informative'
p392
sS'461056420772052993'
p393
S'Not related to crisis'
p394
sS'460398461972541440'
p395
S'Personal only'
p396
sS'474169842325413888'
p397
S'Informative'
p398
sS'460696112555233281'
p399
S'Informative'
p400
sS'460429314438074370'
p401
S'Informative'
p402
sS'460697705090519040'
p403
S'Informative'
p404
sS'460452149382889472'
p405
S'Informative'
p406
sS'460639516001193984'
p407
S'Informative'
p408
sS'460448897950044160'
p409
S'Informative'
p410
sS'460700502485774336'
p411
S'Informative'
p412
sS'474161780202418178'
p413
S'Informative'
p414
sS'460421011507519488'
p415
S'Informative'
p416
sS'460408961028456448'
p417
S'Informative'
p418
sS'460990569691746304'
p419
S'Informative'
p420
sS'461045472551907328'
p421
S'Personal only'
p422
sS'460429598707429376'
p423
S'Informative'
p424
sS'460794650228695040'
p425
S'Informative'
p426
sS'488712056611155969'
p427
S'Not related to crisis'
p428
sS'461046533698646016'
p429
S'Personal only'
p430
sS'461139313137184768'
p431
S'Personal only'
p432
sS'488711690075533312'
p433
S'Not related to crisis'
p434
sS'461062313357754369'
p435
S'Informative'
p436
sS'460681928572538880'
p437
S'Informative'
p438
sS'474123033443966976'
p439
S'Informative'
p440
sS'460397492329521152'
p441
S'Not related to crisis'
p442
sS'460694844575588352'
p443
S'Informative'
p444
sS'460457349187371009'
p445
S'Informative'
p446
sS'460691756091445248'
p447
S'Personal only'
p448
sS'462908431779631104'
p449
S'Informative'
p450
sS'460423004271304704'
p451
S'Informative'
p452
sS'474161566141906945'
p453
S'Informative'
p454
sS'488710838547513344'
p455
S'Not related to crisis'
p456
sS'461070913471926272'
p457
S'Personal only'
p458
sS'460488079623471104'
p459
S'Informative'
p460
sS'477016178582237184'
p461
S'Informative'
p462
sS'476666124600217600'
p463
S'Informative'
p464
sS'460492029697748992'
p465
S'Informative'
p466
sS'461096014393266176'
p467
S'Personal only'
p468
sS'460446209304313856'
p469
S'Informative'
p470
sS'460644577553432576'
p471
S'Informative'
p472
sS'460491275880255490'
p473
S'Informative'
p474
sS'461092865804750849'
p475
S'Personal only'
p476
sS'460691698784296960'
p477
S'Informative'
p478
sS'460463463874457601'
p479
S'Informative'
p480
sS'461150872995909632'
p481
S'Informative'
p482
sS'460461069312745472'
p483
S'Informative'
p484
sS'460804205973078016'
p485
S'Informative'
p486
sS'460426562991820800'
p487
S'Informative'
p488
sS'474164208792518656'
p489
S'Informative'
p490
sS'461110755291856896'
p491
S'Informative'
p492
sS'488647333887094784'
p493
S'Not related to crisis'
p494
sS'460424445224812544'
p495
S'Informative'
p496
sS'476575412626014208'
p497
S'Informative'
p498
sS'460429463994793985'
p499
S'Informative'
p500
sS'460629714965499904'
p501
S'Informative'
p502
sS'488681145249579008'
p503
S'Not related to crisis'
p504
sS'460695622052372481'
p505
S'Informative'
p506
sS'460691228430831617'
p507
S'Informative'
p508
sS'460625026220564480'
p509
S'Not related to crisis'
p510
sS'476632442858917888'
p511
S'Informative'
p512
sS'460976965793484800'
p513
S'Informative'
p514
sS'460498207575769088'
p515
S'Informative'
p516
sS'460730720655507456'
p517
S'Personal only'
p518
sS'461112909108903936'
p519
S'Informative'
p520
sS'461029010135212032'
p521
S'Personal only'
p522
sS'460769229877571584'
p523
S'Informative'
p524
sS'474173966991380480'
p525
S'Informative'
p526
sS'461132285815713792'
p527
S'Personal only'
p528
sS'488711280686272512'
p529
S'Not related to crisis'
p530
sS'460437739700510720'
p531
S'Informative'
p532
sS'460743558207508481'
p533
S'Personal only'
p534
sS'460448290278866947'
p535
S'Informative'
p536
sS'488681139062575104'
p537
S'Not related to crisis'
p538
sS'460802933378924544'
p539
S'Informative'
p540
sS'460678158740504577'
p541
S'Informative'
p542
sS'460695516947689472'
p543
S'Informative'
p544
sS'460492653306470400'
p545
S'Informative'
p546
sS'460788379680919553'
p547
S'Not related to crisis'
p548
sS'461109798583296000'
p549
S'Informative'
p550
sS'474163071431495680'
p551
S'Informative'
p552
sS'460487831530799104'
p553
S'Informative'
p554
sS'460409857313492992'
p555
S'Informative'
p556
sS'460417977050218496'
p557
S'Informative'
p558
sS'460622699086094337'
p559
S'Informative'
p560
sS'460406930742063107'
p561
S'Informative'
p562
sS'460405480834080769'
p563
S'Informative'
p564
sS'461152364796588032'
p565
S'Informative'
p566
sS'460439811744997377'
p567
S'Informative'
p568
sS'460769990137102336'
p569
S'Personal only'
p570
sS'460454074643906560'
p571
S'Informative'
p572
sS'474170948099121152'
p573
S'Informative'
p574
sS'460448540402413569'
p575
S'Informative'
p576
sS'460777884055920640'
p577
S'Informative'
p578
sS'460682652333256704'
p579
S'Informative'
p580
sS'476602681394360320'
p581
S'Informative'
p582
sS'460735388970401792'
p583
S'Informative'
p584
sS'461116174525140993'
p585
S'Not related to crisis'
p586
sS'460690076758859778'
p587
S'Personal only'
p588
sS'474174576721539074'
p589
S'Not related to crisis'
p590
sS'488711394578399232'
p591
S'Not related to crisis'
p592
sS'460440336163438592'
p593
S'Informative'
p594
sS'460789160601980928'
p595
S'Informative'
p596
sS'488710746134810624'
p597
S'Not related to crisis'
p598
sS'460492188703404035'
p599
S'Informative'
p600
sS'460433091312365568'
p601
S'Personal only'
p602
sS'461104325465751552'
p603
S'Personal only'
p604
sS'460486305063763968'
p605
S'Informative'
p606
sS'474096203164954625'
p607
S'Informative'
p608
sS'460759093561409536'
p609
S'Informative'
p610
sS'460404012022771713'
p611
S'Informative'
p612
sS'460683015061258241'
p613
S'Informative'
p614
sS'461151906921201664'
p615
S'Informative'
p616
sS'460400130273730561'
p617
S'Not related to crisis'
p618
sS'488681125556936704'
p619
S'Not related to crisis'
p620
sS'460422638242762752'
p621
S'Personal only'
p622
sS'460440144915353600'
p623
S'Informative'
p624
sS'460435469726019586'
p625
S'Informative'
p626
sS'460410703774769153'
p627
S'Personal only'
p628
sS'460697471447236608'
p629
S'Informative'
p630
sS'460975026179956737'
p631
S'Informative'
p632
sS'460433743401189376'
p633
S'Informative'
p634
sS'460484627875241984'
p635
S'Informative'
p636
sS'460448130404610048'
p637
S'Informative'
p638
sS'476573662930165762'
p639
S'Informative'
p640
sS'460451334487945216'
p641
S'Informative'
p642
sS'460803737259241472'
p643
S'Informative'
p644
sS'460425461617528832'
p645
S'Personal only'
p646
sS'460767707646812160'
p647
S'Informative'
p648
sS'460448319014043648'
p649
S'Informative'
p650
sS'460435738526367745'
p651
S'Informative'
p652
sS'460732827831922688'
p653
S'Not related to crisis'
p654
sS'476574647505653761'
p655
S'Informative'
p656
sS'460461213604798464'
p657
S'Informative'
p658
sS'460463602332626944'
p659
S'Informative'
p660
sS'488647321547440129'
p661
S'Not related to crisis'
p662
sS'474172268684509184'
p663
S'Not related to crisis'
p664
sS'461068674858631168'
p665
S'Personal only'
p666
sS'460493837702402049'
p667
S'Informative'
p668
sS'460973327704539137'
p669
S'Informative'
p670
sS'476649315377893376'
p671
S'Informative'
p672
sS'460435259377479681'
p673
S'Informative'
p674
sS'460490708046983170'
p675
S'Informative'
p676
sS'488710716640473088'
p677
S'Not related to crisis'
p678
sS'461073049870413824'
p679
S'Informative'
p680
sS'461103311400099840'
p681
S'Informative'
p682
sS'460489203173064704'
p683
S'Informative'
p684
sS'460802307161333761'
p685
S'Informative'
p686
sS'488681124105691136'
p687
S'Not related to crisis'
p688
sS'460441249862803457'
p689
S'Informative'
p690
sS'460438523804254208'
p691
S'Informative'
p692
sS'461065959768600576'
p693
S'Informative'
p694
sS'474117505451974656'
p695
S'Informative'
p696
sS'460645415184908288'
p697
S'Informative'
p698
sS'460632548369252352'
p699
S'Informative'
p700
sS'460697642553864192'
p701
S'Informative'
p702
sS'460756234165964800'
p703
S'Not related to crisis'
p704
sS'488681152551878656'
p705
S'Not related to crisis'
p706
sS'476574918604115968'
p707
S'Informative'
p708
sS'460444343091081216'
p709
S'Informative'
p710
sS'460413274782048256'
p711
S'Informative'
p712
sS'461124886337826816'
p713
S'Informative'
p714
sS'460462238285840385'
p715
S'Not related to crisis'
p716
sS'460406831647850496'
p717
S'Informative'
p718
sS'476576015037116416'
p719
S'Informative'
p720
sS'460449403439157248'
p721
S'Informative'
p722
sS'461062285197586432'
p723
S'Informative'
p724
sS'460429794799124481'
p725
S'Informative'
p726
sS'460662160621064192'
p727
S'Informative'
p728
sS'460754072841109504'
p729
S'Informative'
p730
sS'460404886882885632'
p731
S'Informative'
p732
sS'462917484463403008'
p733
S'Informative'
p734
sS'460424451339718657'
p735
S'Personal only'
p736
sS'488711238109515777'
p737
S'Not related to crisis'
p738
sS'460723882786570240'
p739
S'Informative'
p740
sS'460684873846755328'
p741
S'Informative'
p742
sS'460773144152637440'
p743
S'Informative'
p744
sS'460619559628578817'
p745
S'Personal only'
p746
sS'461152399617298432'
p747
S'Informative'
p748
sS'460802925842165760'
p749
S'Informative'
p750
sS'460653157324845056'
p751
S'Informative'
p752
sS'460688603728076800'
p753
S'Informative'
p754
sS'461018745154973696'
p755
S'Informative'
p756
sS'460398400970575872'
p757
S'Informative'
p758
sS'474117504264966144'
p759
S'Informative'
p760
sS'460991405025144832'
p761
S'Informative'
p762
sS'460430120281321472'
p763
S'Informative'
p764
s.