(dp0
S'575783057984106496'
p1
S'not_related_or_irrelevant'
p2
sS'575762709439885312'
p3
S'donation_needs_or_offers_or_volunteering_services'
p4
sS'575739029775233025'
p5
S'donation_needs_or_offers_or_volunteering_services'
p6
sS'575797581181153280'
p7
S'injured_or_dead_people'
p8
sS'575758083848323072'
p9
S'infrastructure_and_utilities_damage'
p10
sS'575739156485144576'
p11
S'donation_needs_or_offers_or_volunteering_services'
p12
sS'575770521112985601'
p13
S'other_useful_information'
p14
sS'575769458335088640'
p15
S'other_useful_information'
p16
sS'575769590153658368'
p17
S'other_useful_information'
p18
sS'575753098477596674'
p19
S'caution_and_advice'
p20
sS'575760307307479040'
p21
S'not_related_or_irrelevant'
p22
sS'575788091815936002'
p23
S'injured_or_dead_people'
p24
sS'575798463822176256'
p25
S'other_useful_information'
p26
sS'575770480189120512'
p27
S'donation_needs_or_offers_or_volunteering_services'
p28
sS'575771075558006784'
p29
S'sympathy_and_emotional_support'
p30
sS'575760581728272384'
p31
S'other_useful_information'
p32
sS'575779050884587520'
p33
S'other_useful_information'
p34
sS'575787945338122240'
p35
S'donation_needs_or_offers_or_volunteering_services'
p36
sS'575785885939146753'
p37
S'donation_needs_or_offers_or_volunteering_services'
p38
sS'575768416314728448'
p39
S'not_related_or_irrelevant'
p40
sS'575777911594090497'
p41
S'missing_trapped_or_found_people'
p42
sS'575745573418057729'
p43
S'caution_and_advice'
p44
sS'575740535173861376'
p45
S'donation_needs_or_offers_or_volunteering_services'
p46
sS'575771092989554690'
p47
S'displaced_people_and_evacuations'
p48
sS'575743447753080833'
p49
S'donation_needs_or_offers_or_volunteering_services'
p50
sS'575779756416831488'
p51
S'other_useful_information'
p52
sS'575785572997861378'
p53
S'not_related_or_irrelevant'
p54
sS'575740496414294016'
p55
S'donation_needs_or_offers_or_volunteering_services'
p56
sS'575763432420454400'
p57
S'other_useful_information'
p58
sS'575740650454323200'
p59
S'other_useful_information'
p60
sS'575745558372995072'
p61
S'other_useful_information'
p62
sS'575769576169807872'
p63
S'donation_needs_or_offers_or_volunteering_services'
p64
sS'575740368454467584'
p65
S'caution_and_advice'
p66
sS'575771116825763840'
p67
S'other_useful_information'
p68
sS'575787625061048320'
p69
S'not_related_or_irrelevant'
p70
sS'575747029781069824'
p71
S'not_related_or_irrelevant'
p72
sS'575773620879900675'
p73
S'other_useful_information'
p74
sS'575753442360193025'
p75
S'injured_or_dead_people'
p76
sS'575756490264350722'
p77
S'other_useful_information'
p78
sS'575772756714725376'
p79
S'other_useful_information'
p80
sS'575754450180136960'
p81
S'infrastructure_and_utilities_damage'
p82
sS'575769439980756992'
p83
S'donation_needs_or_offers_or_volunteering_services'
p84
sS'575796218103660544'
p85
S'other_useful_information'
p86
sS'575740629424062466'
p87
S'donation_needs_or_offers_or_volunteering_services'
p88
sS'575742122709549056'
p89
S'injured_or_dead_people'
p90
sS'575740523299778560'
p91
S'infrastructure_and_utilities_damage'
p92
sS'575756184042369024'
p93
S'infrastructure_and_utilities_damage'
p94
sS'575785651607592961'
p95
S'other_useful_information'
p96
sS'575784636036554752'
p97
S'infrastructure_and_utilities_damage'
p98
sS'575771475807985664'
p99
S'not_related_or_irrelevant'
p100
sS'575794650717405184'
p101
S'not_related_or_irrelevant'
p102
sS'575769460633546752'
p103
S'donation_needs_or_offers_or_volunteering_services'
p104
sS'575774239128690691'
p105
S'not_related_or_irrelevant'
p106
sS'575737189646090240'
p107
S'not_related_or_irrelevant'
p108
sS'575769590057148416'
p109
S'other_useful_information'
p110
sS'575770238102429696'
p111
S'donation_needs_or_offers_or_volunteering_services'
p112
sS'575775053058453504'
p113
S'donation_needs_or_offers_or_volunteering_services'
p114
sS'575795459383517186'
p115
S'injured_or_dead_people'
p116
sS'575752502165049344'
p117
S'infrastructure_and_utilities_damage'
p118
sS'575777073089875969'
p119
S'donation_needs_or_offers_or_volunteering_services'
p120
sS'575777732052717568'
p121
S'not_related_or_irrelevant'
p122
sS'575777178987593729'
p123
S'other_useful_information'
p124
sS'575782879227043841'
p125
S'sympathy_and_emotional_support'
p126
sS'575753162214219776'
p127
S'not_related_or_irrelevant'
p128
sS'575777903226548225'
p129
S'injured_or_dead_people'
p130
sS'575783644725395457'
p131
S'caution_and_advice'
p132
sS'575788680041795584'
p133
S'not_related_or_irrelevant'
p134
sS'575781047259959296'
p135
S'not_related_or_irrelevant'
p136
sS'575770521926692864'
p137
S'not_related_or_irrelevant'
p138
sS'575753291767943169'
p139
S'not_related_or_irrelevant'
p140
sS'575753077233467392'
p141
S'donation_needs_or_offers_or_volunteering_services'
p142
sS'575753349078851585'
p143
S'other_useful_information'
p144
sS'575775710008250368'
p145
S'infrastructure_and_utilities_damage'
p146
sS'575779353264422912'
p147
S'other_useful_information'
p148
sS'575767997333143552'
p149
S'injured_or_dead_people'
p150
sS'575751495695499264'
p151
S'sympathy_and_emotional_support'
p152
sS'575747727717363712'
p153
S'other_useful_information'
p154
sS'575768403346128896'
p155
S'other_useful_information'
p156
sS'575745125604855808'
p157
S'not_related_or_irrelevant'
p158
sS'575769454010728448'
p159
S'not_related_or_irrelevant'
p160
sS'575740538059513859'
p161
S'other_useful_information'
p162
sS'575769507186130945'
p163
S'other_useful_information'
p164
sS'575754299059240960'
p165
S'not_related_or_irrelevant'
p166
sS'575740624386682880'
p167
S'other_useful_information'
p168
sS'575742383683317760'
p169
S'donation_needs_or_offers_or_volunteering_services'
p170
sS'575761095622803458'
p171
S'not_related_or_irrelevant'
p172
sS'575770471083347970'
p173
S'donation_needs_or_offers_or_volunteering_services'
p174
sS'575777137950593024'
p175
S'missing_trapped_or_found_people'
p176
sS'575745978176688128'
p177
S'not_related_or_irrelevant'
p178
sS'575758916732215297'
p179
S'infrastructure_and_utilities_damage'
p180
sS'575748391457681408'
p181
S'other_useful_information'
p182
sS'575753417236312066'
p183
S'not_related_or_irrelevant'
p184
sS'575761338082926594'
p185
S'injured_or_dead_people'
p186
sS'575736838293426176'
p187
S'not_related_or_irrelevant'
p188
sS'575779477671800833'
p189
S'donation_needs_or_offers_or_volunteering_services'
p190
sS'575794565988368384'
p191
S'donation_needs_or_offers_or_volunteering_services'
p192
sS'575765588078911489'
p193
S'other_useful_information'
p194
sS'575772801560281088'
p195
S'donation_needs_or_offers_or_volunteering_services'
p196
sS'575781782731128832'
p197
S'displaced_people_and_evacuations'
p198
sS'575776345994760192'
p199
S'donation_needs_or_offers_or_volunteering_services'
p200
sS'575767946884177922'
p201
S'not_related_or_irrelevant'
p202
sS'575772795973435392'
p203
S'not_related_or_irrelevant'
p204
sS'575799583629946880'
p205
S'other_useful_information'
p206
sS'575794831995183104'
p207
S'other_useful_information'
p208
sS'575795535375769600'
p209
S'injured_or_dead_people'
p210
sS'575800142311374850'
p211
S'not_related_or_irrelevant'
p212
sS'575758203683663872'
p213
S'other_useful_information'
p214
sS'575738227820249088'
p215
S'injured_or_dead_people'
p216
sS'575798059210313729'
p217
S'not_related_or_irrelevant'
p218
sS'575769435237056512'
p219
S'injured_or_dead_people'
p220
sS'575742269732450304'
p221
S'caution_and_advice'
p222
sS'575740888573313024'
p223
S'other_useful_information'
p224
sS'575771480824287233'
p225
S'donation_needs_or_offers_or_volunteering_services'
p226
sS'575755716612390913'
p227
S'not_related_or_irrelevant'
p228
sS'575791741371994112'
p229
S'not_related_or_irrelevant'
p230
sS'575746071974047746'
p231
S'infrastructure_and_utilities_damage'
p232
sS'575793387376279553'
p233
S'not_related_or_irrelevant'
p234
sS'575772723302961152'
p235
S'other_useful_information'
p236
sS'575772513474584577'
p237
S'other_useful_information'
p238
sS'575794585223307264'
p239
S'other_useful_information'
p240
sS'575740048655585280'
p241
S'other_useful_information'
p242
sS'575771077084717056'
p243
S'sympathy_and_emotional_support'
p244
sS'575757625201156096'
p245
S'caution_and_advice'
p246
sS'575788822274916353'
p247
S'not_related_or_irrelevant'
p248
sS'575789932028956673'
p249
S'donation_needs_or_offers_or_volunteering_services'
p250
sS'575768418739183616'
p251
S'other_useful_information'
p252
sS'575751044933816320'
p253
S'not_related_or_irrelevant'
p254
sS'575753183512891394'
p255
S'infrastructure_and_utilities_damage'
p256
sS'575781975190962176'
p257
S'donation_needs_or_offers_or_volunteering_services'
p258
sS'575770076780961792'
p259
S'not_related_or_irrelevant'
p260
sS'575751877884788737'
p261
S'sympathy_and_emotional_support'
p262
sS'575787112513036288'
p263
S'infrastructure_and_utilities_damage'
p264
sS'575769574034960384'
p265
S'injured_or_dead_people'
p266
sS'575753461524004866'
p267
S'caution_and_advice'
p268
sS'575779620328448000'
p269
S'donation_needs_or_offers_or_volunteering_services'
p270
sS'575794945996410880'
p271
S'other_useful_information'
p272
sS'575791302937194496'
p273
S'not_related_or_irrelevant'
p274
sS'575757526819471362'
p275
S'other_useful_information'
p276
sS'575767164759732224'
p277
S'sympathy_and_emotional_support'
p278
sS'575740639473614848'
p279
S'donation_needs_or_offers_or_volunteering_services'
p280
sS'575791022686384131'
p281
S'other_useful_information'
p282
sS'575746232959823873'
p283
S'donation_needs_or_offers_or_volunteering_services'
p284
sS'575782328959631360'
p285
S'donation_needs_or_offers_or_volunteering_services'
p286
sS'575785496091099136'
p287
S'sympathy_and_emotional_support'
p288
sS'575778283813408768'
p289
S'other_useful_information'
p290
sS'575771133250666496'
p291
S'not_related_or_irrelevant'
p292
sS'575754375009857536'
p293
S'not_related_or_irrelevant'
p294
sS'575770480373731329'
p295
S'other_useful_information'
p296
sS'575789861665292288'
p297
S'other_useful_information'
p298
sS'575757148614975489'
p299
S'caution_and_advice'
p300
sS'575737048994217984'
p301
S'other_useful_information'
p302
sS'575740515196391425'
p303
S'other_useful_information'
p304
sS'575745153459187712'
p305
S'donation_needs_or_offers_or_volunteering_services'
p306
sS'575777941667364865'
p307
S'sympathy_and_emotional_support'
p308
sS'575754066304876544'
p309
S'other_useful_information'
p310
sS'575755155926204417'
p311
S'other_useful_information'
p312
sS'575783732872933376'
p313
S'other_useful_information'
p314
sS'575740634796924930'
p315
S'other_useful_information'
p316
sS'575750560730710016'
p317
S'other_useful_information'
p318
sS'575768976283803649'
p319
S'other_useful_information'
p320
sS'575778852405907459'
p321
S'other_useful_information'
p322
sS'575795376004816896'
p323
S'injured_or_dead_people'
p324
sS'575795951475892224'
p325
S'missing_trapped_or_found_people'
p326
sS'575765229713424384'
p327
S'other_useful_information'
p328
sS'575741440757727232'
p329
S'not_related_or_irrelevant'
p330
sS'575762802171756544'
p331
S'donation_needs_or_offers_or_volunteering_services'
p332
sS'575737382969962496'
p333
S'sympathy_and_emotional_support'
p334
sS'575779030265282560'
p335
S'caution_and_advice'
p336
sS'575750215799455744'
p337
S'infrastructure_and_utilities_damage'
p338
sS'575769558587342848'
p339
S'not_related_or_irrelevant'
p340
sS'575766472917524480'
p341
S'sympathy_and_emotional_support'
p342
sS'575784100797247489'
p343
S'other_useful_information'
p344
sS'575769184581255168'
p345
S'not_related_or_irrelevant'
p346
sS'575765297803706368'
p347
S'not_related_or_irrelevant'
p348
sS'575799430953103360'
p349
S'other_useful_information'
p350
sS'575766998258331648'
p351
S'sympathy_and_emotional_support'
p352
sS'575797714845216768'
p353
S'injured_or_dead_people'
p354
sS'575740514894413824'
p355
S'donation_needs_or_offers_or_volunteering_services'
p356
sS'575760087031095296'
p357
S'other_useful_information'
p358
sS'575740519776567297'
p359
S'injured_or_dead_people'
p360
sS'575754481431769088'
p361
S'other_useful_information'
p362
sS'575759640236965888'
p363
S'not_related_or_irrelevant'
p364
sS'575782784507199490'
p365
S'infrastructure_and_utilities_damage'
p366
sS'575756999977099264'
p367
S'caution_and_advice'
p368
sS'575799532102901761'
p369
S'sympathy_and_emotional_support'
p370
sS'575737693369294848'
p371
S'infrastructure_and_utilities_damage'
p372
sS'575796276328955905'
p373
S'caution_and_advice'
p374
sS'575772662091374593'
p375
S'other_useful_information'
p376
sS'575773240301391873'
p377
S'other_useful_information'
p378
sS'575791978895577088'
p379
S'not_related_or_irrelevant'
p380
sS'575772941406765057'
p381
S'donation_needs_or_offers_or_volunteering_services'
p382
sS'575769464433565696'
p383
S'sympathy_and_emotional_support'
p384
sS'575796640767856640'
p385
S'other_useful_information'
p386
sS'575787334962036736'
p387
S'not_related_or_irrelevant'
p388
sS'575758083584032768'
p389
S'other_useful_information'
p390
sS'575788954244415488'
p391
S'other_useful_information'
p392
sS'575769234036289536'
p393
S'other_useful_information'
p394
sS'575737898231693313'
p395
S'donation_needs_or_offers_or_volunteering_services'
p396
sS'575786985404645377'
p397
S'other_useful_information'
p398
sS'575796971832766464'
p399
S'caution_and_advice'
p400
sS'575857740347740160'
p401
S'injured_or_dead_people'
p402
sS'575740822580146177'
p403
S'injured_or_dead_people'
p404
sS'575782416972836864'
p405
S'other_useful_information'
p406
sS'575769531987066881'
p407
S'other_useful_information'
p408
sS'575740984107139073'
p409
S'donation_needs_or_offers_or_volunteering_services'
p410
sS'575795513842405377'
p411
S'not_related_or_irrelevant'
p412
sS'575741295991238657'
p413
S'donation_needs_or_offers_or_volunteering_services'
p414
sS'575785532577345536'
p415
S'infrastructure_and_utilities_damage'
p416
sS'575761400808656896'
p417
S'infrastructure_and_utilities_damage'
p418
sS'575789178232901634'
p419
S'not_related_or_irrelevant'
p420
sS'575793554741686272'
p421
S'displaced_people_and_evacuations'
p422
sS'575797814623539200'
p423
S'other_useful_information'
p424
sS'575772210767478784'
p425
S'donation_needs_or_offers_or_volunteering_services'
p426
sS'575740643693170690'
p427
S'not_related_or_irrelevant'
p428
sS'575752704217194496'
p429
S'infrastructure_and_utilities_damage'
p430
sS'575769635158523904'
p431
S'infrastructure_and_utilities_damage'
p432
sS'575773833904418816'
p433
S'other_useful_information'
p434
sS'575774239413829633'
p435
S'not_related_or_irrelevant'
p436
sS'575787576952365056'
p437
S'other_useful_information'
p438
sS'575746380917923840'
p439
S'donation_needs_or_offers_or_volunteering_services'
p440
sS'575780727624597504'
p441
S'sympathy_and_emotional_support'
p442
sS'575753228043874305'
p443
S'caution_and_advice'
p444
sS'575753132761833473'
p445
S'other_useful_information'
p446
sS'575782563958013952'
p447
S'not_related_or_irrelevant'
p448
sS'575739458424807425'
p449
S'other_useful_information'
p450
sS'575758159261794304'
p451
S'infrastructure_and_utilities_damage'
p452
sS'575759736475271168'
p453
S'other_useful_information'
p454
sS'575769458834210818'
p455
S'not_related_or_irrelevant'
p456
sS'575762340072677376'
p457
S'caution_and_advice'
p458
sS'575753086033117187'
p459
S'donation_needs_or_offers_or_volunteering_services'
p460
sS'575752832395141121'
p461
S'donation_needs_or_offers_or_volunteering_services'
p462
sS'575779727044145152'
p463
S'not_related_or_irrelevant'
p464
sS'575773640936984576'
p465
S'not_related_or_irrelevant'
p466
sS'575800179372195841'
p467
S'sympathy_and_emotional_support'
p468
sS'575752317019934720'
p469
S'not_related_or_irrelevant'
p470
sS'575796389088788480'
p471
S'other_useful_information'
p472
sS'575737292913963008'
p473
S'other_useful_information'
p474
sS'575797155727740929'
p475
S'other_useful_information'
p476
sS'575753297262436353'
p477
S'not_related_or_irrelevant'
p478
sS'575798093691678721'
p479
S'donation_needs_or_offers_or_volunteering_services'
p480
sS'575740516022669313'
p481
S'injured_or_dead_people'
p482
sS'575792121812144130'
p483
S'sympathy_and_emotional_support'
p484
sS'575744480051138560'
p485
S'donation_needs_or_offers_or_volunteering_services'
p486
sS'575740976565743616'
p487
S'other_useful_information'
p488
sS'575794567485652993'
p489
S'infrastructure_and_utilities_damage'
p490
sS'575769187894718464'
p491
S'infrastructure_and_utilities_damage'
p492
sS'575776074212073472'
p493
S'displaced_people_and_evacuations'
p494
sS'575771704120598528'
p495
S'other_useful_information'
p496
sS'575778712630599680'
p497
S'injured_or_dead_people'
p498
sS'575752757891596288'
p499
S'injured_or_dead_people'
p500
sS'575771085536256000'
p501
S'not_related_or_irrelevant'
p502
sS'575798171957391362'
p503
S'other_useful_information'
p504
sS'575794750038605825'
p505
S'not_related_or_irrelevant'
p506
sS'575769563570180096'
p507
S'other_useful_information'
p508
sS'575779430599032832'
p509
S'other_useful_information'
p510
sS'575769499078553600'
p511
S'not_related_or_irrelevant'
p512
sS'575755028268384256'
p513
S'other_useful_information'
p514
sS'575752308811776001'
p515
S'caution_and_advice'
p516
sS'575765918271299584'
p517
S'donation_needs_or_offers_or_volunteering_services'
p518
sS'575753257764659200'
p519
S'other_useful_information'
p520
sS'575740625770835968'
p521
S'not_related_or_irrelevant'
p522
sS'575779888285745152'
p523
S'other_useful_information'
p524
sS'575769453427822592'
p525
S'other_useful_information'
p526
sS'575783088564867072'
p527
S'infrastructure_and_utilities_damage'
p528
sS'575769436524675072'
p529
S'not_related_or_irrelevant'
p530
sS'575773642019090432'
p531
S'other_useful_information'
p532
sS'575744485264510976'
p533
S'other_useful_information'
p534
sS'575744795638824960'
p535
S'donation_needs_or_offers_or_volunteering_services'
p536
sS'575780822537494528'
p537
S'donation_needs_or_offers_or_volunteering_services'
p538
sS'575749227701104640'
p539
S'other_useful_information'
p540
sS'575769182777663488'
p541
S'injured_or_dead_people'
p542
sS'575770789741461506'
p543
S'displaced_people_and_evacuations'
p544
sS'575760882199736320'
p545
S'other_useful_information'
p546
sS'575780353618677761'
p547
S'injured_or_dead_people'
p548
sS'575777142576828416'
p549
S'not_related_or_irrelevant'
p550
sS'575740706750226432'
p551
S'sympathy_and_emotional_support'
p552
sS'575769219066789888'
p553
S'other_useful_information'
p554
sS'575761013133340673'
p555
S'infrastructure_and_utilities_damage'
p556
sS'575760134380650496'
p557
S'donation_needs_or_offers_or_volunteering_services'
p558
sS'575770806573121537'
p559
S'other_useful_information'
p560
sS'575753120141152256'
p561
S'not_related_or_irrelevant'
p562
sS'575771088564588544'
p563
S'not_related_or_irrelevant'
p564
sS'575797312083001344'
p565
S'other_useful_information'
p566
sS'575780038643216384'
p567
S'other_useful_information'
p568
sS'575762964701122561'
p569
S'donation_needs_or_offers_or_volunteering_services'
p570
sS'575764787377758208'
p571
S'infrastructure_and_utilities_damage'
p572
sS'575770636653588480'
p573
S'caution_and_advice'
p574
sS'575794867386720256'
p575
S'not_related_or_irrelevant'
p576
sS'575788370368012288'
p577
S'injured_or_dead_people'
p578
sS'575743649176231936'
p579
S'not_related_or_irrelevant'
p580
sS'575769619551551489'
p581
S'other_useful_information'
p582
sS'575756475961896960'
p583
S'injured_or_dead_people'
p584
sS'575752390294503425'
p585
S'not_related_or_irrelevant'
p586
sS'575795684772835328'
p587
S'displaced_people_and_evacuations'
p588
sS'575790956470915072'
p589
S'infrastructure_and_utilities_damage'
p590
sS'575769561179389952'
p591
S'donation_needs_or_offers_or_volunteering_services'
p592
sS'575738025180725248'
p593
S'donation_needs_or_offers_or_volunteering_services'
p594
sS'575746507154006017'
p595
S'infrastructure_and_utilities_damage'
p596
sS'575766677398380545'
p597
S'not_related_or_irrelevant'
p598
sS'575740656867352576'
p599
S'other_useful_information'
p600
sS'575753169793327105'
p601
S'not_related_or_irrelevant'
p602
sS'575771697854345216'
p603
S'caution_and_advice'
p604
sS'575779821453639680'
p605
S'other_useful_information'
p606
sS'575797486247276544'
p607
S'infrastructure_and_utilities_damage'
p608
sS'575772172376899584'
p609
S'other_useful_information'
p610
sS'575786328756854784'
p611
S'other_useful_information'
p612
sS'575736693820514304'
p613
S'other_useful_information'
p614
sS'575784055838412800'
p615
S'donation_needs_or_offers_or_volunteering_services'
p616
sS'575796944041345025'
p617
S'donation_needs_or_offers_or_volunteering_services'
p618
sS'575741041631956992'
p619
S'other_useful_information'
p620
sS'575778481675481090'
p621
S'other_useful_information'
p622
sS'575744180418310144'
p623
S'not_related_or_irrelevant'
p624
sS'575757332405166080'
p625
S'infrastructure_and_utilities_damage'
p626
sS'575741392187695104'
p627
S'donation_needs_or_offers_or_volunteering_services'
p628
sS'575773631583756288'
p629
S'not_related_or_irrelevant'
p630
sS'575772719796482048'
p631
S'caution_and_advice'
p632
sS'575769574009802752'
p633
S'not_related_or_irrelevant'
p634
sS'575788600375250945'
p635
S'not_related_or_irrelevant'
p636
sS'575779492343517184'
p637
S'other_useful_information'
p638
sS'575740630271315968'
p639
S'injured_or_dead_people'
p640
sS'575740525501771776'
p641
S'other_useful_information'
p642
sS'575775828421840897'
p643
S'donation_needs_or_offers_or_volunteering_services'
p644
sS'575772485938872322'
p645
S'donation_needs_or_offers_or_volunteering_services'
p646
sS'575782604814729216'
p647
S'other_useful_information'
p648
sS'575790588714434561'
p649
S'other_useful_information'
p650
sS'575763266611343360'
p651
S'injured_or_dead_people'
p652
sS'575768315848749056'
p653
S'other_useful_information'
p654
sS'575769498306809856'
p655
S'sympathy_and_emotional_support'
p656
sS'575758398895046656'
p657
S'not_related_or_irrelevant'
p658
sS'575787142372184064'
p659
S'donation_needs_or_offers_or_volunteering_services'
p660
sS'575737721320243200'
p661
S'caution_and_advice'
p662
sS'575785925327740928'
p663
S'donation_needs_or_offers_or_volunteering_services'
p664
sS'575782288073486336'
p665
S'missing_trapped_or_found_people'
p666
sS'575749340137979904'
p667
S'other_useful_information'
p668
sS'575748494616473600'
p669
S'not_related_or_irrelevant'
p670
sS'575773679981846528'
p671
S'caution_and_advice'
p672
sS'575740620842536960'
p673
S'donation_needs_or_offers_or_volunteering_services'
p674
sS'575760336420257792'
p675
S'not_related_or_irrelevant'
p676
sS'575771091324424192'
p677
S'injured_or_dead_people'
p678
sS'575774014066438145'
p679
S'other_useful_information'
p680
sS'575751260634234880'
p681
S'not_related_or_irrelevant'
p682
sS'575764102297096193'
p683
S'infrastructure_and_utilities_damage'
p684
sS'575752705290821632'
p685
S'donation_needs_or_offers_or_volunteering_services'
p686
sS'575740634788597760'
p687
S'caution_and_advice'
p688
sS'575788079841071105'
p689
S'infrastructure_and_utilities_damage'
p690
sS'575764707857993728'
p691
S'donation_needs_or_offers_or_volunteering_services'
p692
sS'575793591823392768'
p693
S'other_useful_information'
p694
sS'575768910005325824'
p695
S'other_useful_information'
p696
sS'575794686058594304'
p697
S'other_useful_information'
p698
sS'575786479747620864'
p699
S'donation_needs_or_offers_or_volunteering_services'
p700
sS'575748495472136193'
p701
S'not_related_or_irrelevant'
p702
sS'575781671179456512'
p703
S'other_useful_information'
p704
sS'575774665530023937'
p705
S'not_related_or_irrelevant'
p706
sS'575792684889161731'
p707
S'sympathy_and_emotional_support'
p708
sS'575748154877870080'
p709
S'not_related_or_irrelevant'
p710
sS'575740592220717056'
p711
S'other_useful_information'
p712
sS'575742401442000897'
p713
S'injured_or_dead_people'
p714
sS'575767655208083457'
p715
S'injured_or_dead_people'
p716
sS'575799035208024064'
p717
S'other_useful_information'
p718
sS'575778883280236544'
p719
S'other_useful_information'
p720
sS'575743437204516864'
p721
S'sympathy_and_emotional_support'
p722
sS'575771178259902464'
p723
S'infrastructure_and_utilities_damage'
p724
sS'575771327530844160'
p725
S'not_related_or_irrelevant'
p726
sS'575737841344495618'
p727
S'infrastructure_and_utilities_damage'
p728
sS'575740708549619713'
p729
S'not_related_or_irrelevant'
p730
sS'575759442479747072'
p731
S'donation_needs_or_offers_or_volunteering_services'
p732
sS'575769204512587777'
p733
S'other_useful_information'
p734
sS'575769240310951937'
p735
S'other_useful_information'
p736
sS'575769909671546880'
p737
S'injured_or_dead_people'
p738
sS'575769201383641089'
p739
S'other_useful_information'
p740
sS'575755458150993920'
p741
S'infrastructure_and_utilities_damage'
p742
sS'575799539744952320'
p743
S'not_related_or_irrelevant'
p744
sS'575795584327622656'
p745
S'injured_or_dead_people'
p746
sS'575780169199284224'
p747
S'sympathy_and_emotional_support'
p748
sS'575738350671257600'
p749
S'infrastructure_and_utilities_damage'
p750
sS'575772831302033408'
p751
S'other_useful_information'
p752
sS'575776206181691392'
p753
S'not_related_or_irrelevant'
p754
sS'575795389728604160'
p755
S'not_related_or_irrelevant'
p756
sS'575797907745599488'
p757
S'not_related_or_irrelevant'
p758
sS'575793529210830850'
p759
S'sympathy_and_emotional_support'
p760
sS'575744841327493120'
p761
S'not_related_or_irrelevant'
p762
sS'575777597654700033'
p763
S'not_related_or_irrelevant'
p764
sS'575785292705062912'
p765
S'not_related_or_irrelevant'
p766
sS'575739845487755264'
p767
S'infrastructure_and_utilities_damage'
p768
sS'575784572870336513'
p769
S'not_related_or_irrelevant'
p770
sS'575770503555633152'
p771
S'donation_needs_or_offers_or_volunteering_services'
p772
sS'575760034929377280'
p773
S'not_related_or_irrelevant'
p774
sS'575739189536382976'
p775
S'not_related_or_irrelevant'
p776
sS'575739524644372481'
p777
S'other_useful_information'
p778
sS'575753924046643201'
p779
S'caution_and_advice'
p780
sS'575786483186978816'
p781
S'sympathy_and_emotional_support'
p782
sS'575740674898681857'
p783
S'injured_or_dead_people'
p784
sS'575773017004900352'
p785
S'infrastructure_and_utilities_damage'
p786
sS'575778154758807553'
p787
S'donation_needs_or_offers_or_volunteering_services'
p788
sS'575769197004771328'
p789
S'not_related_or_irrelevant'
p790
sS'575746578230591489'
p791
S'donation_needs_or_offers_or_volunteering_services'
p792
sS'575745982337581056'
p793
S'sympathy_and_emotional_support'
p794
sS'575780728480333824'
p795
S'infrastructure_and_utilities_damage'
p796
sS'575775751078682624'
p797
S'not_related_or_irrelevant'
p798
sS'575777730052009984'
p799
S'not_related_or_irrelevant'
p800
sS'575800470427602944'
p801
S'caution_and_advice'
p802
sS'575770468591910914'
p803
S'infrastructure_and_utilities_damage'
p804
sS'575753359220678656'
p805
S'not_related_or_irrelevant'
p806
sS'575770463642652672'
p807
S'caution_and_advice'
p808
sS'575740659941814273'
p809
S'donation_needs_or_offers_or_volunteering_services'
p810
sS'575740510901420032'
p811
S'other_useful_information'
p812
sS'575760648396632064'
p813
S'other_useful_information'
p814
sS'575749281077923842'
p815
S'injured_or_dead_people'
p816
sS'575778676568010752'
p817
S'sympathy_and_emotional_support'
p818
sS'575737656388251649'
p819
S'not_related_or_irrelevant'
p820
sS'575793548764672001'
p821
S'not_related_or_irrelevant'
p822
sS'575759656485658624'
p823
S'other_useful_information'
p824
sS'575745627658850304'
p825
S'infrastructure_and_utilities_damage'
p826
sS'575785299025899520'
p827
S'displaced_people_and_evacuations'
p828
sS'575749233917059072'
p829
S'donation_needs_or_offers_or_volunteering_services'
p830
sS'575740626550947841'
p831
S'donation_needs_or_offers_or_volunteering_services'
p832
sS'575782643834486784'
p833
S'other_useful_information'
p834
sS'575773696628912128'
p835
S'other_useful_information'
p836
sS'575755386579517441'
p837
S'donation_needs_or_offers_or_volunteering_services'
p838
sS'575752051600195584'
p839
S'not_related_or_irrelevant'
p840
sS'575770935585849344'
p841
S'other_useful_information'
p842
sS'575768615112294401'
p843
S'donation_needs_or_offers_or_volunteering_services'
p844
sS'575770536006975488'
p845
S'other_useful_information'
p846
sS'575769447618609152'
p847
S'other_useful_information'
p848
sS'575739949590282240'
p849
S'injured_or_dead_people'
p850
sS'575751305152630785'
p851
S'infrastructure_and_utilities_damage'
p852
sS'575772803296718848'
p853
S'infrastructure_and_utilities_damage'
p854
sS'575795006310645761'
p855
S'donation_needs_or_offers_or_volunteering_services'
p856
sS'575771078447865856'
p857
S'other_useful_information'
p858
sS'575757122534838272'
p859
S'donation_needs_or_offers_or_volunteering_services'
p860
sS'575769590082371584'
p861
S'other_useful_information'
p862
sS'575757998296977408'
p863
S'donation_needs_or_offers_or_volunteering_services'
p864
sS'575741347417563136'
p865
S'not_related_or_irrelevant'
p866
sS'575740705449975808'
p867
S'other_useful_information'
p868
sS'575771092146499585'
p869
S'caution_and_advice'
p870
sS'575787385855803392'
p871
S'injured_or_dead_people'
p872
sS'575736345332600832'
p873
S'not_related_or_irrelevant'
p874
sS'575773572662235136'
p875
S'injured_or_dead_people'
p876
sS'575744711547228160'
p877
S'not_related_or_irrelevant'
p878
sS'575750146689990656'
p879
S'not_related_or_irrelevant'
p880
sS'575768103117717504'
p881
S'other_useful_information'
p882
sS'575788678200557568'
p883
S'other_useful_information'
p884
sS'575796106036125696'
p885
S'infrastructure_and_utilities_damage'
p886
sS'575791055154638848'
p887
S'caution_and_advice'
p888
sS'575775803100774400'
p889
S'other_useful_information'
p890
sS'575783038723997696'
p891
S'other_useful_information'
p892
sS'575740494900125696'
p893
S'other_useful_information'
p894
sS'575772144275189760'
p895
S'sympathy_and_emotional_support'
p896
sS'575747149847207937'
p897
S'other_useful_information'
p898
sS'575777067549245442'
p899
S'missing_trapped_or_found_people'
p900
sS'575758469149499392'
p901
S'donation_needs_or_offers_or_volunteering_services'
p902
sS'575800168022306816'
p903
S'not_related_or_irrelevant'
p904
sS'575785491267649536'
p905
S'other_useful_information'
p906
sS'575769385190715392'
p907
S'displaced_people_and_evacuations'
p908
sS'575753375553355776'
p909
S'sympathy_and_emotional_support'
p910
sS'575738509140480000'
p911
S'other_useful_information'
p912
sS'575740528546832384'
p913
S'donation_needs_or_offers_or_volunteering_services'
p914
sS'575795125705576448'
p915
S'infrastructure_and_utilities_damage'
p916
sS'575742468735418368'
p917
S'other_useful_information'
p918
sS'575759847079157761'
p919
S'infrastructure_and_utilities_damage'
p920
sS'575745592996986880'
p921
S'donation_needs_or_offers_or_volunteering_services'
p922
sS'575765057134551040'
p923
S'donation_needs_or_offers_or_volunteering_services'
p924
sS'575769437342564353'
p925
S'other_useful_information'
p926
sS'575778124945866753'
p927
S'caution_and_advice'
p928
sS'575752191933313024'
p929
S'not_related_or_irrelevant'
p930
sS'575769504862486528'
p931
S'donation_needs_or_offers_or_volunteering_services'
p932
sS'575747813838991360'
p933
S'not_related_or_irrelevant'
p934
sS'575760571276136449'
p935
S'other_useful_information'
p936
sS'575780732481703936'
p937
S'sympathy_and_emotional_support'
p938
sS'575754887008546816'
p939
S'donation_needs_or_offers_or_volunteering_services'
p940
sS'575774340043534336'
p941
S'infrastructure_and_utilities_damage'
p942
sS'575769435065090048'
p943
S'not_related_or_irrelevant'
p944
sS'575767835860934656'
p945
S'infrastructure_and_utilities_damage'
p946
sS'575762752955809792'
p947
S'injured_or_dead_people'
p948
sS'575787312392503296'
p949
S'not_related_or_irrelevant'
p950
sS'575770184813711361'
p951
S'infrastructure_and_utilities_damage'
p952
sS'575749744900841472'
p953
S'other_useful_information'
p954
sS'575753378459951105'
p955
S'infrastructure_and_utilities_damage'
p956
sS'575745602924888064'
p957
S'infrastructure_and_utilities_damage'
p958
sS'575770501173248000'
p959
S'donation_needs_or_offers_or_volunteering_services'
p960
sS'575785958211084288'
p961
S'injured_or_dead_people'
p962
sS'575788125009674240'
p963
S'other_useful_information'
p964
sS'575773091504218112'
p965
S'donation_needs_or_offers_or_volunteering_services'
p966
sS'575800527826477056'
p967
S'other_useful_information'
p968
sS'575799967014608896'
p969
S'not_related_or_irrelevant'
p970
sS'575794889658494977'
p971
S'donation_needs_or_offers_or_volunteering_services'
p972
sS'575740691097120768'
p973
S'other_useful_information'
p974
sS'575769563435900928'
p975
S'donation_needs_or_offers_or_volunteering_services'
p976
sS'575769425451712512'
p977
S'displaced_people_and_evacuations'
p978
sS'575771095170613248'
p979
S'other_useful_information'
p980
sS'575740655101566976'
p981
S'donation_needs_or_offers_or_volunteering_services'
p982
sS'575769462655201280'
p983
S'not_related_or_irrelevant'
p984
sS'575779712808718337'
p985
S'infrastructure_and_utilities_damage'
p986
sS'575748257818804224'
p987
S'not_related_or_irrelevant'
p988
sS'575783628153733121'
p989
S'not_related_or_irrelevant'
p990
sS'575763182557466624'
p991
S'not_related_or_irrelevant'
p992
sS'575744203646365696'
p993
S'not_related_or_irrelevant'
p994
sS'575743098766098432'
p995
S'infrastructure_and_utilities_damage'
p996
sS'575741183403638785'
p997
S'other_useful_information'
p998
sS'575753077304791040'
p999
S'not_related_or_irrelevant'
p1000
sS'575771701599866880'
p1001
S'not_related_or_irrelevant'
p1002
sS'575769201454903296'
p1003
S'other_useful_information'
p1004
sS'575740280466464768'
p1005
S'not_related_or_irrelevant'
p1006
sS'575754300825149440'
p1007
S'not_related_or_irrelevant'
p1008
sS'575756490079870977'
p1009
S'caution_and_advice'
p1010
sS'575751155092975618'
p1011
S'donation_needs_or_offers_or_volunteering_services'
p1012
sS'575769453851365376'
p1013
S'displaced_people_and_evacuations'
p1014
sS'575787074097274880'
p1015
S'other_useful_information'
p1016
sS'575751618395795456'
p1017
S'not_related_or_irrelevant'
p1018
sS'575738837051174913'
p1019
S'sympathy_and_emotional_support'
p1020
sS'575771909712781312'
p1021
S'not_related_or_irrelevant'
p1022
sS'575740677910212608'
p1023
S'infrastructure_and_utilities_damage'
p1024
sS'575772816622022657'
p1025
S'other_useful_information'
p1026
sS'575789629007261696'
p1027
S'infrastructure_and_utilities_damage'
p1028
sS'575787941659721728'
p1029
S'donation_needs_or_offers_or_volunteering_services'
p1030
sS'575875141734793217'
p1031
S'infrastructure_and_utilities_damage'
p1032
sS'575782241231618048'
p1033
S'sympathy_and_emotional_support'
p1034
sS'575786188897935361'
p1035
S'sympathy_and_emotional_support'
p1036
sS'575769450441404417'
p1037
S'not_related_or_irrelevant'
p1038
sS'575753249829052418'
p1039
S'not_related_or_irrelevant'
p1040
sS'575740504421220352'
p1041
S'donation_needs_or_offers_or_volunteering_services'
p1042
sS'575787488188440576'
p1043
S'missing_trapped_or_found_people'
p1044
sS'575751071336906752'
p1045
S'infrastructure_and_utilities_damage'
p1046
sS'575760057138221056'
p1047
S'donation_needs_or_offers_or_volunteering_services'
p1048
sS'575800272972206080'
p1049
S'not_related_or_irrelevant'
p1050
sS'575797496678629376'
p1051
S'not_related_or_irrelevant'
p1052
sS'575794878203957248'
p1053
S'donation_needs_or_offers_or_volunteering_services'
p1054
sS'575787728165605377'
p1055
S'donation_needs_or_offers_or_volunteering_services'
p1056
sS'575780822545883137'
p1057
S'injured_or_dead_people'
p1058
sS'575751221375541250'
p1059
S'infrastructure_and_utilities_damage'
p1060
sS'575740525602455552'
p1061
S'donation_needs_or_offers_or_volunteering_services'
p1062
sS'575765488631939072'
p1063
S'not_related_or_irrelevant'
p1064
sS'575765793255915522'
p1065
S'injured_or_dead_people'
p1066
sS'575742437664010243'
p1067
S'other_useful_information'
p1068
sS'575780730137018368'
p1069
S'other_useful_information'
p1070
sS'575772941503193088'
p1071
S'sympathy_and_emotional_support'
p1072
sS'575769560214732800'
p1073
S'other_useful_information'
p1074
sS'575746988949573632'
p1075
S'donation_needs_or_offers_or_volunteering_services'
p1076
sS'575795450344685569'
p1077
S'donation_needs_or_offers_or_volunteering_services'
p1078
sS'575773313168842752'
p1079
S'not_related_or_irrelevant'
p1080
sS'575769195440250880'
p1081
S'infrastructure_and_utilities_damage'
p1082
sS'575753103854731265'
p1083
S'injured_or_dead_people'
p1084
sS'575785108784816129'
p1085
S'infrastructure_and_utilities_damage'
p1086
sS'575757291787395072'
p1087
S'other_useful_information'
p1088
sS'575789819969814528'
p1089
S'donation_needs_or_offers_or_volunteering_services'
p1090
sS'575736544465580033'
p1091
S'infrastructure_and_utilities_damage'
p1092
sS'575742581285453824'
p1093
S'donation_needs_or_offers_or_volunteering_services'
p1094
sS'575765941872537601'
p1095
S'not_related_or_irrelevant'
p1096
sS'575769576949972993'
p1097
S'not_related_or_irrelevant'
p1098
sS'575750161575469056'
p1099
S'not_related_or_irrelevant'
p1100
sS'575753770405134336'
p1101
S'other_useful_information'
p1102
sS'575791602808967168'
p1103
S'other_useful_information'
p1104
sS'575759657559572480'
p1105
S'injured_or_dead_people'
p1106
sS'575740694666440704'
p1107
S'injured_or_dead_people'
p1108
sS'575750671418396672'
p1109
S'donation_needs_or_offers_or_volunteering_services'
p1110
sS'575743426794242048'
p1111
S'not_related_or_irrelevant'
p1112
sS'575779164529143808'
p1113
S'infrastructure_and_utilities_damage'
p1114
sS'575740627779891200'
p1115
S'other_useful_information'
p1116
sS'575748636111421440'
p1117
S'not_related_or_irrelevant'
p1118
sS'575740634897588224'
p1119
S'donation_needs_or_offers_or_volunteering_services'
p1120
sS'575780930276696064'
p1121
S'donation_needs_or_offers_or_volunteering_services'
p1122
sS'575770442323001346'
p1123
S'not_related_or_irrelevant'
p1124
sS'575782764831711232'
p1125
S'not_related_or_irrelevant'
p1126
sS'575792351068561410'
p1127
S'donation_needs_or_offers_or_volunteering_services'
p1128
sS'575765865959809024'
p1129
S'infrastructure_and_utilities_damage'
p1130
sS'575756703402065920'
p1131
S'not_related_or_irrelevant'
p1132
sS'575745573015302144'
p1133
S'other_useful_information'
p1134
sS'575742414763073537'
p1135
S'donation_needs_or_offers_or_volunteering_services'
p1136
sS'575754416478814209'
p1137
S'not_related_or_irrelevant'
p1138
sS'575740507009105920'
p1139
S'caution_and_advice'
p1140
sS'575740626077003776'
p1141
S'not_related_or_irrelevant'
p1142
sS'575739031738146818'
p1143
S'donation_needs_or_offers_or_volunteering_services'
p1144
sS'575769526790324224'
p1145
S'not_related_or_irrelevant'
p1146
sS'575753106849427456'
p1147
S'infrastructure_and_utilities_damage'
p1148
sS'575745012698316801'
p1149
S'donation_needs_or_offers_or_volunteering_services'
p1150
sS'575799683286618113'
p1151
S'other_useful_information'
p1152
sS'575769260082925568'
p1153
S'donation_needs_or_offers_or_volunteering_services'
p1154
sS'575768727720828928'
p1155
S'displaced_people_and_evacuations'
p1156
sS'575769506271768577'
p1157
S'other_useful_information'
p1158
sS'575740333805453314'
p1159
S'infrastructure_and_utilities_damage'
p1160
sS'575773641012445184'
p1161
S'other_useful_information'
p1162
sS'575767038544715776'
p1163
S'infrastructure_and_utilities_damage'
p1164
sS'575772647310639105'
p1165
S'not_related_or_irrelevant'
p1166
sS'575736273350098944'
p1167
S'not_related_or_irrelevant'
p1168
sS'575741426706874369'
p1169
S'other_useful_information'
p1170
sS'575795106764210176'
p1171
S'infrastructure_and_utilities_damage'
p1172
sS'575779670123216896'
p1173
S'other_useful_information'
p1174
sS'575753011588370435'
p1175
S'caution_and_advice'
p1176
sS'575784553517707264'
p1177
S'not_related_or_irrelevant'
p1178
sS'575792267144785920'
p1179
S'donation_needs_or_offers_or_volunteering_services'
p1180
sS'575794727787741184'
p1181
S'other_useful_information'
p1182
sS'575914148166377473'
p1183
S'donation_needs_or_offers_or_volunteering_services'
p1184
sS'575753237619433473'
p1185
S'other_useful_information'
p1186
sS'575793615013867521'
p1187
S'donation_needs_or_offers_or_volunteering_services'
p1188
sS'575769245121826816'
p1189
S'sympathy_and_emotional_support'
p1190
sS'575739466649731074'
p1191
S'injured_or_dead_people'
p1192
sS'575774295818919936'
p1193
S'not_related_or_irrelevant'
p1194
sS'575796241461813248'
p1195
S'other_useful_information'
p1196
sS'575757701046665216'
p1197
S'not_related_or_irrelevant'
p1198
sS'575766797510541314'
p1199
S'caution_and_advice'
p1200
sS'575753069176221696'
p1201
S'not_related_or_irrelevant'
p1202
sS'575769529134944256'
p1203
S'donation_needs_or_offers_or_volunteering_services'
p1204
sS'575771145825226752'
p1205
S'other_useful_information'
p1206
sS'575755132920590337'
p1207
S'not_related_or_irrelevant'
p1208
sS'575789283610529792'
p1209
S'other_useful_information'
p1210
sS'575767121931673603'
p1211
S'not_related_or_irrelevant'
p1212
sS'575764440701739008'
p1213
S'other_useful_information'
p1214
sS'575745567042576385'
p1215
S'sympathy_and_emotional_support'
p1216
sS'575753463574962176'
p1217
S'not_related_or_irrelevant'
p1218
sS'575753153708228608'
p1219
S'infrastructure_and_utilities_damage'
p1220
sS'575781032147857409'
p1221
S'donation_needs_or_offers_or_volunteering_services'
p1222
sS'575756766610386945'
p1223
S'not_related_or_irrelevant'
p1224
sS'575771524143022080'
p1225
S'not_related_or_irrelevant'
p1226
sS'575782358969769985'
p1227
S'not_related_or_irrelevant'
p1228
sS'575771082713526272'
p1229
S'donation_needs_or_offers_or_volunteering_services'
p1230
sS'575750360486273024'
p1231
S'injured_or_dead_people'
p1232
sS'575796477982867456'
p1233
S'not_related_or_irrelevant'
p1234
sS'575796661802418176'
p1235
S'not_related_or_irrelevant'
p1236
sS'575769496268378112'
p1237
S'not_related_or_irrelevant'
p1238
sS'575778760999350272'
p1239
S'other_useful_information'
p1240
sS'575764452265480192'
p1241
S'not_related_or_irrelevant'
p1242
sS'575786139442802690'
p1243
S'not_related_or_irrelevant'
p1244
sS'575760340815736832'
p1245
S'other_useful_information'
p1246
sS'575797158470885376'
p1247
S'sympathy_and_emotional_support'
p1248
sS'575753402443022336'
p1249
S'not_related_or_irrelevant'
p1250
sS'575780050378842113'
p1251
S'donation_needs_or_offers_or_volunteering_services'
p1252
sS'575792452755308544'
p1253
S'not_related_or_irrelevant'
p1254
sS'575776595350134784'
p1255
S'caution_and_advice'
p1256
sS'575784266749075456'
p1257
S'caution_and_advice'
p1258
sS'575770537516912640'
p1259
S'not_related_or_irrelevant'
p1260
sS'575741480926494720'
p1261
S'missing_trapped_or_found_people'
p1262
sS'575789450355085312'
p1263
S'sympathy_and_emotional_support'
p1264
sS'575775892926042113'
p1265
S'other_useful_information'
p1266
sS'575784199497519104'
p1267
S'donation_needs_or_offers_or_volunteering_services'
p1268
sS'575800476077277184'
p1269
S'sympathy_and_emotional_support'
p1270
sS'575778488482938880'
p1271
S'not_related_or_irrelevant'
p1272
sS'575763521939472384'
p1273
S'not_related_or_irrelevant'
p1274
sS'575753304917024769'
p1275
S'not_related_or_irrelevant'
p1276
sS'575771167631413248'
p1277
S'not_related_or_irrelevant'
p1278
sS'575753191834402816'
p1279
S'not_related_or_irrelevant'
p1280
sS'575763943748202497'
p1281
S'not_related_or_irrelevant'
p1282
sS'575738883448664064'
p1283
S'infrastructure_and_utilities_damage'
p1284
sS'575768082087440384'
p1285
S'donation_needs_or_offers_or_volunteering_services'
p1286
sS'575755589286031360'
p1287
S'donation_needs_or_offers_or_volunteering_services'
p1288
sS'575788707632054272'
p1289
S'other_useful_information'
p1290
sS'575787300086382592'
p1291
S'other_useful_information'
p1292
sS'575771531738906624'
p1293
S'not_related_or_irrelevant'
p1294
sS'575789494558810112'
p1295
S'donation_needs_or_offers_or_volunteering_services'
p1296
sS'575740624650948608'
p1297
S'not_related_or_irrelevant'
p1298
sS'575785762626605056'
p1299
S'not_related_or_irrelevant'
p1300
sS'575788314021638144'
p1301
S'other_useful_information'
p1302
sS'575774349208207361'
p1303
S'donation_needs_or_offers_or_volunteering_services'
p1304
sS'575785281116241920'
p1305
S'not_related_or_irrelevant'
p1306
sS'575751724050178048'
p1307
S'other_useful_information'
p1308
sS'575741993843888129'
p1309
S'injured_or_dead_people'
p1310
sS'575740031933022209'
p1311
S'not_related_or_irrelevant'
p1312
sS'575769230215266304'
p1313
S'infrastructure_and_utilities_damage'
p1314
sS'575740634943778816'
p1315
S'other_useful_information'
p1316
sS'575786542817406976'
p1317
S'not_related_or_irrelevant'
p1318
sS'575785714865999873'
p1319
S'donation_needs_or_offers_or_volunteering_services'
p1320
sS'575794038852354049'
p1321
S'injured_or_dead_people'
p1322
sS'575739460580548608'
p1323
S'other_useful_information'
p1324
sS'575753143054647298'
p1325
S'donation_needs_or_offers_or_volunteering_services'
p1326
sS'575794807081070594'
p1327
S'injured_or_dead_people'
p1328
sS'575745939928825856'
p1329
S'caution_and_advice'
p1330
sS'575745613674909696'
p1331
S'donation_needs_or_offers_or_volunteering_services'
p1332
sS'575784844560572416'
p1333
S'injured_or_dead_people'
p1334
sS'575770908725354498'
p1335
S'donation_needs_or_offers_or_volunteering_services'
p1336
sS'575791777237590016'
p1337
S'other_useful_information'
p1338
sS'575770431828836352'
p1339
S'other_useful_information'
p1340
sS'575765219823104000'
p1341
S'not_related_or_irrelevant'
p1342
sS'575769054738186240'
p1343
S'donation_needs_or_offers_or_volunteering_services'
p1344
sS'575740528920125440'
p1345
S'other_useful_information'
p1346
sS'575753223144865793'
p1347
S'donation_needs_or_offers_or_volunteering_services'
p1348
sS'575751896972988417'
p1349
S'donation_needs_or_offers_or_volunteering_services'
p1350
sS'575768676764356609'
p1351
S'other_useful_information'
p1352
sS'575761186102235137'
p1353
S'displaced_people_and_evacuations'
p1354
sS'575769494938746880'
p1355
S'infrastructure_and_utilities_damage'
p1356
sS'575740536218259456'
p1357
S'infrastructure_and_utilities_damage'
p1358
sS'575787728903630848'
p1359
S'other_useful_information'
p1360
sS'575765777049088000'
p1361
S'not_related_or_irrelevant'
p1362
sS'575776534499209217'
p1363
S'injured_or_dead_people'
p1364
sS'575772481807499264'
p1365
S'sympathy_and_emotional_support'
p1366
sS'575778282840309760'
p1367
S'not_related_or_irrelevant'
p1368
sS'575753302241050625'
p1369
S'caution_and_advice'
p1370
sS'575784186306510848'
p1371
S'donation_needs_or_offers_or_volunteering_services'
p1372
sS'575738314856120320'
p1373
S'donation_needs_or_offers_or_volunteering_services'
p1374
sS'575772728931672064'
p1375
S'not_related_or_irrelevant'
p1376
sS'575760616805134336'
p1377
S'other_useful_information'
p1378
sS'575752500571213824'
p1379
S'not_related_or_irrelevant'
p1380
sS'575769606981218304'
p1381
S'donation_needs_or_offers_or_volunteering_services'
p1382
sS'575752708876980224'
p1383
S'missing_trapped_or_found_people'
p1384
sS'575770471662141441'
p1385
S'infrastructure_and_utilities_damage'
p1386
sS'575795948284043264'
p1387
S'donation_needs_or_offers_or_volunteering_services'
p1388
sS'575751685978595329'
p1389
S'donation_needs_or_offers_or_volunteering_services'
p1390
sS'575797947289354240'
p1391
S'other_useful_information'
p1392
sS'575737866698911745'
p1393
S'donation_needs_or_offers_or_volunteering_services'
p1394
sS'575759537149382656'
p1395
S'other_useful_information'
p1396
sS'575797101910609920'
p1397
S'not_related_or_irrelevant'
p1398
sS'575740619076714496'
p1399
S'donation_needs_or_offers_or_volunteering_services'
p1400
sS'575784635424182272'
p1401
S'not_related_or_irrelevant'
p1402
sS'575786452157526016'
p1403
S'infrastructure_and_utilities_damage'
p1404
sS'575796220347727873'
p1405
S'infrastructure_and_utilities_damage'
p1406
sS'575769595614621696'
p1407
S'injured_or_dead_people'
p1408
sS'575773774621995008'
p1409
S'not_related_or_irrelevant'
p1410
sS'575788765374996481'
p1411
S'donation_needs_or_offers_or_volunteering_services'
p1412
sS'575753321715253248'
p1413
S'not_related_or_irrelevant'
p1414
sS'575745008814325760'
p1415
S'donation_needs_or_offers_or_volunteering_services'
p1416
sS'575773859367944192'
p1417
S'other_useful_information'
p1418
sS'575769241279799296'
p1419
S'missing_trapped_or_found_people'
p1420
sS'575755009565986816'
p1421
S'donation_needs_or_offers_or_volunteering_services'
p1422
sS'575758803699900416'
p1423
S'infrastructure_and_utilities_damage'
p1424
sS'575790003340509184'
p1425
S'not_related_or_irrelevant'
p1426
sS'575784813896069121'
p1427
S'not_related_or_irrelevant'
p1428
sS'575779438031323136'
p1429
S'donation_needs_or_offers_or_volunteering_services'
p1430
sS'575740521349435393'
p1431
S'other_useful_information'
p1432
sS'575753152407846912'
p1433
S'other_useful_information'
p1434
sS'575740974032285697'
p1435
S'caution_and_advice'
p1436
sS'575745187927879680'
p1437
S'other_useful_information'
p1438
sS'575735721744449536'
p1439
S'other_useful_information'
p1440
sS'575769459845033984'
p1441
S'other_useful_information'
p1442
sS'575770469623726080'
p1443
S'other_useful_information'
p1444
sS'575740616883093504'
p1445
S'donation_needs_or_offers_or_volunteering_services'
p1446
sS'575764527813300225'
p1447
S'not_related_or_irrelevant'
p1448
sS'575800027341328384'
p1449
S'other_useful_information'
p1450
sS'575769579302969344'
p1451
S'not_related_or_irrelevant'
p1452
sS'575788283705233408'
p1453
S'other_useful_information'
p1454
sS'575778689432031232'
p1455
S'other_useful_information'
p1456
sS'575788179443220480'
p1457
S'other_useful_information'
p1458
sS'575778252892979201'
p1459
S'donation_needs_or_offers_or_volunteering_services'
p1460
sS'575761739544936448'
p1461
S'other_useful_information'
p1462
sS'575763112499941377'
p1463
S'caution_and_advice'
p1464
sS'575778857619439616'
p1465
S'not_related_or_irrelevant'
p1466
sS'575741510806806528'
p1467
S'infrastructure_and_utilities_damage'
p1468
sS'575753289276481537'
p1469
S'other_useful_information'
p1470
sS'575769468833374209'
p1471
S'injured_or_dead_people'
p1472
sS'575772194023694337'
p1473
S'other_useful_information'
p1474
sS'575736076087644160'
p1475
S'other_useful_information'
p1476
sS'575767412433252352'
p1477
S'not_related_or_irrelevant'
p1478
sS'575775065440055296'
p1479
S'other_useful_information'
p1480
sS'575752667240271872'
p1481
S'not_related_or_irrelevant'
p1482
sS'575778756570165248'
p1483
S'not_related_or_irrelevant'
p1484
sS'575740499987824640'
p1485
S'donation_needs_or_offers_or_volunteering_services'
p1486
sS'575751981895041024'
p1487
S'other_useful_information'
p1488
sS'575744838810796032'
p1489
S'other_useful_information'
p1490
sS'575738693471834112'
p1491
S'caution_and_advice'
p1492
sS'575737015599259648'
p1493
S'donation_needs_or_offers_or_volunteering_services'
p1494
sS'575770549231575040'
p1495
S'donation_needs_or_offers_or_volunteering_services'
p1496
sS'575749129038594048'
p1497
S'donation_needs_or_offers_or_volunteering_services'
p1498
sS'575778951672524801'
p1499
S'infrastructure_and_utilities_damage'
p1500
sS'575776013361156096'
p1501
S'other_useful_information'
p1502
sS'575769566585823232'
p1503
S'infrastructure_and_utilities_damage'
p1504
sS'575776377384800256'
p1505
S'other_useful_information'
p1506
sS'575782344163913728'
p1507
S'displaced_people_and_evacuations'
p1508
sS'575786888176496640'
p1509
S'other_useful_information'
p1510
sS'575796586715955202'
p1511
S'other_useful_information'
p1512
sS'575740507524984833'
p1513
S'donation_needs_or_offers_or_volunteering_services'
p1514
sS'575740673434873856'
p1515
S'other_useful_information'
p1516
sS'575762834379902976'
p1517
S'injured_or_dead_people'
p1518
sS'575782604479270912'
p1519
S'sympathy_and_emotional_support'
p1520
sS'575769957012783104'
p1521
S'not_related_or_irrelevant'
p1522
sS'575740691025817600'
p1523
S'infrastructure_and_utilities_damage'
p1524
sS'575747888443101185'
p1525
S'infrastructure_and_utilities_damage'
p1526
sS'575795880785154048'
p1527
S'other_useful_information'
p1528
sS'575749040685580288'
p1529
S'other_useful_information'
p1530
sS'575777017070624768'
p1531
S'caution_and_advice'
p1532
sS'575743211353722882'
p1533
S'other_useful_information'
p1534
sS'575790969330651137'
p1535
S'donation_needs_or_offers_or_volunteering_services'
p1536
sS'575780641733767168'
p1537
S'not_related_or_irrelevant'
p1538
sS'575766892180197377'
p1539
S'other_useful_information'
p1540
sS'575740616899891200'
p1541
S'other_useful_information'
p1542
sS'575746817675116545'
p1543
S'donation_needs_or_offers_or_volunteering_services'
p1544
sS'575785393531940864'
p1545
S'not_related_or_irrelevant'
p1546
sS'575763984629899265'
p1547
S'infrastructure_and_utilities_damage'
p1548
sS'575775973506863104'
p1549
S'other_useful_information'
p1550
sS'575782214505357312'
p1551
S'other_useful_information'
p1552
sS'575784333606154240'
p1553
S'other_useful_information'
p1554
sS'575769509983707136'
p1555
S'not_related_or_irrelevant'
p1556
sS'575740639779794946'
p1557
S'donation_needs_or_offers_or_volunteering_services'
p1558
sS'575784496668213248'
p1559
S'other_useful_information'
p1560
sS'575787462729035776'
p1561
S'not_related_or_irrelevant'
p1562
sS'575799422652661760'
p1563
S'not_related_or_irrelevant'
p1564
sS'575743165484830721'
p1565
S'other_useful_information'
p1566
sS'575772969189908480'
p1567
S'other_useful_information'
p1568
sS'575764395071905792'
p1569
S'other_useful_information'
p1570
sS'575748659163348992'
p1571
S'not_related_or_irrelevant'
p1572
sS'575797255782924288'
p1573
S'not_related_or_irrelevant'
p1574
sS'575765732664938496'
p1575
S'other_useful_information'
p1576
sS'575753314421325824'
p1577
S'not_related_or_irrelevant'
p1578
sS'575776103337435136'
p1579
S'not_related_or_irrelevant'
p1580
sS'575771088816201728'
p1581
S'injured_or_dead_people'
p1582
sS'575800190029815810'
p1583
S'not_related_or_irrelevant'
p1584
sS'575751349494743041'
p1585
S'not_related_or_irrelevant'
p1586
sS'575745606389342208'
p1587
S'donation_needs_or_offers_or_volunteering_services'
p1588
sS'575753312257073153'
p1589
S'infrastructure_and_utilities_damage'
p1590
sS'575751829314748417'
p1591
S'caution_and_advice'
p1592
sS'575793009628938240'
p1593
S'infrastructure_and_utilities_damage'
p1594
sS'575738966130954240'
p1595
S'donation_needs_or_offers_or_volunteering_services'
p1596
sS'575784229675520001'
p1597
S'infrastructure_and_utilities_damage'
p1598
sS'575770769277366272'
p1599
S'not_related_or_irrelevant'
p1600
sS'575769454958661632'
p1601
S'infrastructure_and_utilities_damage'
p1602
sS'575739941076013057'
p1603
S'missing_trapped_or_found_people'
p1604
sS'575753427113938944'
p1605
S'other_useful_information'
p1606
sS'575777082548092929'
p1607
S'not_related_or_irrelevant'
p1608
sS'575762556222050304'
p1609
S'other_useful_information'
p1610
sS'575775147816194048'
p1611
S'displaced_people_and_evacuations'
p1612
sS'575799522409848833'
p1613
S'other_useful_information'
p1614
sS'575740502353428480'
p1615
S'donation_needs_or_offers_or_volunteering_services'
p1616
sS'575769434318446593'
p1617
S'sympathy_and_emotional_support'
p1618
sS'575784269768949760'
p1619
S'infrastructure_and_utilities_damage'
p1620
sS'575800367536955392'
p1621
S'displaced_people_and_evacuations'
p1622
sS'575753422093336578'
p1623
S'other_useful_information'
p1624
sS'575788935227576320'
p1625
S'infrastructure_and_utilities_damage'
p1626
sS'575740536864120832'
p1627
S'other_useful_information'
p1628
sS'575794708741382144'
p1629
S'displaced_people_and_evacuations'
p1630
sS'575769512605167616'
p1631
S'displaced_people_and_evacuations'
p1632
sS'575765891259871232'
p1633
S'injured_or_dead_people'
p1634
sS'575745587921858560'
p1635
S'other_useful_information'
p1636
sS'575770473981595648'
p1637
S'infrastructure_and_utilities_damage'
p1638
sS'575784287724781568'
p1639
S'other_useful_information'
p1640
sS'575770631968423936'
p1641
S'not_related_or_irrelevant'
p1642
sS'575740523920535553'
p1643
S'donation_needs_or_offers_or_volunteering_services'
p1644
sS'575796817889263616'
p1645
S'infrastructure_and_utilities_damage'
p1646
sS'575792808130256896'
p1647
S'missing_trapped_or_found_people'
p1648
sS'575770467492986880'
p1649
S'donation_needs_or_offers_or_volunteering_services'
p1650
sS'575791593506086912'
p1651
S'infrastructure_and_utilities_damage'
p1652
sS'575769565524684800'
p1653
S'other_useful_information'
p1654
sS'575756286660251648'
p1655
S'not_related_or_irrelevant'
p1656
sS'575794531133583360'
p1657
S'other_useful_information'
p1658
sS'575759118415175680'
p1659
S'not_related_or_irrelevant'
p1660
sS'575781043317276673'
p1661
S'sympathy_and_emotional_support'
p1662
sS'575762251929419777'
p1663
S'donation_needs_or_offers_or_volunteering_services'
p1664
sS'575771197876477952'
p1665
S'donation_needs_or_offers_or_volunteering_services'
p1666
sS'575757898409775104'
p1667
S'sympathy_and_emotional_support'
p1668
sS'575762805892124672'
p1669
S'not_related_or_irrelevant'
p1670
sS'575793654461128704'
p1671
S'not_related_or_irrelevant'
p1672
sS'575787099930017793'
p1673
S'not_related_or_irrelevant'
p1674
sS'575750054943854593'
p1675
S'infrastructure_and_utilities_damage'
p1676
sS'575790397491834881'
p1677
S'not_related_or_irrelevant'
p1678
sS'575769207637327872'
p1679
S'not_related_or_irrelevant'
p1680
sS'575753217860059136'
p1681
S'injured_or_dead_people'
p1682
sS'575769186451910656'
p1683
S'sympathy_and_emotional_support'
p1684
sS'575751479950077952'
p1685
S'donation_needs_or_offers_or_volunteering_services'
p1686
sS'575777675320672256'
p1687
S'not_related_or_irrelevant'
p1688
sS'575783808361852928'
p1689
S'other_useful_information'
p1690
sS'575763467090579457'
p1691
S'not_related_or_irrelevant'
p1692
sS'575751854220439552'
p1693
S'injured_or_dead_people'
p1694
sS'575771709170561024'
p1695
S'other_useful_information'
p1696
sS'575769584550064128'
p1697
S'other_useful_information'
p1698
sS'575742258722512896'
p1699
S'other_useful_information'
p1700
sS'575745578258161664'
p1701
S'other_useful_information'
p1702
sS'575774605341630465'
p1703
S'other_useful_information'
p1704
sS'575769436457578496'
p1705
S'infrastructure_and_utilities_damage'
p1706
sS'575795340349059072'
p1707
S'caution_and_advice'
p1708
sS'575793528044961792'
p1709
S'not_related_or_irrelevant'
p1710
sS'575753213716094977'
p1711
S'injured_or_dead_people'
p1712
sS'575786953007726592'
p1713
S'not_related_or_irrelevant'
p1714
sS'575758605116440577'
p1715
S'caution_and_advice'
p1716
sS'575740521890476032'
p1717
S'donation_needs_or_offers_or_volunteering_services'
p1718
sS'575744091402715136'
p1719
S'not_related_or_irrelevant'
p1720
sS'575740529889050625'
p1721
S'infrastructure_and_utilities_damage'
p1722
sS'575776395982405633'
p1723
S'other_useful_information'
p1724
sS'575740280193740800'
p1725
S'infrastructure_and_utilities_damage'
p1726
sS'575769225798639616'
p1727
S'other_useful_information'
p1728
sS'575790710240100352'
p1729
S'other_useful_information'
p1730
sS'575747097754005504'
p1731
S'caution_and_advice'
p1732
sS'575753109579956224'
p1733
S'infrastructure_and_utilities_damage'
p1734
sS'575788041626763266'
p1735
S'not_related_or_irrelevant'
p1736
sS'575753309505585152'
p1737
S'other_useful_information'
p1738
sS'575753172129562624'
p1739
S'donation_needs_or_offers_or_volunteering_services'
p1740
sS'575759140989104128'
p1741
S'other_useful_information'
p1742
sS'575739263288877057'
p1743
S'not_related_or_irrelevant'
p1744
sS'575753335992639488'
p1745
S'other_useful_information'
p1746
sS'575766236321030144'
p1747
S'other_useful_information'
p1748
sS'575755234133180417'
p1749
S'not_related_or_irrelevant'
p1750
sS'575762443743399936'
p1751
S'injured_or_dead_people'
p1752
sS'575772363926695936'
p1753
S'donation_needs_or_offers_or_volunteering_services'
p1754
sS'575769464173518849'
p1755
S'not_related_or_irrelevant'
p1756
sS'575740627108823040'
p1757
S'other_useful_information'
p1758
sS'575738734802432001'
p1759
S'sympathy_and_emotional_support'
p1760
sS'575769495639228416'
p1761
S'not_related_or_irrelevant'
p1762
sS'575781103799140352'
p1763
S'other_useful_information'
p1764
sS'575771752871014401'
p1765
S'donation_needs_or_offers_or_volunteering_services'
p1766
sS'575745927568211968'
p1767
S'not_related_or_irrelevant'
p1768
sS'575780821618966528'
p1769
S'infrastructure_and_utilities_damage'
p1770
sS'575772798385160193'
p1771
S'not_related_or_irrelevant'
p1772
sS'575784635633827840'
p1773
S'donation_needs_or_offers_or_volunteering_services'
p1774
sS'575769458762866688'
p1775
S'not_related_or_irrelevant'
p1776
sS'575744254510788608'
p1777
S'other_useful_information'
p1778
sS'575737269291716609'
p1779
S'caution_and_advice'
p1780
sS'575769637985517568'
p1781
S'other_useful_information'
p1782
sS'575783084139769857'
p1783
S'sympathy_and_emotional_support'
p1784
sS'575769572394987521'
p1785
S'not_related_or_irrelevant'
p1786
sS'575796220733448192'
p1787
S'other_useful_information'
p1788
sS'575740630866862080'
p1789
S'sympathy_and_emotional_support'
p1790
sS'575753200395010048'
p1791
S'other_useful_information'
p1792
sS'575790737792462848'
p1793
S'injured_or_dead_people'
p1794
sS'575736147046834176'
p1795
S'infrastructure_and_utilities_damage'
p1796
sS'575769454228860928'
p1797
S'infrastructure_and_utilities_damage'
p1798
sS'575768069852774401'
p1799
S'other_useful_information'
p1800
sS'575748788905734145'
p1801
S'donation_needs_or_offers_or_volunteering_services'
p1802
sS'575753264899231744'
p1803
S'not_related_or_irrelevant'
p1804
sS'575788320262770688'
p1805
S'other_useful_information'
p1806
sS'575753271685615616'
p1807
S'donation_needs_or_offers_or_volunteering_services'
p1808
sS'575761570732580865'
p1809
S'other_useful_information'
p1810
sS'575752344211714048'
p1811
S'not_related_or_irrelevant'
p1812
sS'575769536038768640'
p1813
S'not_related_or_irrelevant'
p1814
sS'575781534575255552'
p1815
S'not_related_or_irrelevant'
p1816
sS'575752014115770369'
p1817
S'caution_and_advice'
p1818
sS'575745583593320449'
p1819
S'not_related_or_irrelevant'
p1820
sS'575738183197069312'
p1821
S'other_useful_information'
p1822
sS'575765126726443008'
p1823
S'other_useful_information'
p1824
sS'575783560986030080'
p1825
S'not_related_or_irrelevant'
p1826
sS'575769648865611776'
p1827
S'other_useful_information'
p1828
sS'575786763798499328'
p1829
S'other_useful_information'
p1830
sS'575766952121004033'
p1831
S'not_related_or_irrelevant'
p1832
sS'575794656790900736'
p1833
S'donation_needs_or_offers_or_volunteering_services'
p1834
sS'575750140255846400'
p1835
S'other_useful_information'
p1836
sS'575766764312793088'
p1837
S'donation_needs_or_offers_or_volunteering_services'
p1838
sS'575754805114716160'
p1839
S'donation_needs_or_offers_or_volunteering_services'
p1840
sS'575778060814786560'
p1841
S'infrastructure_and_utilities_damage'
p1842
sS'575740590685454336'
p1843
S'donation_needs_or_offers_or_volunteering_services'
p1844
sS'575743805443432448'
p1845
S'other_useful_information'
p1846
sS'575769989757542401'
p1847
S'not_related_or_irrelevant'
p1848
sS'575760307320049664'
p1849
S'donation_needs_or_offers_or_volunteering_services'
p1850
sS'575771075499307008'
p1851
S'not_related_or_irrelevant'
p1852
sS'575759169556381696'
p1853
S'injured_or_dead_people'
p1854
sS'575767475557658624'
p1855
S'caution_and_advice'
p1856
sS'575755407131590657'
p1857
S'injured_or_dead_people'
p1858
sS'575737966582108161'
p1859
S'not_related_or_irrelevant'
p1860
sS'575771091026644992'
p1861
S'other_useful_information'
p1862
sS'575748476992102401'
p1863
S'other_useful_information'
p1864
sS'575789454876667904'
p1865
S'not_related_or_irrelevant'
p1866
sS'575800046198747136'
p1867
S'other_useful_information'
p1868
sS'575752561497604096'
p1869
S'donation_needs_or_offers_or_volunteering_services'
p1870
sS'575767596739358720'
p1871
S'sympathy_and_emotional_support'
p1872
sS'575759905694466048'
p1873
S'other_useful_information'
p1874
sS'575779476841299968'
p1875
S'other_useful_information'
p1876
sS'575737842325929984'
p1877
S'donation_needs_or_offers_or_volunteering_services'
p1878
sS'575784431882887168'
p1879
S'not_related_or_irrelevant'
p1880
sS'575753240073093120'
p1881
S'donation_needs_or_offers_or_volunteering_services'
p1882
sS'575790927853305857'
p1883
S'donation_needs_or_offers_or_volunteering_services'
p1884
sS'575765290681823232'
p1885
S'not_related_or_irrelevant'
p1886
sS'575765131994468352'
p1887
S'donation_needs_or_offers_or_volunteering_services'
p1888
sS'575771286837837824'
p1889
S'displaced_people_and_evacuations'
p1890
sS'575753395438501889'
p1891
S'not_related_or_irrelevant'
p1892
sS'575775769256833025'
p1893
S'donation_needs_or_offers_or_volunteering_services'
p1894
sS'575765553677099009'
p1895
S'not_related_or_irrelevant'
p1896
sS'575769450059669504'
p1897
S'donation_needs_or_offers_or_volunteering_services'
p1898
sS'575776946941882368'
p1899
S'other_useful_information'
p1900
sS'575760307324252161'
p1901
S'donation_needs_or_offers_or_volunteering_services'
p1902
sS'575786507073667072'
p1903
S'not_related_or_irrelevant'
p1904
sS'575769227002572800'
p1905
S'not_related_or_irrelevant'
p1906
sS'575755906635313154'
p1907
S'not_related_or_irrelevant'
p1908
sS'575798703195213824'
p1909
S'sympathy_and_emotional_support'
p1910
sS'575771147196764163'
p1911
S'caution_and_advice'
p1912
sS'575769611947261952'
p1913
S'other_useful_information'
p1914
sS'575736502006603776'
p1915
S'injured_or_dead_people'
p1916
sS'575786787630616576'
p1917
S'infrastructure_and_utilities_damage'
p1918
sS'575756948525600768'
p1919
S'donation_needs_or_offers_or_volunteering_services'
p1920
sS'575786061504233473'
p1921
S'caution_and_advice'
p1922
sS'575750898116333568'
p1923
S'not_related_or_irrelevant'
p1924
sS'575777307807379456'
p1925
S'infrastructure_and_utilities_damage'
p1926
sS'575771140011900928'
p1927
S'other_useful_information'
p1928
sS'575765580940210177'
p1929
S'other_useful_information'
p1930
sS'575753398177435649'
p1931
S'donation_needs_or_offers_or_volunteering_services'
p1932
sS'575768098994806785'
p1933
S'infrastructure_and_utilities_damage'
p1934
sS'575786704650502144'
p1935
S'donation_needs_or_offers_or_volunteering_services'
p1936
sS'575796284709208064'
p1937
S'not_related_or_irrelevant'
p1938
sS'575743445697892352'
p1939
S'not_related_or_irrelevant'
p1940
sS'575797975148007424'
p1941
S'caution_and_advice'
p1942
sS'575757409118896128'
p1943
S'other_useful_information'
p1944
sS'575770469976047616'
p1945
S'infrastructure_and_utilities_damage'
p1946
sS'575740641138749440'
p1947
S'donation_needs_or_offers_or_volunteering_services'
p1948
sS'575775039829581825'
p1949
S'other_useful_information'
p1950
sS'575842316755288064'
p1951
S'donation_needs_or_offers_or_volunteering_services'
p1952
sS'575776883322675201'
p1953
S'other_useful_information'
p1954
sS'575771246475894784'
p1955
S'donation_needs_or_offers_or_volunteering_services'
p1956
sS'575785371142914049'
p1957
S'other_useful_information'
p1958
sS'575769561749807104'
p1959
S'other_useful_information'
p1960
sS'575745195599335425'
p1961
S'other_useful_information'
p1962
sS'575784945853054976'
p1963
S'caution_and_advice'
p1964
sS'575749079889743875'
p1965
S'infrastructure_and_utilities_damage'
p1966
sS'575796653900324864'
p1967
S'not_related_or_irrelevant'
p1968
sS'575738832030560256'
p1969
S'other_useful_information'
p1970
sS'575772263913558017'
p1971
S'injured_or_dead_people'
p1972
sS'575742387604955137'
p1973
S'other_useful_information'
p1974
sS'575753267508088833'
p1975
S'not_related_or_irrelevant'
p1976
sS'575750854378004480'
p1977
S'donation_needs_or_offers_or_volunteering_services'
p1978
sS'575777285300576256'
p1979
S'infrastructure_and_utilities_damage'
p1980
sS'575753277268041729'
p1981
S'other_useful_information'
p1982
sS'575770467966959618'
p1983
S'caution_and_advice'
p1984
sS'575771466404249600'
p1985
S'not_related_or_irrelevant'
p1986
sS'575769452723097600'
p1987
S'other_useful_information'
p1988
sS'575757484104663040'
p1989
S'sympathy_and_emotional_support'
p1990
sS'575766251567362048'
p1991
S'donation_needs_or_offers_or_volunteering_services'
p1992
sS'575740622520238080'
p1993
S'other_useful_information'
p1994
sS'575773515565113344'
p1995
S'injured_or_dead_people'
p1996
sS'575787071983382530'
p1997
S'donation_needs_or_offers_or_volunteering_services'
p1998
sS'575769440689635328'
p1999
S'infrastructure_and_utilities_damage'
p2000
sS'575745579982020609'
p2001
S'not_related_or_irrelevant'
p2002
sS'575772725148454912'
p2003
S'injured_or_dead_people'
p2004
sS'575739040797884416'
p2005
S'injured_or_dead_people'
p2006
sS'575749441682030594'
p2007
S'not_related_or_irrelevant'
p2008
sS'575781538891063296'
p2009
S'caution_and_advice'
p2010
sS'575737716765159424'
p2011
S'injured_or_dead_people'
p2012
sS'575760859093323776'
p2013
S'other_useful_information'
p2014
sS'575750148569063424'
p2015
S'other_useful_information'
p2016
sS'575789204338270209'
p2017
S'injured_or_dead_people'
p2018
sS'575780413513334785'
p2019
S'displaced_people_and_evacuations'
p2020
sS'575776635556855808'
p2021
S'donation_needs_or_offers_or_volunteering_services'
p2022
sS'575742441384378370'
p2023
S'not_related_or_irrelevant'
p2024
sS'575753368775360512'
p2025
S'infrastructure_and_utilities_damage'
p2026
sS'575771137000390656'
p2027
S'donation_needs_or_offers_or_volunteering_services'
p2028
sS'575753444285374464'
p2029
S'infrastructure_and_utilities_damage'
p2030
sS'575780849871945729'
p2031
S'sympathy_and_emotional_support'
p2032
sS'575776071364317185'
p2033
S'donation_needs_or_offers_or_volunteering_services'
p2034
sS'575743513289084928'
p2035
S'other_useful_information'
p2036
sS'575742029747130368'
p2037
S'other_useful_information'
p2038
sS'575753210452918272'
p2039
S'other_useful_information'
p2040
sS'575769565428256768'
p2041
S'caution_and_advice'
p2042
sS'575785344739713024'
p2043
S'not_related_or_irrelevant'
p2044
sS'575775816451297280'
p2045
S'donation_needs_or_offers_or_volunteering_services'
p2046
sS'575781142353195008'
p2047
S'other_useful_information'
p2048
sS'575757977799430144'
p2049
S'donation_needs_or_offers_or_volunteering_services'
p2050
sS'575785318802153472'
p2051
S'other_useful_information'
p2052
sS'575771462893707264'
p2053
S'other_useful_information'
p2054
sS'575740923004354560'
p2055
S'infrastructure_and_utilities_damage'
p2056
sS'575791088427909120'
p2057
S'not_related_or_irrelevant'
p2058
sS'575755600526753792'
p2059
S'injured_or_dead_people'
p2060
sS'575784404578091008'
p2061
S'not_related_or_irrelevant'
p2062
sS'575765428212989952'
p2063
S'other_useful_information'
p2064
sS'575738463200350208'
p2065
S'caution_and_advice'
p2066
sS'575751847929053184'
p2067
S'donation_needs_or_offers_or_volunteering_services'
p2068
sS'575741882564804608'
p2069
S'other_useful_information'
p2070
sS'575769527813697536'
p2071
S'not_related_or_irrelevant'
p2072
sS'575781047436079104'
p2073
S'not_related_or_irrelevant'
p2074
sS'575740624411885569'
p2075
S'other_useful_information'
p2076
sS'575777262408179712'
p2077
S'caution_and_advice'
p2078
sS'575797591322943488'
p2079
S'injured_or_dead_people'
p2080
sS'575779313494007808'
p2081
S'displaced_people_and_evacuations'
p2082
sS'575742578978590722'
p2083
S'not_related_or_irrelevant'
p2084
sS'575741927443841024'
p2085
S'caution_and_advice'
p2086
sS'575745563217498112'
p2087
S'injured_or_dead_people'
p2088
sS'575753116638932992'
p2089
S'infrastructure_and_utilities_damage'
p2090
sS'575739038595833856'
p2091
S'donation_needs_or_offers_or_volunteering_services'
p2092
sS'575771362448556035'
p2093
S'other_useful_information'
p2094
sS'575798179054010368'
p2095
S'other_useful_information'
p2096
sS'575771004783497216'
p2097
S'not_related_or_irrelevant'
p2098
sS'575736033058406400'
p2099
S'infrastructure_and_utilities_damage'
p2100
sS'575797427602591744'
p2101
S'donation_needs_or_offers_or_volunteering_services'
p2102
sS'575794967043514369'
p2103
S'infrastructure_and_utilities_damage'
p2104
sS'575793265611554816'
p2105
S'injured_or_dead_people'
p2106
sS'575739022988828673'
p2107
S'sympathy_and_emotional_support'
p2108
sS'575745548210192384'
p2109
S'infrastructure_and_utilities_damage'
p2110
sS'575779020526108672'
p2111
S'injured_or_dead_people'
p2112
sS'575771101625643008'
p2113
S'not_related_or_irrelevant'
p2114
sS'575772039790788608'
p2115
S'other_useful_information'
p2116
sS'575745780662865921'
p2117
S'not_related_or_irrelevant'
p2118
sS'575770463969800192'
p2119
S'other_useful_information'
p2120
sS'575762996955209728'
p2121
S'donation_needs_or_offers_or_volunteering_services'
p2122
sS'575757409114681344'
p2123
S'other_useful_information'
p2124
sS'575777650565906432'
p2125
S'other_useful_information'
p2126
sS'575738828331188224'
p2127
S'donation_needs_or_offers_or_volunteering_services'
p2128
sS'575736623708532736'
p2129
S'donation_needs_or_offers_or_volunteering_services'
p2130
sS'575786057012285440'
p2131
S'not_related_or_irrelevant'
p2132
sS'575781477029429248'
p2133
S'donation_needs_or_offers_or_volunteering_services'
p2134
sS'575783804909981696'
p2135
S'not_related_or_irrelevant'
p2136
sS'575796582328590338'
p2137
S'not_related_or_irrelevant'
p2138
sS'575774889799458816'
p2139
S'donation_needs_or_offers_or_volunteering_services'
p2140
sS'575754103214579712'
p2141
S'not_related_or_irrelevant'
p2142
sS'575773127499608064'
p2143
S'infrastructure_and_utilities_damage'
p2144
sS'575770743654473729'
p2145
S'other_useful_information'
p2146
sS'575758586401419264'
p2147
S'injured_or_dead_people'
p2148
sS'575769683397373954'
p2149
S'not_related_or_irrelevant'
p2150
sS'575770019780386817'
p2151
S'donation_needs_or_offers_or_volunteering_services'
p2152
sS'575787333598900225'
p2153
S'not_related_or_irrelevant'
p2154
sS'575740537401016320'
p2155
S'other_useful_information'
p2156
sS'575758558211403776'
p2157
S'donation_needs_or_offers_or_volunteering_services'
p2158
sS'575769221700849664'
p2159
S'infrastructure_and_utilities_damage'
p2160
sS'575786830039244801'
p2161
S'infrastructure_and_utilities_damage'
p2162
sS'575740639733637120'
p2163
S'not_related_or_irrelevant'
p2164
sS'575770474719748097'
p2165
S'other_useful_information'
p2166
sS'575740534662156288'
p2167
S'not_related_or_irrelevant'
p2168
sS'575769974196690945'
p2169
S'not_related_or_irrelevant'
p2170
sS'575739748641206272'
p2171
S'injured_or_dead_people'
p2172
sS'575740624034381824'
p2173
S'displaced_people_and_evacuations'
p2174
sS'575736634190270465'
p2175
S'other_useful_information'
p2176
sS'575793334037446657'
p2177
S'sympathy_and_emotional_support'
p2178
sS'575785559592804352'
p2179
S'injured_or_dead_people'
p2180
sS'575749074604916736'
p2181
S'donation_needs_or_offers_or_volunteering_services'
p2182
sS'575775152471863297'
p2183
S'not_related_or_irrelevant'
p2184
sS'575769622487560192'
p2185
S'injured_or_dead_people'
p2186
sS'575749097761583104'
p2187
S'donation_needs_or_offers_or_volunteering_services'
p2188
sS'575794472912580608'
p2189
S'not_related_or_irrelevant'
p2190
sS'575769221449191424'
p2191
S'not_related_or_irrelevant'
p2192
sS'575753330888171522'
p2193
S'sympathy_and_emotional_support'
p2194
sS'575759454085496832'
p2195
S'infrastructure_and_utilities_damage'
p2196
sS'575758139225698304'
p2197
S'donation_needs_or_offers_or_volunteering_services'
p2198
sS'575761019684974592'
p2199
S'other_useful_information'
p2200
sS'575750462156054528'
p2201
S'donation_needs_or_offers_or_volunteering_services'
p2202
sS'575747012995387393'
p2203
S'not_related_or_irrelevant'
p2204
sS'575740501397143552'
p2205
S'infrastructure_and_utilities_damage'
p2206
sS'575771086790381569'
p2207
S'not_related_or_irrelevant'
p2208
sS'575736505798361088'
p2209
S'injured_or_dead_people'
p2210
sS'575785437240778752'
p2211
S'donation_needs_or_offers_or_volunteering_services'
p2212
sS'575744357195735041'
p2213
S'other_useful_information'
p2214
sS'575790040262971395'
p2215
S'infrastructure_and_utilities_damage'
p2216
sS'575744731948314625'
p2217
S'other_useful_information'
p2218
sS'575740430731509761'
p2219
S'not_related_or_irrelevant'
p2220
sS'575766674571329537'
p2221
S'displaced_people_and_evacuations'
p2222
sS'575769456879632384'
p2223
S'injured_or_dead_people'
p2224
sS'575756069030531072'
p2225
S'other_useful_information'
p2226
sS'575740631152099328'
p2227
S'donation_needs_or_offers_or_volunteering_services'
p2228
sS'575760578175627265'
p2229
S'infrastructure_and_utilities_damage'
p2230
sS'575790359738904576'
p2231
S'not_related_or_irrelevant'
p2232
sS'575769545958277120'
p2233
S'donation_needs_or_offers_or_volunteering_services'
p2234
sS'575748547569541121'
p2235
S'other_useful_information'
p2236
sS'575791541098315776'
p2237
S'infrastructure_and_utilities_damage'
p2238
sS'575787399659327489'
p2239
S'infrastructure_and_utilities_damage'
p2240
sS'575753093792559104'
p2241
S'other_useful_information'
p2242
sS'575783955711942656'
p2243
S'displaced_people_and_evacuations'
p2244
sS'575750091140644866'
p2245
S'displaced_people_and_evacuations'
p2246
sS'575753111907778560'
p2247
S'not_related_or_irrelevant'
p2248
sS'575800159424094210'
p2249
S'infrastructure_and_utilities_damage'
p2250
sS'575778311516766209'
p2251
S'donation_needs_or_offers_or_volunteering_services'
p2252
sS'575776379180052480'
p2253
S'donation_needs_or_offers_or_volunteering_services'
p2254
sS'575770471896997890'
p2255
S'not_related_or_irrelevant'
p2256
sS'575753468029304833'
p2257
S'donation_needs_or_offers_or_volunteering_services'
p2258
sS'575758727694827520'
p2259
S'not_related_or_irrelevant'
p2260
sS'575786816403451904'
p2261
S'not_related_or_irrelevant'
p2262
sS'575768040756805632'
p2263
S'donation_needs_or_offers_or_volunteering_services'
p2264
sS'575740504484130816'
p2265
S'donation_needs_or_offers_or_volunteering_services'
p2266
sS'575775523852455938'
p2267
S'not_related_or_irrelevant'
p2268
sS'575793203951071232'
p2269
S'other_useful_information'
p2270
sS'575738326159867905'
p2271
S'other_useful_information'
p2272
sS'575740193631789057'
p2273
S'not_related_or_irrelevant'
p2274
sS'575769435832643585'
p2275
S'donation_needs_or_offers_or_volunteering_services'
p2276
sS'575774607325675522'
p2277
S'donation_needs_or_offers_or_volunteering_services'
p2278
sS'575786962562371584'
p2279
S'not_related_or_irrelevant'
p2280
sS'575769435161559040'
p2281
S'not_related_or_irrelevant'
p2282
sS'575747190624272386'
p2283
S'other_useful_information'
p2284
sS'575769550391808000'
p2285
S'other_useful_information'
p2286
sS'575740528622329856'
p2287
S'caution_and_advice'
p2288
sS'575783749503188992'
p2289
S'not_related_or_irrelevant'
p2290
sS'575740654489239553'
p2291
S'donation_needs_or_offers_or_volunteering_services'
p2292
sS'575738117346435072'
p2293
S'other_useful_information'
p2294
sS'575788425762205697'
p2295
S'donation_needs_or_offers_or_volunteering_services'
p2296
sS'575770467316948994'
p2297
S'caution_and_advice'
p2298
sS'575800076250972160'
p2299
S'other_useful_information'
p2300
sS'575759180100825089'
p2301
S'sympathy_and_emotional_support'
p2302
sS'575776746487836672'
p2303
S'other_useful_information'
p2304
sS'575776121549144064'
p2305
S'sympathy_and_emotional_support'
p2306
sS'575748735893921792'
p2307
S'infrastructure_and_utilities_damage'
p2308
sS'575767088670834689'
p2309
S'other_useful_information'
p2310
sS'575771139827355648'
p2311
S'not_related_or_irrelevant'
p2312
sS'575791097823109120'
p2313
S'donation_needs_or_offers_or_volunteering_services'
p2314
sS'575760469497085952'
p2315
S'other_useful_information'
p2316
sS'575769184916799489'
p2317
S'injured_or_dead_people'
p2318
sS'575769502828232705'
p2319
S'caution_and_advice'
p2320
sS'575740697820598273'
p2321
S'donation_needs_or_offers_or_volunteering_services'
p2322
sS'575755585464877056'
p2323
S'infrastructure_and_utilities_damage'
p2324
sS'575763208352370689'
p2325
S'not_related_or_irrelevant'
p2326
sS'575740769484439552'
p2327
S'donation_needs_or_offers_or_volunteering_services'
p2328
sS'575752897826197505'
p2329
S'other_useful_information'
p2330
sS'575753411787890689'
p2331
S'caution_and_advice'
p2332
sS'575744475277864960'
p2333
S'infrastructure_and_utilities_damage'
p2334
sS'575740623946260480'
p2335
S'infrastructure_and_utilities_damage'
p2336
sS'575756797950062592'
p2337
S'other_useful_information'
p2338
sS'575771125554233344'
p2339
S'sympathy_and_emotional_support'
p2340
sS'575746175665508352'
p2341
S'donation_needs_or_offers_or_volunteering_services'
p2342
sS'575781041836687360'
p2343
S'not_related_or_irrelevant'
p2344
sS'575747877261070337'
p2345
S'not_related_or_irrelevant'
p2346
sS'575778626785902592'
p2347
S'infrastructure_and_utilities_damage'
p2348
sS'575772162516197376'
p2349
S'not_related_or_irrelevant'
p2350
sS'575760392162537472'
p2351
S'not_related_or_irrelevant'
p2352
sS'575792529423003648'
p2353
S'donation_needs_or_offers_or_volunteering_services'
p2354
sS'575770769403158528'
p2355
S'donation_needs_or_offers_or_volunteering_services'
p2356
sS'575741326827765760'
p2357
S'displaced_people_and_evacuations'
p2358
sS'575769798778359808'
p2359
S'donation_needs_or_offers_or_volunteering_services'
p2360
sS'575752353137172482'
p2361
S'donation_needs_or_offers_or_volunteering_services'
p2362
sS'575756309024350209'
p2363
S'not_related_or_irrelevant'
p2364
sS'575740589578178560'
p2365
S'other_useful_information'
p2366
sS'575742105567391744'
p2367
S'donation_needs_or_offers_or_volunteering_services'
p2368
sS'575772803992940544'
p2369
S'not_related_or_irrelevant'
p2370
sS'575792675938430976'
p2371
S'injured_or_dead_people'
p2372
sS'575739473075531777'
p2373
S'other_useful_information'
p2374
sS'575769188230299648'
p2375
S'not_related_or_irrelevant'
p2376
sS'575767738271948800'
p2377
S'injured_or_dead_people'
p2378
sS'575740513707384833'
p2379
S'caution_and_advice'
p2380
sS'575748432578658305'
p2381
S'donation_needs_or_offers_or_volunteering_services'
p2382
sS'575739034749685760'
p2383
S'donation_needs_or_offers_or_volunteering_services'
p2384
sS'575769563914072064'
p2385
S'infrastructure_and_utilities_damage'
p2386
sS'575738527251439617'
p2387
S'not_related_or_irrelevant'
p2388
sS'575740706657935360'
p2389
S'sympathy_and_emotional_support'
p2390
sS'575794863431532544'
p2391
S'donation_needs_or_offers_or_volunteering_services'
p2392
sS'575775065926586369'
p2393
S'other_useful_information'
p2394
sS'575771160123568129'
p2395
S'donation_needs_or_offers_or_volunteering_services'
p2396
sS'575773640832118784'
p2397
S'not_related_or_irrelevant'
p2398
sS'575772732824092673'
p2399
S'other_useful_information'
p2400
sS'575757048270450688'
p2401
S'injured_or_dead_people'
p2402
sS'575763314002755585'
p2403
S'not_related_or_irrelevant'
p2404
sS'575787891865030656'
p2405
S'infrastructure_and_utilities_damage'
p2406
sS'575751398999990272'
p2407
S'infrastructure_and_utilities_damage'
p2408
sS'575875135288160256'
p2409
S'donation_needs_or_offers_or_volunteering_services'
p2410
sS'575800057682853888'
p2411
S'sympathy_and_emotional_support'
p2412
sS'575812723017035776'
p2413
S'infrastructure_and_utilities_damage'
p2414
sS'575753389075775490'
p2415
S'not_related_or_irrelevant'
p2416
sS'575782021357699074'
p2417
S'infrastructure_and_utilities_damage'
p2418
sS'575775721190092800'
p2419
S'donation_needs_or_offers_or_volunteering_services'
p2420
sS'575774477914505217'
p2421
S'donation_needs_or_offers_or_volunteering_services'
p2422
sS'575799933867024386'
p2423
S'infrastructure_and_utilities_damage'
p2424
sS'575760903708143617'
p2425
S'donation_needs_or_offers_or_volunteering_services'
p2426
sS'575771100216365056'
p2427
S'not_related_or_irrelevant'
p2428
sS'575740770583367682'
p2429
S'not_related_or_irrelevant'
p2430
sS'575778297184841728'
p2431
S'not_related_or_irrelevant'
p2432
sS'575788042004234240'
p2433
S'donation_needs_or_offers_or_volunteering_services'
p2434
sS'575764722269683712'
p2435
S'not_related_or_irrelevant'
p2436
sS'575785372396843008'
p2437
S'not_related_or_irrelevant'
p2438
sS'575736452413136897'
p2439
S'donation_needs_or_offers_or_volunteering_services'
p2440
sS'575795239853498368'
p2441
S'caution_and_advice'
p2442
sS'575739033394900992'
p2443
S'sympathy_and_emotional_support'
p2444
sS'575745396254736384'
p2445
S'donation_needs_or_offers_or_volunteering_services'
p2446
sS'575796159303712769'
p2447
S'other_useful_information'
p2448
sS'575739022514896896'
p2449
S'not_related_or_irrelevant'
p2450
sS'575740994374606849'
p2451
S'other_useful_information'
p2452
sS'575753804479512576'
p2453
S'not_related_or_irrelevant'
p2454
sS'575779325414371328'
p2455
S'missing_trapped_or_found_people'
p2456
sS'575740633320554496'
p2457
S'infrastructure_and_utilities_damage'
p2458
sS'575739020946227201'
p2459
S'other_useful_information'
p2460
sS'575745594800480256'
p2461
S'injured_or_dead_people'
p2462
sS'575769740859199488'
p2463
S'not_related_or_irrelevant'
p2464
sS'575738871205363712'
p2465
S'other_useful_information'
p2466
sS'575772888910852096'
p2467
S'not_related_or_irrelevant'
p2468
sS'575800435274989569'
p2469
S'not_related_or_irrelevant'
p2470
sS'575787431456342016'
p2471
S'caution_and_advice'
p2472
sS'575740541071044608'
p2473
S'infrastructure_and_utilities_damage'
p2474
sS'575739911552241664'
p2475
S'donation_needs_or_offers_or_volunteering_services'
p2476
sS'575789427865219072'
p2477
S'not_related_or_irrelevant'
p2478
sS'575767330321383425'
p2479
S'other_useful_information'
p2480
sS'575772145688670208'
p2481
S'not_related_or_irrelevant'
p2482
sS'575746617933885440'
p2483
S'injured_or_dead_people'
p2484
sS'575790998866939904'
p2485
S'injured_or_dead_people'
p2486
sS'575781041123753986'
p2487
S'other_useful_information'
p2488
sS'575799260362375169'
p2489
S'other_useful_information'
p2490
sS'575786583586115584'
p2491
S'not_related_or_irrelevant'
p2492
sS'575765583171489792'
p2493
S'other_useful_information'
p2494
sS'575775647135563776'
p2495
S'other_useful_information'
p2496
sS'575750349258014720'
p2497
S'other_useful_information'
p2498
sS'575740508695195648'
p2499
S'other_useful_information'
p2500
sS'575761546627825665'
p2501
S'not_related_or_irrelevant'
p2502
sS'575738673792077824'
p2503
S'caution_and_advice'
p2504
sS'575769571900043265'
p2505
S'not_related_or_irrelevant'
p2506
sS'575754860294860800'
p2507
S'other_useful_information'
p2508
sS'575745953929560064'
p2509
S'other_useful_information'
p2510
sS'575773910416781312'
p2511
S'other_useful_information'
p2512
sS'575755642306080768'
p2513
S'not_related_or_irrelevant'
p2514
sS'575775790341607424'
p2515
S'infrastructure_and_utilities_damage'
p2516
sS'575795724337684482'
p2517
S'infrastructure_and_utilities_damage'
p2518
sS'575763060008218624'
p2519
S'caution_and_advice'
p2520
sS'575764551146188801'
p2521
S'other_useful_information'
p2522
sS'575753326001811456'
p2523
S'infrastructure_and_utilities_damage'
p2524
sS'575742877201997825'
p2525
S'donation_needs_or_offers_or_volunteering_services'
p2526
sS'575761366839001088'
p2527
S'other_useful_information'
p2528
sS'575740679822798848'
p2529
S'not_related_or_irrelevant'
p2530
sS'575781568905670657'
p2531
S'infrastructure_and_utilities_damage'
p2532
sS'575765758560464896'
p2533
S'donation_needs_or_offers_or_volunteering_services'
p2534
sS'575758481317302272'
p2535
S'other_useful_information'
p2536
sS'575769490899607552'
p2537
S'other_useful_information'
p2538
sS'575775053045886977'
p2539
S'caution_and_advice'
p2540
sS'575736933755805696'
p2541
S'infrastructure_and_utilities_damage'
p2542
sS'575795299404378112'
p2543
S'donation_needs_or_offers_or_volunteering_services'
p2544
sS'575792097594339330'
p2545
S'other_useful_information'
p2546
sS'575838641450131456'
p2547
S'not_related_or_irrelevant'
p2548
sS'575740504760975360'
p2549
S'other_useful_information'
p2550
sS'575797307435827200'
p2551
S'not_related_or_irrelevant'
p2552
sS'575793412084891648'
p2553
S'not_related_or_irrelevant'
p2554
sS'575769441784369152'
p2555
S'infrastructure_and_utilities_damage'
p2556
sS'575748084371755009'
p2557
S'infrastructure_and_utilities_damage'
p2558
sS'575770001237491712'
p2559
S'infrastructure_and_utilities_damage'
p2560
sS'575757615600373760'
p2561
S'not_related_or_irrelevant'
p2562
sS'575753432943976448'
p2563
S'not_related_or_irrelevant'
p2564
sS'575783975408435200'
p2565
S'not_related_or_irrelevant'
p2566
sS'575784532957401088'
p2567
S'other_useful_information'
p2568
sS'575742872458170368'
p2569
S'not_related_or_irrelevant'
p2570
sS'575750003664117761'
p2571
S'not_related_or_irrelevant'
p2572
sS'575782470823624705'
p2573
S'other_useful_information'
p2574
sS'575747137603964928'
p2575
S'not_related_or_irrelevant'
p2576
sS'575769437904723968'
p2577
S'infrastructure_and_utilities_damage'
p2578
sS'575770111434342400'
p2579
S'other_useful_information'
p2580
sS'575737419057618944'
p2581
S'other_useful_information'
p2582
sS'575771544707801088'
p2583
S'other_useful_information'
p2584
sS'575773868633231360'
p2585
S'infrastructure_and_utilities_damage'
p2586
sS'575784890186272768'
p2587
S'sympathy_and_emotional_support'
p2588
sS'575780058373185539'
p2589
S'injured_or_dead_people'
p2590
sS'575786495199551488'
p2591
S'not_related_or_irrelevant'
p2592
sS'575782210722140160'
p2593
S'not_related_or_irrelevant'
p2594
sS'575753095868780544'
p2595
S'infrastructure_and_utilities_damage'
p2596
sS'575769511149768704'
p2597
S'not_related_or_irrelevant'
p2598
sS'575791384113774592'
p2599
S'not_related_or_irrelevant'
p2600
sS'575753430318342144'
p2601
S'injured_or_dead_people'
p2602
sS'575783911902593024'
p2603
S'sympathy_and_emotional_support'
p2604
sS'575789191344308224'
p2605
S'not_related_or_irrelevant'
p2606
sS'575736131817369601'
p2607
S'other_useful_information'
p2608
sS'575770465324527616'
p2609
S'other_useful_information'
p2610
sS'575740505817927681'
p2611
S'caution_and_advice'
p2612
sS'575789361196703745'
p2613
S'other_useful_information'
p2614
sS'575745829845143552'
p2615
S'injured_or_dead_people'
p2616
sS'575784687878205440'
p2617
S'not_related_or_irrelevant'
p2618
sS'575746960927256576'
p2619
S'not_related_or_irrelevant'
p2620
sS'575768266980765696'
p2621
S'sympathy_and_emotional_support'
p2622
sS'575740532384620544'
p2623
S'not_related_or_irrelevant'
p2624
sS'575753254769942528'
p2625
S'infrastructure_and_utilities_damage'
p2626
sS'575753174394486785'
p2627
S'not_related_or_irrelevant'
p2628
sS'575794913650020352'
p2629
S'other_useful_information'
p2630
sS'575794535596425216'
p2631
S'not_related_or_irrelevant'
p2632
sS'575739674251128832'
p2633
S'infrastructure_and_utilities_damage'
p2634
sS'575768323301842944'
p2635
S'caution_and_advice'
p2636
sS'575753233597095936'
p2637
S'injured_or_dead_people'
p2638
sS'575744182482046976'
p2639
S'injured_or_dead_people'
p2640
sS'575763419887988737'
p2641
S'not_related_or_irrelevant'
p2642
sS'575740689683644416'
p2643
S'infrastructure_and_utilities_damage'
p2644
sS'575785803609210881'
p2645
S'sympathy_and_emotional_support'
p2646
sS'575785264498479104'
p2647
S'donation_needs_or_offers_or_volunteering_services'
p2648
sS'575784979365392385'
p2649
S'other_useful_information'
p2650
sS'575781094273867777'
p2651
S'infrastructure_and_utilities_damage'
p2652
sS'575776932924534784'
p2653
S'injured_or_dead_people'
p2654
sS'575780430818861057'
p2655
S'injured_or_dead_people'
p2656
sS'575771143237320704'
p2657
S'not_related_or_irrelevant'
p2658
sS'575768847564701696'
p2659
S'not_related_or_irrelevant'
p2660
sS'575746604755451904'
p2661
S'other_useful_information'
p2662
sS'575741601026174976'
p2663
S'not_related_or_irrelevant'
p2664
sS'575778713280753664'
p2665
S'other_useful_information'
p2666
sS'575782647193980929'
p2667
S'donation_needs_or_offers_or_volunteering_services'
p2668
sS'575773642023268353'
p2669
S'infrastructure_and_utilities_damage'
p2670
sS'575769501033091073'
p2671
S'not_related_or_irrelevant'
p2672
sS'575773070389981185'
p2673
S'sympathy_and_emotional_support'
p2674
sS'575775599312039936'
p2675
S'not_related_or_irrelevant'
p2676
sS'575788052980727808'
p2677
S'other_useful_information'
p2678
sS'575769232220164098'
p2679
S'infrastructure_and_utilities_damage'
p2680
sS'575769211450060801'
p2681
S'injured_or_dead_people'
p2682
sS'575740500424065024'
p2683
S'donation_needs_or_offers_or_volunteering_services'
p2684
sS'575743992769306625'
p2685
S'not_related_or_irrelevant'
p2686
sS'575771089382461440'
p2687
S'injured_or_dead_people'
p2688
sS'575764410230140929'
p2689
S'donation_needs_or_offers_or_volunteering_services'
p2690
sS'575738991795900416'
p2691
S'other_useful_information'
p2692
sS'575762723109216259'
p2693
S'caution_and_advice'
p2694
sS'575783428693606402'
p2695
S'not_related_or_irrelevant'
p2696
sS'575786386004951040'
p2697
S'displaced_people_and_evacuations'
p2698
sS'575788945734152192'
p2699
S'other_useful_information'
p2700
sS'575745565385863168'
p2701
S'not_related_or_irrelevant'
p2702
sS'575770840886874112'
p2703
S'not_related_or_irrelevant'
p2704
sS'575767752117501952'
p2705
S'donation_needs_or_offers_or_volunteering_services'
p2706
sS'575769467772256257'
p2707
S'not_related_or_irrelevant'
p2708
sS'575768828090646530'
p2709
S'infrastructure_and_utilities_damage'
p2710
sS'575753319076986881'
p2711
S'not_related_or_irrelevant'
p2712
sS'575753356427264000'
p2713
S'donation_needs_or_offers_or_volunteering_services'
p2714
sS'575794977638236160'
p2715
S'injured_or_dead_people'
p2716
sS'575745600987136000'
p2717
S'injured_or_dead_people'
p2718
sS'575761609425088512'
p2719
S'infrastructure_and_utilities_damage'
p2720
sS'575779039597756416'
p2721
S'donation_needs_or_offers_or_volunteering_services'
p2722
sS'575771133099704320'
p2723
S'not_related_or_irrelevant'
p2724
sS'575769515750912000'
p2725
S'sympathy_and_emotional_support'
p2726
sS'575800006831030272'
p2727
S'not_related_or_irrelevant'
p2728
sS'575769449111801856'
p2729
S'injured_or_dead_people'
p2730
sS'575752523329486850'
p2731
S'donation_needs_or_offers_or_volunteering_services'
p2732
sS'575794011409154049'
p2733
S'missing_trapped_or_found_people'
p2734
sS'575765855302189058'
p2735
S'other_useful_information'
p2736
sS'575778712521568257'
p2737
S'injured_or_dead_people'
p2738
sS'575788206760787968'
p2739
S'other_useful_information'
p2740
sS'575773461672390658'
p2741
S'injured_or_dead_people'
p2742
sS'575777249527480320'
p2743
S'other_useful_information'
p2744
sS'575744860084305920'
p2745
S'other_useful_information'
p2746
sS'575782292175478787'
p2747
S'infrastructure_and_utilities_damage'
p2748
sS'575753721033986049'
p2749
S'other_useful_information'
p2750
sS'575787828543537152'
p2751
S'other_useful_information'
p2752
sS'575753437276692481'
p2753
S'donation_needs_or_offers_or_volunteering_services'
p2754
sS'575800458004074496'
p2755
S'not_related_or_irrelevant'
p2756
sS'575795589096538112'
p2757
S'not_related_or_irrelevant'
p2758
sS'575761643717570562'
p2759
S'injured_or_dead_people'
p2760
sS'575776765399838721'
p2761
S'other_useful_information'
p2762
sS'575769394690854912'
p2763
S'displaced_people_and_evacuations'
p2764
sS'575769198053355520'
p2765
S'other_useful_information'
p2766
sS'575766837784240128'
p2767
S'donation_needs_or_offers_or_volunteering_services'
p2768
sS'575782063153926144'
p2769
S'other_useful_information'
p2770
sS'575769525007745025'
p2771
S'not_related_or_irrelevant'
p2772
sS'575800550563807232'
p2773
S'donation_needs_or_offers_or_volunteering_services'
p2774
sS'575781168110432256'
p2775
S'other_useful_information'
p2776
sS'575740934773608448'
p2777
S'donation_needs_or_offers_or_volunteering_services'
p2778
sS'575769494066360320'
p2779
S'infrastructure_and_utilities_damage'
p2780
sS'575755790134345728'
p2781
S'other_useful_information'
p2782
sS'575753640616587264'
p2783
S'infrastructure_and_utilities_damage'
p2784
sS'575791169713537024'
p2785
S'infrastructure_and_utilities_damage'
p2786
sS'575768576872816643'
p2787
S'injured_or_dead_people'
p2788
sS'575769184535060481'
p2789
S'other_useful_information'
p2790
sS'575797121640722433'
p2791
S'displaced_people_and_evacuations'
p2792
sS'575798012733210624'
p2793
S'donation_needs_or_offers_or_volunteering_services'
p2794
sS'575740559052034048'
p2795
S'not_related_or_irrelevant'
p2796
sS'575797183406022658'
p2797
S'infrastructure_and_utilities_damage'
p2798
sS'575737043071930368'
p2799
S'other_useful_information'
p2800
sS'575790252356280320'
p2801
S'infrastructure_and_utilities_damage'
p2802
sS'575795716850843649'
p2803
S'sympathy_and_emotional_support'
p2804
sS'575771080113041408'
p2805
S'not_related_or_irrelevant'
p2806
sS'575746876462534656'
p2807
S'infrastructure_and_utilities_damage'
p2808
sS'575736980966785024'
p2809
S'other_useful_information'
p2810
sS'575782898533408768'
p2811
S'not_related_or_irrelevant'
p2812
sS'575744225855291392'
p2813
S'injured_or_dead_people'
p2814
sS'575771090993053698'
p2815
S'not_related_or_irrelevant'
p2816
sS'575745025285353472'
p2817
S'donation_needs_or_offers_or_volunteering_services'
p2818
sS'575749290271768576'
p2819
S'not_related_or_irrelevant'
p2820
sS'575786559863025664'
p2821
S'other_useful_information'
p2822
sS'575798116080730115'
p2823
S'donation_needs_or_offers_or_volunteering_services'
p2824
sS'575782333254533120'
p2825
S'other_useful_information'
p2826
sS'575780182814031873'
p2827
S'not_related_or_irrelevant'
p2828
sS'575789269731643394'
p2829
S'other_useful_information'
p2830
sS'575791406746320896'
p2831
S'not_related_or_irrelevant'
p2832
sS'575762440102809600'
p2833
S'donation_needs_or_offers_or_volunteering_services'
p2834
sS'575741048644890624'
p2835
S'not_related_or_irrelevant'
p2836
sS'575760405835816960'
p2837
S'sympathy_and_emotional_support'
p2838
sS'575755544725598209'
p2839
S'other_useful_information'
p2840
sS'575769531336908800'
p2841
S'not_related_or_irrelevant'
p2842
sS'575771552471371776'
p2843
S'displaced_people_and_evacuations'
p2844
sS'575771082684149760'
p2845
S'caution_and_advice'
p2846
sS'575743610617987073'
p2847
S'not_related_or_irrelevant'
p2848
sS'575778712420909056'
p2849
S'donation_needs_or_offers_or_volunteering_services'
p2850
sS'575749154321928192'
p2851
S'other_useful_information'
p2852
sS'575743613423906816'
p2853
S'injured_or_dead_people'
p2854
sS'575752770139111424'
p2855
S'donation_needs_or_offers_or_volunteering_services'
p2856
sS'575765262961672192'
p2857
S'other_useful_information'
p2858
sS'575753400400408576'
p2859
S'injured_or_dead_people'
p2860
sS'575736643191246848'
p2861
S'not_related_or_irrelevant'
p2862
sS'575756482962128896'
p2863
S'other_useful_information'
p2864
sS'575783133209038848'
p2865
S'other_useful_information'
p2866
sS'575793412923768833'
p2867
S'sympathy_and_emotional_support'
p2868
sS'575737437428707328'
p2869
S'other_useful_information'
p2870
sS'575769493835677696'
p2871
S'donation_needs_or_offers_or_volunteering_services'
p2872
sS'575800498646859776'
p2873
S'donation_needs_or_offers_or_volunteering_services'
p2874
sS'575752366743384064'
p2875
S'other_useful_information'
p2876
sS'575740526961393664'
p2877
S'infrastructure_and_utilities_damage'
p2878
sS'575785145984135169'
p2879
S'sympathy_and_emotional_support'
p2880
sS'575773972882583552'
p2881
S'other_useful_information'
p2882
sS'575759645983158272'
p2883
S'infrastructure_and_utilities_damage'
p2884
sS'575738910094962688'
p2885
S'donation_needs_or_offers_or_volunteering_services'
p2886
sS'575797768389849088'
p2887
S'donation_needs_or_offers_or_volunteering_services'
p2888
sS'575779455865585666'
p2889
S'other_useful_information'
p2890
sS'575755497959096320'
p2891
S'caution_and_advice'
p2892
sS'575742520631640064'
p2893
S'sympathy_and_emotional_support'
p2894
sS'575745560310779905'
p2895
S'other_useful_information'
p2896
sS'575745196262055936'
p2897
S'not_related_or_irrelevant'
p2898
sS'575769199496159232'
p2899
S'other_useful_information'
p2900
sS'575761425760587776'
p2901
S'other_useful_information'
p2902
sS'575784307878293504'
p2903
S'not_related_or_irrelevant'
p2904
sS'575742509931884544'
p2905
S'donation_needs_or_offers_or_volunteering_services'
p2906
sS'575777211694891008'
p2907
S'not_related_or_irrelevant'
p2908
sS'575753371312877568'
p2909
S'not_related_or_irrelevant'
p2910
sS'575745231452266496'
p2911
S'sympathy_and_emotional_support'
p2912
sS'575785778539839488'
p2913
S'not_related_or_irrelevant'
p2914
sS'575797601536094208'
p2915
S'other_useful_information'
p2916
sS'575777231684816896'
p2917
S'donation_needs_or_offers_or_volunteering_services'
p2918
sS'575784608375177216'
p2919
S'sympathy_and_emotional_support'
p2920
sS'575798751534653442'
p2921
S'donation_needs_or_offers_or_volunteering_services'
p2922
sS'575753527462469632'
p2923
S'other_useful_information'
p2924
sS'575750383785504768'
p2925
S'not_related_or_irrelevant'
p2926
sS'575800200750465024'
p2927
S'donation_needs_or_offers_or_volunteering_services'
p2928
sS'575780102543269888'
p2929
S'other_useful_information'
p2930
sS'575771149579083776'
p2931
S'not_related_or_irrelevant'
p2932
sS'575740663603458048'
p2933
S'other_useful_information'
p2934
sS'575778465397407744'
p2935
S'displaced_people_and_evacuations'
p2936
sS'575769432795930625'
p2937
S'sympathy_and_emotional_support'
p2938
sS'575740536159494145'
p2939
S'infrastructure_and_utilities_damage'
p2940
sS'575765018060451841'
p2941
S'other_useful_information'
p2942
sS'575740535148711936'
p2943
S'not_related_or_irrelevant'
p2944
sS'575794755147198464'
p2945
S'injured_or_dead_people'
p2946
sS'575743734563934208'
p2947
S'other_useful_information'
p2948
sS'575780808117592064'
p2949
S'other_useful_information'
p2950
sS'575764533328773121'
p2951
S'not_related_or_irrelevant'
p2952
sS'575753127409942528'
p2953
S'other_useful_information'
p2954
sS'575782271149436931'
p2955
S'not_related_or_irrelevant'
p2956
sS'575782880929931264'
p2957
S'infrastructure_and_utilities_damage'
p2958
sS'575756881366511616'
p2959
S'other_useful_information'
p2960
sS'575766021287579650'
p2961
S'injured_or_dead_people'
p2962
sS'575794188534460416'
p2963
S'not_related_or_irrelevant'
p2964
sS'575753081268400129'
p2965
S'not_related_or_irrelevant'
p2966
sS'575784936059240448'
p2967
S'other_useful_information'
p2968
sS'575798224264503298'
p2969
S'not_related_or_irrelevant'
p2970
sS'575784238533976065'
p2971
S'other_useful_information'
p2972
sS'575784985715605505'
p2973
S'caution_and_advice'
p2974
sS'575769622990848000'
p2975
S'displaced_people_and_evacuations'
p2976
sS'575771788145135616'
p2977
S'injured_or_dead_people'
p2978
sS'575753453575802881'
p2979
S'infrastructure_and_utilities_damage'
p2980
sS'575787357753905152'
p2981
S'not_related_or_irrelevant'
p2982
sS'575789605431083009'
p2983
S'injured_or_dead_people'
p2984
sS'575736292618563584'
p2985
S'other_useful_information'
p2986
sS'575737826702135297'
p2987
S'donation_needs_or_offers_or_volunteering_services'
p2988
sS'575740549564489728'
p2989
S'injured_or_dead_people'
p2990
sS'575793897156276225'
p2991
S'other_useful_information'
p2992
sS'575772835064360960'
p2993
S'other_useful_information'
p2994
sS'575766675150274560'
p2995
S'sympathy_and_emotional_support'
p2996
sS'575762158551613440'
p2997
S'displaced_people_and_evacuations'
p2998
sS'575747704418009088'
p2999
S'donation_needs_or_offers_or_volunteering_services'
p3000
sS'575784130371158016'
p3001
S'not_related_or_irrelevant'
p3002
sS'575763702202269696'
p3003
S'other_useful_information'
p3004
sS'575756324539101185'
p3005
S'not_related_or_irrelevant'
p3006
sS'575751151364210688'
p3007
S'other_useful_information'
p3008
sS'575787637056794624'
p3009
S'injured_or_dead_people'
p3010
sS'575778644771012608'
p3011
S'donation_needs_or_offers_or_volunteering_services'
p3012
sS'575797150501621762'
p3013
S'injured_or_dead_people'
p3014
sS'575740606330220544'
p3015
S'donation_needs_or_offers_or_volunteering_services'
p3016
sS'575739728873459713'
p3017
S'injured_or_dead_people'
p3018
sS'575770473222443009'
p3019
S'other_useful_information'
p3020
sS'575795467935748096'
p3021
S'donation_needs_or_offers_or_volunteering_services'
p3022
sS'575795896920625152'
p3023
S'other_useful_information'
p3024
sS'575745599586365441'
p3025
S'other_useful_information'
p3026
sS'575778713272352769'
p3027
S'caution_and_advice'
p3028
sS'575740547605884928'
p3029
S'other_useful_information'
p3030
sS'575776569521737728'
p3031
S'not_related_or_irrelevant'
p3032
sS'575784025916317697'
p3033
S'not_related_or_irrelevant'
p3034
sS'575776564920647680'
p3035
S'injured_or_dead_people'
p3036
sS'575742872743337986'
p3037
S'sympathy_and_emotional_support'
p3038
sS'575799315777499136'
p3039
S'not_related_or_irrelevant'
p3040
sS'575752303317229569'
p3041
S'other_useful_information'
p3042
sS'575750036891398145'
p3043
S'other_useful_information'
p3044
sS'575772840550526976'
p3045
S'not_related_or_irrelevant'
p3046
sS'575739170754166784'
p3047
S'not_related_or_irrelevant'
p3048
sS'575769439188070400'
p3049
S'not_related_or_irrelevant'
p3050
sS'575779206564593664'
p3051
S'injured_or_dead_people'
p3052
sS'575778084219125760'
p3053
S'infrastructure_and_utilities_damage'
p3054
sS'575755248251310080'
p3055
S'other_useful_information'
p3056
sS'575766423114485760'
p3057
S'injured_or_dead_people'
p3058
sS'575875147036426240'
p3059
S'displaced_people_and_evacuations'
p3060
sS'575746943483183104'
p3061
S'sympathy_and_emotional_support'
p3062
sS'575740561233072128'
p3063
S'other_useful_information'
p3064
sS'575775895039795200'
p3065
S'not_related_or_irrelevant'
p3066
sS'575774942198788096'
p3067
S'infrastructure_and_utilities_damage'
p3068
sS'575795603801837568'
p3069
S'donation_needs_or_offers_or_volunteering_services'
p3070
sS'575741376022757376'
p3071
S'donation_needs_or_offers_or_volunteering_services'
p3072
sS'575776436595773440'
p3073
S'other_useful_information'
p3074
sS'575781003102302208'
p3075
S'donation_needs_or_offers_or_volunteering_services'
p3076
sS'575769584105451521'
p3077
S'donation_needs_or_offers_or_volunteering_services'
p3078
sS'575736803677761536'
p3079
S'caution_and_advice'
p3080
sS'575778781748559874'
p3081
S'donation_needs_or_offers_or_volunteering_services'
p3082
sS'575788836174852096'
p3083
S'not_related_or_irrelevant'
p3084
sS'575780271028506624'
p3085
S'donation_needs_or_offers_or_volunteering_services'
p3086
sS'575745555860598784'
p3087
S'donation_needs_or_offers_or_volunteering_services'
p3088
sS'575799910332657666'
p3089
S'donation_needs_or_offers_or_volunteering_services'
p3090
sS'575769121448681472'
p3091
S'other_useful_information'
p3092
sS'575742319904886784'
p3093
S'injured_or_dead_people'
p3094
sS'575739841511571457'
p3095
S'not_related_or_irrelevant'
p3096
sS'575781873273597952'
p3097
S'other_useful_information'
p3098
sS'575780605104951297'
p3099
S'other_useful_information'
p3100
sS'575774651470712833'
p3101
S'other_useful_information'
p3102
sS'575769561217167360'
p3103
S'other_useful_information'
p3104
sS'575781125743853568'
p3105
S'not_related_or_irrelevant'
p3106
sS'575745568728686592'
p3107
S'other_useful_information'
p3108
sS'575797026207592448'
p3109
S'not_related_or_irrelevant'
p3110
sS'575759986908786688'
p3111
S'not_related_or_irrelevant'
p3112
sS'575769461560451072'
p3113
S'not_related_or_irrelevant'
p3114
sS'575773931992408064'
p3115
S'not_related_or_irrelevant'
p3116
sS'575769184409284608'
p3117
S'infrastructure_and_utilities_damage'
p3118
sS'575764689239416833'
p3119
S'other_useful_information'
p3120
sS'575767258259021824'
p3121
S'other_useful_information'
p3122
sS'575741345903550464'
p3123
S'other_useful_information'
p3124
sS'575740513795473408'
p3125
S'donation_needs_or_offers_or_volunteering_services'
p3126
sS'575740661887975424'
p3127
S'donation_needs_or_offers_or_volunteering_services'
p3128
sS'575756888295370752'
p3129
S'other_useful_information'
p3130
sS'575780606098870272'
p3131
S'infrastructure_and_utilities_damage'
p3132
sS'575769569060499457'
p3133
S'other_useful_information'
p3134
sS'575744972982460417'
p3135
S'donation_needs_or_offers_or_volunteering_services'
p3136
sS'575766061062090754'
p3137
S'not_related_or_irrelevant'
p3138
sS'575759006590988289'
p3139
S'injured_or_dead_people'
p3140
sS'575759749108535296'
p3141
S'donation_needs_or_offers_or_volunteering_services'
p3142
sS'575784080605847553'
p3143
S'infrastructure_and_utilities_damage'
p3144
sS'575794812604973056'
p3145
S'not_related_or_irrelevant'
p3146
sS'575767657795858432'
p3147
S'caution_and_advice'
p3148
sS'575778255636033536'
p3149
S'other_useful_information'
p3150
sS'575740500252098560'
p3151
S'not_related_or_irrelevant'
p3152
sS'575759060743684096'
p3153
S'other_useful_information'
p3154
sS'575738467226927104'
p3155
S'not_related_or_irrelevant'
p3156
sS'575784134641086465'
p3157
S'other_useful_information'
p3158
sS'575761297649721344'
p3159
S'not_related_or_irrelevant'
p3160
sS'575740681303429120'
p3161
S'donation_needs_or_offers_or_volunteering_services'
p3162
sS'575781267423145985'
p3163
S'not_related_or_irrelevant'
p3164
sS'575739844850270208'
p3165
S'infrastructure_and_utilities_damage'
p3166
sS'575795201719078912'
p3167
S'not_related_or_irrelevant'
p3168
sS'575738368341897216'
p3169
S'infrastructure_and_utilities_damage'
p3170
sS'575780562964602880'
p3171
S'donation_needs_or_offers_or_volunteering_services'
p3172
sS'575796338098634753'
p3173
S'other_useful_information'
p3174
sS'575736037986578433'
p3175
S'injured_or_dead_people'
p3176
sS'575736712892145665'
p3177
S'other_useful_information'
p3178
sS'575791336911147008'
p3179
S'donation_needs_or_offers_or_volunteering_services'
p3180
sS'575745621237239808'
p3181
S'infrastructure_and_utilities_damage'
p3182
sS'575794817520685057'
p3183
S'not_related_or_irrelevant'
p3184
sS'575769513913774080'
p3185
S'donation_needs_or_offers_or_volunteering_services'
p3186
sS'575800541395054592'
p3187
S'not_related_or_irrelevant'
p3188
sS'575738572931751938'
p3189
S'infrastructure_and_utilities_damage'
p3190
sS'575745591340220417'
p3191
S'other_useful_information'
p3192
sS'575769564790702080'
p3193
S'not_related_or_irrelevant'
p3194
sS'575798620139597824'
p3195
S'donation_needs_or_offers_or_volunteering_services'
p3196
sS'575737616244543488'
p3197
S'not_related_or_irrelevant'
p3198
sS'575771161897775104'
p3199
S'other_useful_information'
p3200
sS'575788647900921857'
p3201
S'not_related_or_irrelevant'
p3202
sS'575765162772295680'
p3203
S'not_related_or_irrelevant'
p3204
sS'575792732901351424'
p3205
S'not_related_or_irrelevant'
p3206
sS'575769509715255296'
p3207
S'other_useful_information'
p3208
sS'575794194054266881'
p3209
S'not_related_or_irrelevant'
p3210
sS'575770580143603712'
p3211
S'other_useful_information'
p3212
sS'575893228257333249'
p3213
S'not_related_or_irrelevant'
p3214
sS'575784938970075137'
p3215
S'other_useful_information'
p3216
sS'575794963092520960'
p3217
S'other_useful_information'
p3218
sS'575793029115678721'
p3219
S'other_useful_information'
p3220
sS'575751004764831744'
p3221
S'donation_needs_or_offers_or_volunteering_services'
p3222
sS'575740635736510464'
p3223
S'donation_needs_or_offers_or_volunteering_services'
p3224
sS'575794899791912960'
p3225
S'donation_needs_or_offers_or_volunteering_services'
p3226
sS'575758725601828864'
p3227
S'caution_and_advice'
p3228
sS'575781218836291584'
p3229
S'other_useful_information'
p3230
sS'575753148888936448'
p3231
S'not_related_or_irrelevant'
p3232
sS'575799478654889984'
p3233
S'other_useful_information'
p3234
sS'575797231200124930'
p3235
S'caution_and_advice'
p3236
sS'575739015372095488'
p3237
S'donation_needs_or_offers_or_volunteering_services'
p3238
sS'575780061644632065'
p3239
S'caution_and_advice'
p3240
sS'575788399837061121'
p3241
S'donation_needs_or_offers_or_volunteering_services'
p3242
sS'575742393078558721'
p3243
S'sympathy_and_emotional_support'
p3244
sS'575753354086858753'
p3245
S'not_related_or_irrelevant'
p3246
sS'575750397387673601'
p3247
S'not_related_or_irrelevant'
p3248
sS'575792373726191616'
p3249
S'infrastructure_and_utilities_damage'
p3250
sS'575779992564461569'
p3251
S'other_useful_information'
p3252
sS'575740694649683968'
p3253
S'donation_needs_or_offers_or_volunteering_services'
p3254
sS'575745614991904768'
p3255
S'other_useful_information'
p3256
sS'575740676802899968'
p3257
S'caution_and_advice'
p3258
sS'575798940014133248'
p3259
S'donation_needs_or_offers_or_volunteering_services'
p3260
sS'575738863659925504'
p3261
S'donation_needs_or_offers_or_volunteering_services'
p3262
sS'575771706041610240'
p3263
S'infrastructure_and_utilities_damage'
p3264
sS'575796792433901568'
p3265
S'infrastructure_and_utilities_damage'
p3266
sS'575786597322522626'
p3267
S'donation_needs_or_offers_or_volunteering_services'
p3268
sS'575740497391583232'
p3269
S'other_useful_information'
p3270
sS'575784608379310081'
p3271
S'other_useful_information'
p3272
sS'575753166706380800'
p3273
S'other_useful_information'
p3274
sS'575740409634254848'
p3275
S'not_related_or_irrelevant'
p3276
sS'575740673808183297'
p3277
S'other_useful_information'
p3278
sS'575753187799388161'
p3279
S'donation_needs_or_offers_or_volunteering_services'
p3280
sS'575785472972091393'
p3281
S'not_related_or_irrelevant'
p3282
sS'575795120127275008'
p3283
S'displaced_people_and_evacuations'
p3284
sS'575790916667064320'
p3285
S'infrastructure_and_utilities_damage'
p3286
sS'575764862334279680'
p3287
S'sympathy_and_emotional_support'
p3288
sS'575752729789882368'
p3289
S'not_related_or_irrelevant'
p3290
sS'575736745372811265'
p3291
S'not_related_or_irrelevant'
p3292
sS'575768344646795264'
p3293
S'sympathy_and_emotional_support'
p3294
sS'575754462918213632'
p3295
S'other_useful_information'
p3296
sS'575755506473525248'
p3297
S'other_useful_information'
p3298
sS'575746765695156225'
p3299
S'not_related_or_irrelevant'
p3300
sS'575740656041127936'
p3301
S'sympathy_and_emotional_support'
p3302
sS'575766608213188608'
p3303
S'injured_or_dead_people'
p3304
sS'575776257289371649'
p3305
S'not_related_or_irrelevant'
p3306
sS'575769976822362112'
p3307
S'not_related_or_irrelevant'
p3308
sS'575740513799704576'
p3309
S'donation_needs_or_offers_or_volunteering_services'
p3310
sS'575749313172668416'
p3311
S'donation_needs_or_offers_or_volunteering_services'
p3312
sS'575764214414880768'
p3313
S'sympathy_and_emotional_support'
p3314
sS'575780371691786240'
p3315
S'injured_or_dead_people'
p3316
sS'575751898487255040'
p3317
S'donation_needs_or_offers_or_volunteering_services'
p3318
sS'575762208371539968'
p3319
S'donation_needs_or_offers_or_volunteering_services'
p3320
sS'575785246613987328'
p3321
S'not_related_or_irrelevant'
p3322
sS'575780981581316098'
p3323
S'infrastructure_and_utilities_damage'
p3324
sS'575768367086202880'
p3325
S'not_related_or_irrelevant'
p3326
sS'575751467870498816'
p3327
S'donation_needs_or_offers_or_volunteering_services'
p3328
sS'575775248970162176'
p3329
S'infrastructure_and_utilities_damage'
p3330
sS'575751369346301952'
p3331
S'other_useful_information'
p3332
sS'575794861451837440'
p3333
S'not_related_or_irrelevant'
p3334
sS'575744709517185024'
p3335
S'donation_needs_or_offers_or_volunteering_services'
p3336
sS'575740527913537536'
p3337
S'missing_trapped_or_found_people'
p3338
sS'575749088425086977'
p3339
S'not_related_or_irrelevant'
p3340
sS'575797776618946560'
p3341
S'other_useful_information'
p3342
sS'575788802876121089'
p3343
S'sympathy_and_emotional_support'
p3344
sS'575739096116523008'
p3345
S'other_useful_information'
p3346
sS'575798655258660864'
p3347
S'donation_needs_or_offers_or_volunteering_services'
p3348
sS'575771148446642176'
p3349
S'other_useful_information'
p3350
sS'575769460746772480'
p3351
S'other_useful_information'
p3352
sS'575786936129875968'
p3353
S'other_useful_information'
p3354
sS'575752979397087233'
p3355
S'not_related_or_irrelevant'
p3356
sS'575774027458953216'
p3357
S'other_useful_information'
p3358
sS'575770529040318465'
p3359
S'not_related_or_irrelevant'
p3360
sS'575758879327416321'
p3361
S'other_useful_information'
p3362
sS'575794516227153921'
p3363
S'not_related_or_irrelevant'
p3364
sS'575770514406273025'
p3365
S'displaced_people_and_evacuations'
p3366
sS'575795523011112960'
p3367
S'sympathy_and_emotional_support'
p3368
sS'575768195094736897'
p3369
S'caution_and_advice'
p3370
sS'575739164894883841'
p3371
S'not_related_or_irrelevant'
p3372
sS'575793682625904640'
p3373
S'donation_needs_or_offers_or_volunteering_services'
p3374
sS'575794658648834049'
p3375
S'displaced_people_and_evacuations'
p3376
sS'575753259870191616'
p3377
S'infrastructure_and_utilities_damage'
p3378
sS'575752750056796160'
p3379
S'other_useful_information'
p3380
sS'575795724731944961'
p3381
S'other_useful_information'
p3382
sS'575786973798903809'
p3383
S'other_useful_information'
p3384
sS'575771719442501632'
p3385
S'infrastructure_and_utilities_damage'
p3386
sS'575739322349043713'
p3387
S'other_useful_information'
p3388
sS'575750404996124672'
p3389
S'not_related_or_irrelevant'
p3390
sS'575772702276976640'
p3391
S'displaced_people_and_evacuations'
p3392
sS'575747395100798977'
p3393
S'other_useful_information'
p3394
sS'575800521614712833'
p3395
S'displaced_people_and_evacuations'
p3396
sS'575794622884007936'
p3397
S'donation_needs_or_offers_or_volunteering_services'
p3398
sS'575738277786951681'
p3399
S'not_related_or_irrelevant'
p3400
sS'575773400809017344'
p3401
S'displaced_people_and_evacuations'
p3402
sS'575754591389683712'
p3403
S'not_related_or_irrelevant'
p3404
sS'575740508011548672'
p3405
S'other_useful_information'
p3406
sS'575739573227024384'
p3407
S'infrastructure_and_utilities_damage'
p3408
sS'575753448509083649'
p3409
S'other_useful_information'
p3410
sS'575753277280772096'
p3411
S'donation_needs_or_offers_or_volunteering_services'
p3412
sS'575740836153061376'
p3413
S'not_related_or_irrelevant'
p3414
sS'575760671574372354'
p3415
S'donation_needs_or_offers_or_volunteering_services'
p3416
sS'575742469125488640'
p3417
S'other_useful_information'
p3418
sS'575799480118820866'
p3419
S'not_related_or_irrelevant'
p3420
sS'575770465089687552'
p3421
S'other_useful_information'
p3422
sS'575764672642703361'
p3423
S'donation_needs_or_offers_or_volunteering_services'
p3424
sS'575766113390358529'
p3425
S'not_related_or_irrelevant'
p3426
sS'575797747233615872'
p3427
S'injured_or_dead_people'
p3428
sS'575769529147482112'
p3429
S'not_related_or_irrelevant'
p3430
sS'575738655932702720'
p3431
S'not_related_or_irrelevant'
p3432
sS'575795398381436928'
p3433
S'other_useful_information'
p3434
sS'575789973980516352'
p3435
S'infrastructure_and_utilities_damage'
p3436
sS'575772834141749248'
p3437
S'sympathy_and_emotional_support'
p3438
sS'575760932476821504'
p3439
S'displaced_people_and_evacuations'
p3440
sS'575742522544156672'
p3441
S'other_useful_information'
p3442
sS'575762395211104259'
p3443
S'injured_or_dead_people'
p3444
sS'575749319791349762'
p3445
S'displaced_people_and_evacuations'
p3446
sS'575779571313831936'
p3447
S'donation_needs_or_offers_or_volunteering_services'
p3448
sS'575752638815420417'
p3449
S'missing_trapped_or_found_people'
p3450
sS'575771433336352768'
p3451
S'infrastructure_and_utilities_damage'
p3452
sS'575785695249203200'
p3453
S'not_related_or_irrelevant'
p3454
sS'575797689415168000'
p3455
S'donation_needs_or_offers_or_volunteering_services'
p3456
sS'575740629034012672'
p3457
S'injured_or_dead_people'
p3458
sS'575781649994018816'
p3459
S'caution_and_advice'
p3460
sS'575747826543501312'
p3461
S'infrastructure_and_utilities_damage'
p3462
sS'575794865172320256'
p3463
S'other_useful_information'
p3464
sS'575747314712772608'
p3465
S'infrastructure_and_utilities_damage'
p3466
sS'575740520758038529'
p3467
S'sympathy_and_emotional_support'
p3468
sS'575741635180560385'
p3469
S'not_related_or_irrelevant'
p3470
sS'575799524989497344'
p3471
S'donation_needs_or_offers_or_volunteering_services'
p3472
sS'575800273312092161'
p3473
S'donation_needs_or_offers_or_volunteering_services'
p3474
sS'575792365761380352'
p3475
S'donation_needs_or_offers_or_volunteering_services'
p3476
sS'575776406497591296'
p3477
S'donation_needs_or_offers_or_volunteering_services'
p3478
sS'575742264065966080'
p3479
S'other_useful_information'
p3480
sS'575769449862561792'
p3481
S'other_useful_information'
p3482
sS'575755155955585024'
p3483
S'donation_needs_or_offers_or_volunteering_services'
p3484
sS'575753382742351874'
p3485
S'missing_trapped_or_found_people'
p3486
sS'575771737117294592'
p3487
S'infrastructure_and_utilities_damage'
p3488
sS'575771371365662720'
p3489
S'missing_trapped_or_found_people'
p3490
sS'575781344770441216'
p3491
S'other_useful_information'
p3492
sS'575795691693338625'
p3493
S'other_useful_information'
p3494
sS'575767037873618944'
p3495
S'not_related_or_irrelevant'
p3496
sS'575793533849743360'
p3497
S'other_useful_information'
p3498
sS'575771096529510400'
p3499
S'not_related_or_irrelevant'
p3500
sS'575779988164644865'
p3501
S'infrastructure_and_utilities_damage'
p3502
sS'575759350830075904'
p3503
S'other_useful_information'
p3504
sS'575754127403282433'
p3505
S'other_useful_information'
p3506
sS'575764133032800257'
p3507
S'donation_needs_or_offers_or_volunteering_services'
p3508
sS'575769245851652096'
p3509
S'donation_needs_or_offers_or_volunteering_services'
p3510
sS'575748041694519296'
p3511
S'other_useful_information'
p3512
sS'575769569215688704'
p3513
S'not_related_or_irrelevant'
p3514
sS'575788854856155137'
p3515
S'injured_or_dead_people'
p3516
sS'575789971119939586'
p3517
S'other_useful_information'
p3518
sS'575755860158332928'
p3519
S'donation_needs_or_offers_or_volunteering_services'
p3520
sS'575753122792009728'
p3521
S'not_related_or_irrelevant'
p3522
sS'575759581663526912'
p3523
S'not_related_or_irrelevant'
p3524
sS'575778191266156544'
p3525
S'not_related_or_irrelevant'
p3526
sS'575761440704856065'
p3527
S'not_related_or_irrelevant'
p3528
sS'575745544875737088'
p3529
S'other_useful_information'
p3530
sS'575740694867746816'
p3531
S'other_useful_information'
p3532
sS'575769209092767744'
p3533
S'donation_needs_or_offers_or_volunteering_services'
p3534
sS'575739867256086529'
p3535
S'donation_needs_or_offers_or_volunteering_services'
p3536
sS'575753458789253120'
p3537
S'not_related_or_irrelevant'
p3538
sS'575769524923842560'
p3539
S'other_useful_information'
p3540
sS'575787723526533120'
p3541
S'donation_needs_or_offers_or_volunteering_services'
p3542
sS'575775037870972929'
p3543
S'not_related_or_irrelevant'
p3544
sS'575738169120829440'
p3545
S'other_useful_information'
p3546
sS'575767694521163776'
p3547
S'infrastructure_and_utilities_damage'
p3548
sS'575740579931275264'
p3549
S'donation_needs_or_offers_or_volunteering_services'
p3550
sS'575772717728727040'
p3551
S'not_related_or_irrelevant'
p3552
sS'575756103067115520'
p3553
S'injured_or_dead_people'
p3554
sS'575787338753773568'
p3555
S'donation_needs_or_offers_or_volunteering_services'
p3556
sS'575758789493706752'
p3557
S'displaced_people_and_evacuations'
p3558
sS'575769572445319168'
p3559
S'infrastructure_and_utilities_damage'
p3560
sS'575782138810736640'
p3561
S'donation_needs_or_offers_or_volunteering_services'
p3562
sS'575756052672675840'
p3563
S'other_useful_information'
p3564
sS'575770469170708480'
p3565
S'other_useful_information'
p3566
sS'575757844928036865'
p3567
S'infrastructure_and_utilities_damage'
p3568
sS'575753074045763584'
p3569
S'not_related_or_irrelevant'
p3570
sS'575769440932888576'
p3571
S'donation_needs_or_offers_or_volunteering_services'
p3572
sS'575770732996661248'
p3573
S'other_useful_information'
p3574
sS'575740625355567105'
p3575
S'other_useful_information'
p3576
sS'575757486734495744'
p3577
S'other_useful_information'
p3578
sS'575788277552275456'
p3579
S'other_useful_information'
p3580
sS'575772714373271552'
p3581
S'not_related_or_irrelevant'
p3582
sS'575775173758025728'
p3583
S'donation_needs_or_offers_or_volunteering_services'
p3584
sS'575771685955088384'
p3585
S'other_useful_information'
p3586
sS'575751231429304320'
p3587
S'not_related_or_irrelevant'
p3588
sS'575769502513676288'
p3589
S'not_related_or_irrelevant'
p3590
sS'575796973808304129'
p3591
S'other_useful_information'
p3592
sS'575766268856291328'
p3593
S'donation_needs_or_offers_or_volunteering_services'
p3594
sS'575763588062687232'
p3595
S'not_related_or_irrelevant'
p3596
sS'575738640577486848'
p3597
S'not_related_or_irrelevant'
p3598
sS'575755337812197378'
p3599
S'not_related_or_irrelevant'
p3600
sS'575797771007062017'
p3601
S'donation_needs_or_offers_or_volunteering_services'
p3602
sS'575789788462063616'
p3603
S'not_related_or_irrelevant'
p3604
sS'575773597119029249'
p3605
S'injured_or_dead_people'
p3606
sS'575782298488074241'
p3607
S'other_useful_information'
p3608
sS'575770644224180224'
p3609
S'other_useful_information'
p3610
sS'575797415682392064'
p3611
S'other_useful_information'
p3612
sS'575740882621710336'
p3613
S'caution_and_advice'
p3614
sS'575787347696050176'
p3615
S'infrastructure_and_utilities_damage'
p3616
sS'575740628056735745'
p3617
S'injured_or_dead_people'
p3618
sS'575798735399219201'
p3619
S'not_related_or_irrelevant'
p3620
sS'575785162832769024'
p3621
S'infrastructure_and_utilities_damage'
p3622
sS'575753136620638210'
p3623
S'other_useful_information'
p3624
sS'575790249068130305'
p3625
S'injured_or_dead_people'
p3626
sS'575769443294314496'
p3627
S'other_useful_information'
p3628
sS'575769457483587584'
p3629
S'infrastructure_and_utilities_damage'
p3630
sS'575737024310697984'
p3631
S'other_useful_information'
p3632
sS'575761213969162242'
p3633
S'donation_needs_or_offers_or_volunteering_services'
p3634
sS'575798858254393344'
p3635
S'other_useful_information'
p3636
sS'575770654215135234'
p3637
S'donation_needs_or_offers_or_volunteering_services'
p3638
sS'575788064359886848'
p3639
S'not_related_or_irrelevant'
p3640
sS'575769534092570624'
p3641
S'other_useful_information'
p3642
sS'575767688217235456'
p3643
S'displaced_people_and_evacuations'
p3644
sS'575739780564172800'
p3645
S'other_useful_information'
p3646
sS'575758319576612864'
p3647
S'not_related_or_irrelevant'
p3648
sS'575740621375193088'
p3649
S'other_useful_information'
p3650
sS'575737639497682944'
p3651
S'other_useful_information'
p3652
sS'575777670530625536'
p3653
S'caution_and_advice'
p3654
sS'575799530731372544'
p3655
S'other_useful_information'
p3656
sS'575789782866984961'
p3657
S'donation_needs_or_offers_or_volunteering_services'
p3658
sS'575792352331100161'
p3659
S'not_related_or_irrelevant'
p3660
sS'575753453626126336'
p3661
S'donation_needs_or_offers_or_volunteering_services'
p3662
sS'575737691179868160'
p3663
S'sympathy_and_emotional_support'
p3664
sS'575755306661244928'
p3665
S'caution_and_advice'
p3666
sS'575796976610115584'
p3667
S'caution_and_advice'
p3668
sS'575792757236617216'
p3669
S'not_related_or_irrelevant'
p3670
sS'575739811283275776'
p3671
S'donation_needs_or_offers_or_volunteering_services'
p3672
sS'575799691142557696'
p3673
S'donation_needs_or_offers_or_volunteering_services'
p3674
sS'575781221244006400'
p3675
S'other_useful_information'
p3676
sS'575794910999117824'
p3677
S'not_related_or_irrelevant'
p3678
sS'575751612699930624'
p3679
S'not_related_or_irrelevant'
p3680
sS'575769586420703233'
p3681
S'not_related_or_irrelevant'
p3682
sS'575785011317764097'
p3683
S'caution_and_advice'
p3684
sS'575786827040309250'
p3685
S'donation_needs_or_offers_or_volunteering_services'
p3686
sS'575771163600666625'
p3687
S'other_useful_information'
p3688
sS'575750562206982144'
p3689
S'sympathy_and_emotional_support'
p3690
sS'575737350430420992'
p3691
S'not_related_or_irrelevant'
p3692
sS'575798529836388352'
p3693
S'not_related_or_irrelevant'
p3694
sS'575799538390163456'
p3695
S'infrastructure_and_utilities_damage'
p3696
sS'575758166211715072'
p3697
S'infrastructure_and_utilities_damage'
p3698
sS'575778899038240769'
p3699
S'other_useful_information'
p3700
sS'575739042353934336'
p3701
S'donation_needs_or_offers_or_volunteering_services'
p3702
sS'575747351400177664'
p3703
S'other_useful_information'
p3704
sS'575754073338552320'
p3705
S'injured_or_dead_people'
p3706
sS'575760574488797185'
p3707
S'donation_needs_or_offers_or_volunteering_services'
p3708
sS'575769451104108544'
p3709
S'donation_needs_or_offers_or_volunteering_services'
p3710
sS'575780363387035649'
p3711
S'donation_needs_or_offers_or_volunteering_services'
p3712
sS'575740536763609090'
p3713
S'not_related_or_irrelevant'
p3714
sS'575763006572863488'
p3715
S'other_useful_information'
p3716
sS'575746917742804992'
p3717
S'caution_and_advice'
p3718
sS'575769575192592385'
p3719
S'other_useful_information'
p3720
sS'575781383005732864'
p3721
S'not_related_or_irrelevant'
p3722
sS'575760387045359618'
p3723
S'other_useful_information'
p3724
sS'575786961732005888'
p3725
S'not_related_or_irrelevant'
p3726
sS'575753406855442435'
p3727
S'displaced_people_and_evacuations'
p3728
sS'575751661211226112'
p3729
S'donation_needs_or_offers_or_volunteering_services'
p3730
sS'575752255460274176'
p3731
S'other_useful_information'
p3732
sS'575753342846124032'
p3733
S'donation_needs_or_offers_or_volunteering_services'
p3734
sS'575771196525928448'
p3735
S'infrastructure_and_utilities_damage'
p3736
sS'575740514114252800'
p3737
S'not_related_or_irrelevant'
p3738
sS'575748101597696000'
p3739
S'other_useful_information'
p3740
sS'575738223407685632'
p3741
S'caution_and_advice'
p3742
sS'575766398397452288'
p3743
S'other_useful_information'
p3744
sS'575785102459842560'
p3745
S'donation_needs_or_offers_or_volunteering_services'
p3746
sS'575771196106612738'
p3747
S'other_useful_information'
p3748
sS'575766741520793600'
p3749
S'donation_needs_or_offers_or_volunteering_services'
p3750
sS'575796836784599040'
p3751
S'not_related_or_irrelevant'
p3752
sS'575771831887527936'
p3753
S'other_useful_information'
p3754
sS'575773238703300610'
p3755
S'other_useful_information'
p3756
sS'575739769180811266'
p3757
S'other_useful_information'
p3758
sS'575738022047649793'
p3759
S'injured_or_dead_people'
p3760
sS'575796914609786880'
p3761
S'not_related_or_irrelevant'
p3762
sS'575753090973958145'
p3763
S'other_useful_information'
p3764
sS'575760676041330689'
p3765
S'injured_or_dead_people'
p3766
sS'575742760080314368'
p3767
S'not_related_or_irrelevant'
p3768
sS'575757292370440193'
p3769
S'donation_needs_or_offers_or_volunteering_services'
p3770
sS'575770686607736834'
p3771
S'other_useful_information'
p3772
sS'575752444988293120'
p3773
S'infrastructure_and_utilities_damage'
p3774
sS'575766587564683264'
p3775
S'not_related_or_irrelevant'
p3776
sS'575753439914901504'
p3777
S'other_useful_information'
p3778
sS'575753197047955456'
p3779
S'infrastructure_and_utilities_damage'
p3780
sS'575779549453008896'
p3781
S'donation_needs_or_offers_or_volunteering_services'
p3782
sS'575762698123632641'
p3783
S'other_useful_information'
p3784
sS'575739020245774336'
p3785
S'not_related_or_irrelevant'
p3786
sS'575752113948639232'
p3787
S'donation_needs_or_offers_or_volunteering_services'
p3788
sS'575791973954678785'
p3789
S'donation_needs_or_offers_or_volunteering_services'
p3790
sS'575759876137304064'
p3791
S'not_related_or_irrelevant'
p3792
sS'575756815746531328'
p3793
S'donation_needs_or_offers_or_volunteering_services'
p3794
sS'575760609402228736'
p3795
S'not_related_or_irrelevant'
p3796
sS'575769257620852736'
p3797
S'not_related_or_irrelevant'
p3798
sS'575785943145267200'
p3799
S'sympathy_and_emotional_support'
p3800
sS'575793341717069824'
p3801
S'other_useful_information'
p3802
sS'575753188776767489'
p3803
S'other_useful_information'
p3804
sS'575744981517795328'
p3805
S'other_useful_information'
p3806
sS'575741028684013568'
p3807
S'other_useful_information'
p3808
sS'575771084223483904'
p3809
S'donation_needs_or_offers_or_volunteering_services'
p3810
sS'575787567980871683'
p3811
S'not_related_or_irrelevant'
p3812
sS'575771084223447040'
p3813
S'not_related_or_irrelevant'
p3814
sS'575770499805925376'
p3815
S'infrastructure_and_utilities_damage'
p3816
sS'575753178878246913'
p3817
S'not_related_or_irrelevant'
p3818
sS'575792845094715392'
p3819
S'not_related_or_irrelevant'
p3820
sS'575740696948174848'
p3821
S'donation_needs_or_offers_or_volunteering_services'
p3822
sS'575739114076569600'
p3823
S'infrastructure_and_utilities_damage'
p3824
sS'575752899721986048'
p3825
S'injured_or_dead_people'
p3826
sS'575794652818894848'
p3827
S'sympathy_and_emotional_support'
p3828
sS'575789116312305664'
p3829
S'caution_and_advice'
p3830
sS'575790389241708544'
p3831
S'not_related_or_irrelevant'
p3832
sS'575739205466238976'
p3833
S'injured_or_dead_people'
p3834
sS'575769513213341697'
p3835
S'other_useful_information'
p3836
sS'575775920268689409'
p3837
S'other_useful_information'
p3838
sS'575759711716405249'
p3839
S'donation_needs_or_offers_or_volunteering_services'
p3840
sS'575747418593038336'
p3841
S'other_useful_information'
p3842
sS'575785811456712705'
p3843
S'other_useful_information'
p3844
sS'575775871648284674'
p3845
S'donation_needs_or_offers_or_volunteering_services'
p3846
sS'575752211164192768'
p3847
S'missing_trapped_or_found_people'
p3848
sS'575767428719767552'
p3849
S'other_useful_information'
p3850
sS'575769837701591040'
p3851
S'donation_needs_or_offers_or_volunteering_services'
p3852
sS'575771077206392832'
p3853
S'other_useful_information'
p3854
sS'575778727642058752'
p3855
S'displaced_people_and_evacuations'
p3856
sS'575790914943119362'
p3857
S'sympathy_and_emotional_support'
p3858
sS'575760733482401792'
p3859
S'other_useful_information'
p3860
sS'575789291860717568'
p3861
S'other_useful_information'
p3862
sS'575791760254828544'
p3863
S'donation_needs_or_offers_or_volunteering_services'
p3864
sS'575745586026033152'
p3865
S'other_useful_information'
p3866
sS'575777821307461633'
p3867
S'donation_needs_or_offers_or_volunteering_services'
p3868
sS'575738596273098754'
p3869
S'caution_and_advice'
p3870
sS'575755332149972992'
p3871
S'infrastructure_and_utilities_damage'
p3872
sS'575767901745102848'
p3873
S'not_related_or_irrelevant'
p3874
sS'575740508049309696'
p3875
S'other_useful_information'
p3876
sS'575775427194564608'
p3877
S'displaced_people_and_evacuations'
p3878
sS'575754810651082754'
p3879
S'sympathy_and_emotional_support'
p3880
sS'575752096529661953'
p3881
S'other_useful_information'
p3882
sS'575745570767138816'
p3883
S'not_related_or_irrelevant'
p3884
sS'575753204857708544'
p3885
S'not_related_or_irrelevant'
p3886
sS'575740561417748480'
p3887
S'injured_or_dead_people'
p3888
sS'575772998428286977'
p3889
S'not_related_or_irrelevant'
p3890
sS'575760832878923776'
p3891
S'donation_needs_or_offers_or_volunteering_services'
p3892
sS'575788155963490304'
p3893
S'other_useful_information'
p3894
sS'575766225470427138'
p3895
S'caution_and_advice'
p3896
sS'575753338576375810'
p3897
S'other_useful_information'
p3898
sS'575776026820804608'
p3899
S'infrastructure_and_utilities_damage'
p3900
sS'575776071674560512'
p3901
S'not_related_or_irrelevant'
p3902
sS'575797057304166400'
p3903
S'infrastructure_and_utilities_damage'
p3904
sS'575785285302145026'
p3905
S'not_related_or_irrelevant'
p3906
sS'575764724152844288'
p3907
S'displaced_people_and_evacuations'
p3908
sS'575740672335970304'
p3909
S'sympathy_and_emotional_support'
p3910
sS'575740345117372416'
p3911
S'donation_needs_or_offers_or_volunteering_services'
p3912
sS'575757409089519616'
p3913
S'not_related_or_irrelevant'
p3914
sS'575772718504615936'
p3915
S'infrastructure_and_utilities_damage'
p3916
sS'575793323673317380'
p3917
S'not_related_or_irrelevant'
p3918
sS'575794535390965760'
p3919
S'other_useful_information'
p3920
sS'575778013591257090'
p3921
S'sympathy_and_emotional_support'
p3922
sS'575793195084222464'
p3923
S'not_related_or_irrelevant'
p3924
sS'575789444147515392'
p3925
S'displaced_people_and_evacuations'
p3926
sS'575786374193790977'
p3927
S'not_related_or_irrelevant'
p3928
sS'575753364102868993'
p3929
S'donation_needs_or_offers_or_volunteering_services'
p3930
sS'575782903960895489'
p3931
S'other_useful_information'
p3932
sS'575743537452449792'
p3933
S'other_useful_information'
p3934
sS'575740627855368192'
p3935
S'donation_needs_or_offers_or_volunteering_services'
p3936
sS'575793040620658688'
p3937
S'injured_or_dead_people'
p3938
sS'575785816171085825'
p3939
S'donation_needs_or_offers_or_volunteering_services'
p3940
sS'575780544883003394'
p3941
S'other_useful_information'
p3942
sS'575752525267136512'
p3943
S'infrastructure_and_utilities_damage'
p3944
sS'575769466480394240'
p3945
S'not_related_or_irrelevant'
p3946
sS'575766503607300096'
p3947
S'donation_needs_or_offers_or_volunteering_services'
p3948
sS'575752129358381057'
p3949
S'not_related_or_irrelevant'
p3950
sS'575738589499252736'
p3951
S'caution_and_advice'
p3952
sS'575748928185856000'
p3953
S'not_related_or_irrelevant'
p3954
sS'575740983037591553'
p3955
S'other_useful_information'
p3956
sS'575795239031431168'
p3957
S'not_related_or_irrelevant'
p3958
sS'575792021949960192'
p3959
S'not_related_or_irrelevant'
p3960
sS'575757453452668928'
p3961
S'other_useful_information'
p3962
sS'575753158963630080'
p3963
S'injured_or_dead_people'
p3964
sS'575737885971742720'
p3965
S'not_related_or_irrelevant'
p3966
sS'575744078668636160'
p3967
S'donation_needs_or_offers_or_volunteering_services'
p3968
sS'575790936170590209'
p3969
S'infrastructure_and_utilities_damage'
p3970
sS'575792946538139648'
p3971
S'not_related_or_irrelevant'
p3972
sS'575796846825578496'
p3973
S'infrastructure_and_utilities_damage'
p3974
sS'575777592977960960'
p3975
S'other_useful_information'
p3976
sS'575771152150175744'
p3977
S'injured_or_dead_people'
p3978
sS'575740944927956992'
p3979
S'donation_needs_or_offers_or_volunteering_services'
p3980
sS'575754277911576576'
p3981
S'infrastructure_and_utilities_damage'
p3982
sS'575737709605613569'
p3983
S'other_useful_information'
p3984
sS'575753244389081088'
p3985
S'donation_needs_or_offers_or_volunteering_services'
p3986
sS'575769202755170304'
p3987
S'not_related_or_irrelevant'
p3988
sS'575783097167298560'
p3989
S'not_related_or_irrelevant'
p3990
sS'575781017430069248'
p3991
S'infrastructure_and_utilities_damage'
p3992
sS'575741894711320576'
p3993
S'other_useful_information'
p3994
sS'575741909890678784'
p3995
S'other_useful_information'
p3996
sS'575756641703981058'
p3997
S'other_useful_information'
p3998
sS'575759407193022464'
p3999
S'injured_or_dead_people'
p4000
sS'575753104353710081'
p4001
S'not_related_or_irrelevant'
p4002
sS'575740503242625024'
p4003
S'injured_or_dead_people'
p4004
sS'575795594184294401'
p4005
S'displaced_people_and_evacuations'
p4006
sS'575759445042528257'
p4007
S'donation_needs_or_offers_or_volunteering_services'
p4008
sS'575740529125646336'
p4009
S'not_related_or_irrelevant'
p4010
sS'575741883089096704'
p4011
S'donation_needs_or_offers_or_volunteering_services'
p4012
sS'575740683455102976'
p4013
S'injured_or_dead_people'
p4014
sS'575740563435098112'
p4015
S'sympathy_and_emotional_support'
p4016
sS'575740703461928961'
p4017
S'donation_needs_or_offers_or_volunteering_services'
p4018
s.