(dp0
S'580971795240599552'
p1
S'Not physical landslide'
p2
sS'590391693616279552'
p3
S'Not physical landslide'
p4
sS'582880721200656384'
p5
S'Not physical landslide'
p6
sS'580331500832448512'
p7
S'Not physical landslide'
p8
sS'577403817978789889'
p9
S'Not physical landslide'
p10
sS'580269421194829824'
p11
S'Not physical landslide'
p12
sS'580228330399539201'
p13
S'Not physical landslide'
p14
sS'591101060510515200'
p15
S'Not physical landslide'
p16
sS'580278237286293504'
p17
S'Not physical landslide'
p18
sS'580357648849248256'
p19
S'Not physical landslide'
p20
sS'580212569929072640'
p21
S'Not physical landslide'
p22
sS'590795737723772929'
p23
S'Physical landslide'
p24
sS'577431933887639552'
p25
S'Not physical landslide'
p26
sS'578778005163622400'
p27
S'Not physical landslide'
p28
sS'578781743748022272'
p29
S'Not physical landslide'
p30
sS'580213603543965696'
p31
S'Not physical landslide'
p32
sS'580659373694943232'
p33
S'Physical landslide'
p34
sS'580900809145225217'
p35
S'Not physical landslide'
p36
sS'580922822425448449'
p37
S'Not physical landslide'
p38
sS'580208247577137153'
p39
S'Not physical landslide'
p40
sS'591024602849140736'
p41
S'Not physical landslide'
p42
sS'580318235951697920'
p43
S'Not physical landslide'
p44
sS'577761950756548608'
p45
S'Not physical landslide'
p46
sS'590878188584226816'
p47
S'Not physical landslide'
p48
sS'577424235674480640'
p49
S'Not physical landslide'
p50
sS'580695188466700288'
p51
S'Not physical landslide'
p52
sS'580207263299719168'
p53
S'Not physical landslide'
p54
sS'580908055132426240'
p55
S'Not physical landslide'
p56
sS'590769089041281024'
p57
S'Not physical landslide'
p58
sS'580345314957246464'
p59
S'Not physical landslide'
p60
sS'580931175398522881'
p61
S'Not physical landslide'
p62
sS'580915363183009792'
p63
S'Not physical landslide'
p64
sS'577751572458942464'
p65
S'Not physical landslide'
p66
sS'580681904711720960'
p67
S'Not physical landslide'
p68
sS'580253271035654144'
p69
S'Not physical landslide'
p70
sS'577670502027689985'
p71
S'Not physical landslide'
p72
sS'577647909098921984'
p73
S'Not physical landslide'
p74
sS'592593781179953152'
p75
S'Physical landslide'
p76
sS'579830004147699712'
p77
S'Not physical landslide'
p78
sS'580264325170012160'
p79
S'Not physical landslide'
p80
sS'590874958890414082'
p81
S'Not physical landslide'
p82
sS'577704555326128128'
p83
S'Not physical landslide'
p84
sS'580950833778528256'
p85
S'Not physical landslide'
p86
sS'580958795272065025'
p87
S'Not physical landslide'
p88
sS'578800218566717440'
p89
S'Not physical landslide'
p90
sS'580208215477997568'
p91
S'Not physical landslide'
p92
sS'590811531836788736'
p93
S'Physical landslide'
p94
sS'577423071650414592'
p95
S'Not physical landslide'
p96
sS'578829187823321089'
p97
S'Not physical landslide'
p98
sS'580922835952095232'
p99
S'Not physical landslide'
p100
sS'577760886275895297'
p101
S'Not physical landslide'
p102
sS'580980405437759488'
p103
S'Not physical landslide'
p104
sS'580628849899249664'
p105
S'Not physical landslide'
p106
sS'577420427691175936'
p107
S'Not physical landslide'
p108
sS'590454836056981504'
p109
S'Not physical landslide'
p110
sS'580370065121509377'
p111
S'Not physical landslide'
p112
sS'577428153733353473'
p113
S'Physical landslide'
p114
sS'580958290550628353'
p115
S'Not physical landslide'
p116
sS'580926159656910848'
p117
S'Not physical landslide'
p118
sS'581056823052124160'
p119
S'Not physical landslide'
p120
sS'578786641806041088'
p121
S'Not physical landslide'
p122
sS'580228974602649600'
p123
S'Not physical landslide'
p124
sS'582834678878597120'
p125
S'Not physical landslide'
p126
sS'580537374578446336'
p127
S'Not physical landslide'
p128
sS'577441738614263808'
p129
S'Not physical landslide'
p130
sS'580612355484192768'
p131
S'Not physical landslide'
p132
sS'582880536768589824'
p133
S'Physical landslide'
p134
sS'580660156192694272'
p135
S'Not physical landslide'
p136
sS'580258472660455424'
p137
S'Not physical landslide'
p138
sS'580323948652552192'
p139
S'Not physical landslide'
p140
sS'580999869394857984'
p141
S'Not physical landslide'
p142
sS'580223682628440064'
p143
S'Not physical landslide'
p144
sS'578832174000041984'
p145
S'Not physical landslide'
p146
sS'577669326234320896'
p147
S'Not physical landslide'
p148
sS'580533195613069313'
p149
S'Not physical landslide'
p150
sS'590800258478768129'
p151
S'Physical landslide'
p152
sS'577380840180723712'
p153
S'Physical landslide'
p154
sS'580915529269030912'
p155
S'Not physical landslide'
p156
sS'580603821501612032'
p157
S'Not physical landslide'
p158
sS'580645925510610944'
p159
S'Not physical landslide'
p160
sS'590878096452104192'
p161
S'Not physical landslide'
p162
sS'580672156801069056'
p163
S'Not physical landslide'
p164
sS'580255220648800256'
p165
S'Not physical landslide'
p166
sS'579903882601562112'
p167
S'Not physical landslide'
p168
sS'590810832134656000'
p169
S'Not physical landslide'
p170
sS'580928331723481088'
p171
S'Not physical landslide'
p172
sS'591043458975936512'
p173
S'Physical landslide'
p174
sS'581001243864084481'
p175
S'Not physical landslide'
p176
sS'580633357496795136'
p177
S'Not physical landslide'
p178
sS'578813088629145600'
p179
S'Not physical landslide'
p180
sS'580914499403657216'
p181
S'Not physical landslide'
p182
sS'582876053481398272'
p183
S'Not physical landslide'
p184
sS'581013533229363200'
p185
S'Not physical landslide'
p186
sS'580617276744929280'
p187
S'Not physical landslide'
p188
sS'578769246378934272'
p189
S'Not physical landslide'
p190
sS'580206485021523968'
p191
S'Not physical landslide'
p192
sS'580347608692051968'
p193
S'Not physical landslide'
p194
sS'577665014095605761'
p195
S'Not physical landslide'
p196
sS'581022179883556865'
p197
S'Not physical landslide'
p198
sS'577659527908040704'
p199
S'Not physical landslide'
p200
sS'581016063774588928'
p201
S'Not physical landslide'
p202
sS'579846386176409600'
p203
S'Not physical landslide'
p204
sS'580703680292208640'
p205
S'Not physical landslide'
p206
sS'577419801297055744'
p207
S'Not physical landslide'
p208
sS'582858537233043456'
p209
S'Physical landslide'
p210
sS'590826649635127296'
p211
S'Not physical landslide'
p212
sS'577422227836137472'
p213
S'Physical landslide'
p214
sS'580220065863364608'
p215
S'Not physical landslide'
p216
sS'582792120303525888'
p217
S'Physical landslide'
p218
sS'578846959361986560'
p219
S'Not physical landslide'
p220
sS'591025117741867008'
p221
S'Not physical landslide'
p222
sS'580212459002294272'
p223
S'Not physical landslide'
p224
sS'592592524084129792'
p225
S'Physical landslide'
p226
sS'580945558866563072'
p227
S'Not physical landslide'
p228
sS'591037947727720449'
p229
S'Not physical landslide'
p230
sS'580362605950160896'
p231
S'Not physical landslide'
p232
sS'578805583916089344'
p233
S'Physical landslide'
p234
sS'580689385630392320'
p235
S'Physical landslide'
p236
sS'592589529929916417'
p237
S'Physical landslide'
p238
sS'578797361922736128'
p239
S'Not physical landslide'
p240
sS'580901961391849472'
p241
S'Not physical landslide'
p242
sS'580931644049113088'
p243
S'Not physical landslide'
p244
sS'577441698122432512'
p245
S'Not physical landslide'
p246
sS'579918297715634176'
p247
S'Not physical landslide'
p248
sS'577431634338799616'
p249
S'Not physical landslide'
p250
sS'590468299554586624'
p251
S'Physical landslide'
p252
sS'580977217964019712'
p253
S'Not physical landslide'
p254
sS'580923783256481792'
p255
S'Not physical landslide'
p256
sS'580702977188605952'
p257
S'Not physical landslide'
p258
sS'580923267877244928'
p259
S'Not physical landslide'
p260
sS'580654416090517505'
p261
S'Not physical landslide'
p262
sS'580229416904691712'
p263
S'Not physical landslide'
p264
sS'582880491851943936'
p265
S'Not physical landslide'
p266
sS'580669914811334657'
p267
S'Not physical landslide'
p268
sS'580200061230960640'
p269
S'Not physical landslide'
p270
sS'581357646697132032'
p271
S'Physical landslide'
p272
sS'580667947783483394'
p273
S'Not physical landslide'
p274
sS'577356625696198656'
p275
S'Not physical landslide'
p276
sS'580573987899604992'
p277
S'Not physical landslide'
p278
sS'580365060213723136'
p279
S'Not physical landslide'
p280
sS'580679960400125952'
p281
S'Not physical landslide'
p282
sS'590465958025768960'
p283
S'Not physical landslide'
p284
sS'590424820434755584'
p285
S'Physical landslide'
p286
sS'590834738094546945'
p287
S'Not physical landslide'
p288
sS'582841517024407552'
p289
S'Physical landslide'
p290
sS'590813145008107520'
p291
S'Not physical landslide'
p292
sS'591035501014077440'
p293
S'Not physical landslide'
p294
sS'591042193307107329'
p295
S'Not physical landslide'
p296
sS'577723821865766912'
p297
S'Not physical landslide'
p298
sS'590884749809422336'
p299
S'Not physical landslide'
p300
sS'578792569280266241'
p301
S'Physical landslide'
p302
sS'590880200289824768'
p303
S'Physical landslide'
p304
sS'580215301578625025'
p305
S'Not physical landslide'
p306
sS'580981542828163073'
p307
S'Not physical landslide'
p308
sS'580561879212363776'
p309
S'Not physical landslide'
p310
sS'582874593473376256'
p311
S'Not physical landslide'
p312
sS'578776335172165632'
p313
S'Not physical landslide'
p314
sS'580935311963897856'
p315
S'Not physical landslide'
p316
sS'580576850717589505'
p317
S'Not physical landslide'
p318
sS'580922257779924992'
p319
S'Not physical landslide'
p320
sS'592592666199719936'
p321
S'Not physical landslide'
p322
sS'580632863672016896'
p323
S'Physical landslide'
p324
sS'582792895033446400'
p325
S'Physical landslide'
p326
sS'577371632936812545'
p327
S'Physical landslide'
p328
sS'580197911830642689'
p329
S'Not physical landslide'
p330
sS'580239596551733248'
p331
S'Not physical landslide'
p332
sS'589976931421925376'
p333
S'Not physical landslide'
p334
sS'580541025174888448'
p335
S'Not physical landslide'
p336
sS'580272092328914944'
p337
S'Not physical landslide'
p338
sS'580289201041752064'
p339
S'Not physical landslide'
p340
sS'579870755925553152'
p341
S'Not physical landslide'
p342
sS'580581832489627649'
p343
S'Physical landslide'
p344
sS'580334173237444608'
p345
S'Not physical landslide'
p346
sS'590442139940573185'
p347
S'Not physical landslide'
p348
sS'577653681824346112'
p349
S'Not physical landslide'
p350
sS'580685620323987456'
p351
S'Physical landslide'
p352
sS'578776783237038080'
p353
S'Not physical landslide'
p354
sS'581351087573192704'
p355
S'Not physical landslide'
p356
sS'577352932670070785'
p357
S'Not physical landslide'
p358
sS'577388756946255872'
p359
S'Not physical landslide'
p360
sS'578775510622162944'
p361
S'Not physical landslide'
p362
sS'578768747080654848'
p363
S'Not physical landslide'
p364
sS'581390625054040064'
p365
S'Not physical landslide'
p366
sS'580896626799194112'
p367
S'Not physical landslide'
p368
sS'580549743878754306'
p369
S'Not physical landslide'
p370
sS'580353923371925504'
p371
S'Physical landslide'
p372
sS'582803171657031680'
p373
S'Not physical landslide'
p374
sS'580912196277817345'
p375
S'Not physical landslide'
p376
sS'580900896114102272'
p377
S'Not physical landslide'
p378
sS'580586861392969728'
p379
S'Not physical landslide'
p380
sS'580922170408333312'
p381
S'Not physical landslide'
p382
sS'577716323150598144'
p383
S'Not physical landslide'
p384
sS'579912026438393856'
p385
S'Not physical landslide'
p386
sS'580674695416156161'
p387
S'Not physical landslide'
p388
sS'580713693882793984'
p389
S'Not physical landslide'
p390
sS'578790819475296257'
p391
S'Not physical landslide'
p392
sS'580694075122270208'
p393
S'Not physical landslide'
p394
sS'580896804507672576'
p395
S'Not physical landslide'
p396
sS'580338832693964800'
p397
S'Not physical landslide'
p398
sS'580634303400402944'
p399
S'Not physical landslide'
p400
sS'580259333184864256'
p401
S'Physical landslide'
p402
sS'580932675588001792'
p403
S'Not physical landslide'
p404
sS'590741865001054210'
p405
S'Physical landslide'
p406
sS'580548017771671555'
p407
S'Not physical landslide'
p408
sS'579859507171340288'
p409
S'Not physical landslide'
p410
sS'580206391933186048'
p411
S'Not physical landslide'
p412
sS'580637900607455233'
p413
S'Not physical landslide'
p414
sS'580321578887618560'
p415
S'Physical landslide'
p416
sS'577379395654008834'
p417
S'Not physical landslide'
p418
sS'578816250710622209'
p419
S'Not physical landslide'
p420
sS'577421595565764608'
p421
S'Not physical landslide'
p422
sS'590410320172187648'
p423
S'Not physical landslide'
p424
sS'582887333164281856'
p425
S'Not physical landslide'
p426
sS'577645651523215360'
p427
S'Not physical landslide'
p428
sS'580712034842574848'
p429
S'Not physical landslide'
p430
sS'580202884136062976'
p431
S'Not physical landslide'
p432
sS'578786494829051906'
p433
S'Not physical landslide'
p434
sS'578782400278327296'
p435
S'Not physical landslide'
p436
sS'578847428834664448'
p437
S'Not physical landslide'
p438
sS'580650350715265024'
p439
S'Not physical landslide'
p440
sS'580659384583262208'
p441
S'Not physical landslide'
p442
sS'590866940219957249'
p443
S'Physical landslide'
p444
sS'577645984089505792'
p445
S'Not physical landslide'
p446
sS'580239492205961216'
p447
S'Not physical landslide'
p448
sS'580626838604644354'
p449
S'Not physical landslide'
p450
sS'580219712698781696'
p451
S'Not physical landslide'
p452
sS'580231676892155904'
p453
S'Not physical landslide'
p454
sS'590877493374144512'
p455
S'Not physical landslide'
p456
sS'578824941291880448'
p457
S'Not physical landslide'
p458
sS'590409709892558849'
p459
S'Not physical landslide'
p460
sS'578840426175705088'
p461
S'Not physical landslide'
p462
sS'580561164888875009'
p463
S'Not physical landslide'
p464
sS'581326958283206656'
p465
S'Physical landslide'
p466
sS'580945328909758464'
p467
S'Not physical landslide'
p468
sS'580266724387397632'
p469
S'Not physical landslide'
p470
sS'578776908223102976'
p471
S'Not physical landslide'
p472
sS'578772841706962944'
p473
S'Not physical landslide'
p474
sS'581027567471198208'
p475
S'Not physical landslide'
p476
sS'577417806507032577'
p477
S'Not physical landslide'
p478
sS'580344461894520832'
p479
S'Not physical landslide'
p480
sS'580695881470615552'
p481
S'Not physical landslide'
p482
sS'580705331547897856'
p483
S'Not physical landslide'
p484
sS'580943927571705856'
p485
S'Not physical landslide'
p486
sS'582841036495413248'
p487
S'Physical landslide'
p488
sS'580218426079203328'
p489
S'Not physical landslide'
p490
sS'580228070507876352'
p491
S'Not physical landslide'
p492
sS'580927944530354176'
p493
S'Not physical landslide'
p494
sS'577758239892209664'
p495
S'Not physical landslide'
p496
sS'578781881480556544'
p497
S'Not physical landslide'
p498
sS'580894517382885376'
p499
S'Not physical landslide'
p500
sS'582839782859874305'
p501
S'Physical landslide'
p502
sS'578791813898629120'
p503
S'Not physical landslide'
p504
sS'577735060381655041'
p505
S'Not physical landslide'
p506
sS'580269109188931584'
p507
S'Not physical landslide'
p508
sS'581046748094816257'
p509
S'Not physical landslide'
p510
sS'580212528862642176'
p511
S'Not physical landslide'
p512
sS'578824609388224512'
p513
S'Not physical landslide'
p514
sS'582800686246674433'
p515
S'Not physical landslide'
p516
sS'582832493373599744'
p517
S'Not physical landslide'
p518
sS'579927044152233984'
p519
S'Physical landslide'
p520
sS'590401148789587969'
p521
S'Not physical landslide'
p522
sS'581016982742405120'
p523
S'Not physical landslide'
p524
sS'590429678764077056'
p525
S'Not physical landslide'
p526
sS'577737693263753216'
p527
S'Not physical landslide'
p528
sS'580285139290324992'
p529
S'Not physical landslide'
p530
sS'582870639469543424'
p531
S'Not physical landslide'
p532
sS'578843644649607169'
p533
S'Not physical landslide'
p534
sS'580975732274401280'
p535
S'Not physical landslide'
p536
sS'580331829410009088'
p537
S'Not physical landslide'
p538
sS'580984525338992640'
p539
S'Not physical landslide'
p540
sS'578779644859539456'
p541
S'Not physical landslide'
p542
sS'578795621747830784'
p543
S'Not physical landslide'
p544
sS'580895113963905024'
p545
S'Not physical landslide'
p546
sS'591086501619838977'
p547
S'Physical landslide'
p548
sS'580645553832349696'
p549
S'Not physical landslide'
p550
sS'592594140719874048'
p551
S'Physical landslide'
p552
sS'590479120460546048'
p553
S'Not physical landslide'
p554
sS'580302672684838912'
p555
S'Not physical landslide'
p556
sS'580250969071439872'
p557
S'Not physical landslide'
p558
sS'577427158492135426'
p559
S'Not physical landslide'
p560
sS'580537883104288771'
p561
S'Not physical landslide'
p562
sS'577655370484723713'
p563
S'Not physical landslide'
p564
sS'582834514164056064'
p565
S'Physical landslide'
p566
sS'578769229408768000'
p567
S'Not physical landslide'
p568
sS'582777611551641600'
p569
S'Physical landslide'
p570
sS'581328656892579840'
p571
S'Not physical landslide'
p572
sS'591113446525112321'
p573
S'Not physical landslide'
p574
sS'581012133028081665'
p575
S'Not physical landslide'
p576
sS'581025667313106944'
p577
S'Not physical landslide'
p578
sS'578779043534749696'
p579
S'Not physical landslide'
p580
sS'578841952520519680'
p581
S'Not physical landslide'
p582
sS'582821973794902016'
p583
S'Not physical landslide'
p584
sS'579907249331515392'
p585
S'Not physical landslide'
p586
sS'580349297469734912'
p587
S'Not physical landslide'
p588
sS'582838389516308480'
p589
S'Physical landslide'
p590
sS'580561632968990720'
p591
S'Not physical landslide'
p592
sS'578789889736511489'
p593
S'Not physical landslide'
p594
sS'580321740447977472'
p595
S'Not physical landslide'
p596
sS'582886739124969472'
p597
S'Not physical landslide'
p598
sS'580601091177488384'
p599
S'Not physical landslide'
p600
sS'580543490746134530'
p601
S'Not physical landslide'
p602
sS'577343139096170496'
p603
S'Not physical landslide'
p604
sS'578804731046469632'
p605
S'Not physical landslide'
p606
sS'580647597876097024'
p607
S'Not physical landslide'
p608
sS'592590356203610112'
p609
S'Physical landslide'
p610
sS'581022517344669696'
p611
S'Not physical landslide'
p612
sS'577747095324606465'
p613
S'Not physical landslide'
p614
s.