(dp0
S'451228640534351872'
p1
S'injured_or_dead_people'
p2
sS'451228944927559680'
p3
S'sympathy_and_emotional_support'
p4
sS'451228846344658946'
p5
S'sympathy_and_emotional_support'
p6
sS'451229191598768128'
p7
S'donation_needs_or_offers_or_volunteering_services'
p8
sS'451228674353008640'
p9
S'injured_or_dead_people'
p10
sS'451229439452794880'
p11
S'not_related_or_irrelevant'
p12
sS'451229215170375680'
p13
S'donation_needs_or_offers_or_volunteering_services'
p14
sS'451229334418636800'
p15
S'not_related_or_irrelevant'
p16
sS'451228469783846912'
p17
S'not_related_or_irrelevant'
p18
sS'451229401754370048'
p19
S'injured_or_dead_people'
p20
sS'451228639778971648'
p21
S'injured_or_dead_people'
p22
sS'451228935469416448'
p23
S'donation_needs_or_offers_or_volunteering_services'
p24
sS'451228604949483520'
p25
S'injured_or_dead_people'
p26
sS'451228970735128576'
p27
S'sympathy_and_emotional_support'
p28
sS'451229329520082944'
p29
S'donation_needs_or_offers_or_volunteering_services'
p30
sS'451228793311485952'
p31
S'injured_or_dead_people'
p32
sS'451229222024278017'
p33
S'injured_or_dead_people'
p34
sS'451229440601632769'
p35
S'injured_or_dead_people'
p36
sS'451229241288704000'
p37
S'other_useful_information'
p38
sS'451228738139611136'
p39
S'sympathy_and_emotional_support'
p40
sS'451228607763861504'
p41
S'donation_needs_or_offers_or_volunteering_services'
p42
sS'451228474888704000'
p43
S'other_useful_information'
p44
sS'451229135235727360'
p45
S'missing_trapped_or_found_people'
p46
sS'451229215610773504'
p47
S'donation_needs_or_offers_or_volunteering_services'
p48
sS'451229183335604224'
p49
S'displaced_people_and_evacuations'
p50
sS'451228707848728576'
p51
S'injured_or_dead_people'
p52
sS'451228845774209024'
p53
S'donation_needs_or_offers_or_volunteering_services'
p54
sS'451228930922799104'
p55
S'injured_or_dead_people'
p56
sS'451229089773256704'
p57
S'donation_needs_or_offers_or_volunteering_services'
p58
sS'451229422939799552'
p59
S'injured_or_dead_people'
p60
sS'451228637686431744'
p61
S'sympathy_and_emotional_support'
p62
sS'451228975315292160'
p63
S'injured_or_dead_people'
p64
sS'451229430640148481'
p65
S'sympathy_and_emotional_support'
p66
sS'451229024803901440'
p67
S'injured_or_dead_people'
p68
sS'451228934596988928'
p69
S'donation_needs_or_offers_or_volunteering_services'
p70
sS'451228896948518912'
p71
S'injured_or_dead_people'
p72
sS'451229435203567616'
p73
S'injured_or_dead_people'
p74
sS'451228758653943808'
p75
S'donation_needs_or_offers_or_volunteering_services'
p76
sS'451228528101847040'
p77
S'donation_needs_or_offers_or_volunteering_services'
p78
sS'451228813100187648'
p79
S'other_useful_information'
p80
sS'451228573609627649'
p81
S'injured_or_dead_people'
p82
sS'451229147097210880'
p83
S'donation_needs_or_offers_or_volunteering_services'
p84
sS'451228707722911744'
p85
S'sympathy_and_emotional_support'
p86
sS'451228693617463296'
p87
S'donation_needs_or_offers_or_volunteering_services'
p88
sS'451229319344689152'
p89
S'sympathy_and_emotional_support'
p90
sS'451228544727646209'
p91
S'injured_or_dead_people'
p92
sS'451229402827735040'
p93
S'not_related_or_irrelevant'
p94
sS'451229018088828928'
p95
S'donation_needs_or_offers_or_volunteering_services'
p96
sS'451228556626915328'
p97
S'donation_needs_or_offers_or_volunteering_services'
p98
sS'451229350994907136'
p99
S'injured_or_dead_people'
p100
sS'451229338357092352'
p101
S'injured_or_dead_people'
p102
sS'451229380912906240'
p103
S'not_related_or_irrelevant'
p104
sS'451228528328318976'
p105
S'sympathy_and_emotional_support'
p106
sS'451228416285884416'
p107
S'donation_needs_or_offers_or_volunteering_services'
p108
sS'451228543067111425'
p109
S'not_related_or_irrelevant'
p110
sS'451229173605203968'
p111
S'sympathy_and_emotional_support'
p112
sS'451228872592601088'
p113
S'donation_needs_or_offers_or_volunteering_services'
p114
sS'451228793009475584'
p115
S'injured_or_dead_people'
p116
sS'451228700499914752'
p117
S'donation_needs_or_offers_or_volunteering_services'
p118
sS'451228686671708160'
p119
S'donation_needs_or_offers_or_volunteering_services'
p120
sS'451228425294856192'
p121
S'injured_or_dead_people'
p122
sS'451228788597456897'
p123
S'missing_trapped_or_found_people'
p124
sS'451229287757414400'
p125
S'donation_needs_or_offers_or_volunteering_services'
p126
sS'451228505532268544'
p127
S'injured_or_dead_people'
p128
sS'451229191476764672'
p129
S'donation_needs_or_offers_or_volunteering_services'
p130
sS'451228955648200705'
p131
S'donation_needs_or_offers_or_volunteering_services'
p132
sS'451229260397940736'
p133
S'donation_needs_or_offers_or_volunteering_services'
p134
sS'451228505859055616'
p135
S'not_related_or_irrelevant'
p136
sS'451228753889226753'
p137
S'donation_needs_or_offers_or_volunteering_services'
p138
sS'451229321815154688'
p139
S'donation_needs_or_offers_or_volunteering_services'
p140
sS'451229328886738944'
p141
S'other_useful_information'
p142
sS'451228895900336128'
p143
S'injured_or_dead_people'
p144
sS'451228590919921665'
p145
S'other_useful_information'
p146
sS'451228413219860481'
p147
S'sympathy_and_emotional_support'
p148
sS'451228679977586688'
p149
S'donation_needs_or_offers_or_volunteering_services'
p150
sS'451228473969766400'
p151
S'donation_needs_or_offers_or_volunteering_services'
p152
sS'451229204764717056'
p153
S'infrastructure_and_utilities_damage'
p154
sS'451229322318069760'
p155
S'sympathy_and_emotional_support'
p156
sS'451229368254099457'
p157
S'donation_needs_or_offers_or_volunteering_services'
p158
sS'451229198984962048'
p159
S'donation_needs_or_offers_or_volunteering_services'
p160
sS'451228811154059264'
p161
S'injured_or_dead_people'
p162
sS'451228807488630784'
p163
S'sympathy_and_emotional_support'
p164
sS'451229027236581376'
p165
S'sympathy_and_emotional_support'
p166
sS'451228763687485440'
p167
S'injured_or_dead_people'
p168
sS'451229217599262721'
p169
S'injured_or_dead_people'
p170
sS'451228434505957377'
p171
S'other_useful_information'
p172
sS'451229080051286016'
p173
S'donation_needs_or_offers_or_volunteering_services'
p174
sS'451228879207022592'
p175
S'donation_needs_or_offers_or_volunteering_services'
p176
sS'451228519134404608'
p177
S'injured_or_dead_people'
p178
sS'451229374856298496'
p179
S'donation_needs_or_offers_or_volunteering_services'
p180
sS'451228633089077248'
p181
S'donation_needs_or_offers_or_volunteering_services'
p182
sS'451228988275691520'
p183
S'caution_and_advice'
p184
sS'451229411346362369'
p185
S'injured_or_dead_people'
p186
sS'451228643210321920'
p187
S'donation_needs_or_offers_or_volunteering_services'
p188
sS'451228537237045249'
p189
S'injured_or_dead_people'
p190
sS'451228862710812672'
p191
S'donation_needs_or_offers_or_volunteering_services'
p192
sS'451228871942504448'
p193
S'displaced_people_and_evacuations'
p194
sS'451229162372890625'
p195
S'injured_or_dead_people'
p196
sS'451229114104430593'
p197
S'donation_needs_or_offers_or_volunteering_services'
p198
sS'451229120668909568'
p199
S'caution_and_advice'
p200
sS'451229113521422336'
p201
S'injured_or_dead_people'
p202
sS'451229120996052992'
p203
S'donation_needs_or_offers_or_volunteering_services'
p204
sS'451229001042767873'
p205
S'donation_needs_or_offers_or_volunteering_services'
p206
sS'451229392870838272'
p207
S'injured_or_dead_people'
p208
sS'451229205674864640'
p209
S'not_related_or_irrelevant'
p210
sS'451229184371613696'
p211
S'not_related_or_irrelevant'
p212
sS'451228530115084288'
p213
S'other_useful_information'
p214
sS'451228890690629632'
p215
S'other_useful_information'
p216
sS'451229322221596672'
p217
S'donation_needs_or_offers_or_volunteering_services'
p218
sS'451228863600009216'
p219
S'donation_needs_or_offers_or_volunteering_services'
p220
sS'451229207868502016'
p221
S'injured_or_dead_people'
p222
sS'451228725808738305'
p223
S'injured_or_dead_people'
p224
sS'451229430183362560'
p225
S'injured_or_dead_people'
p226
sS'451228479741104130'
p227
S'injured_or_dead_people'
p228
sS'451228880897335296'
p229
S'donation_needs_or_offers_or_volunteering_services'
p230
sS'451229060384178176'
p231
S'injured_or_dead_people'
p232
sS'451229279968591872'
p233
S'donation_needs_or_offers_or_volunteering_services'
p234
sS'451228926174830592'
p235
S'caution_and_advice'
p236
sS'451229269755428864'
p237
S'sympathy_and_emotional_support'
p238
sS'451228446673633280'
p239
S'injured_or_dead_people'
p240
sS'451229293667180544'
p241
S'donation_needs_or_offers_or_volunteering_services'
p242
sS'451229259693309952'
p243
S'injured_or_dead_people'
p244
sS'451228877654745088'
p245
S'donation_needs_or_offers_or_volunteering_services'
p246
sS'451229022874529792'
p247
S'sympathy_and_emotional_support'
p248
sS'451229220484964352'
p249
S'donation_needs_or_offers_or_volunteering_services'
p250
sS'451229140549513216'
p251
S'not_related_or_irrelevant'
p252
sS'451228486867640320'
p253
S'not_related_or_irrelevant'
p254
sS'451228694603116545'
p255
S'sympathy_and_emotional_support'
p256
sS'451229379989762050'
p257
S'sympathy_and_emotional_support'
p258
sS'451229293168050176'
p259
S'injured_or_dead_people'
p260
sS'451229312390160384'
p261
S'donation_needs_or_offers_or_volunteering_services'
p262
sS'451229171755126784'
p263
S'injured_or_dead_people'
p264
sS'451229127232987136'
p265
S'injured_or_dead_people'
p266
sS'451228944231333888'
p267
S'donation_needs_or_offers_or_volunteering_services'
p268
sS'451229175559761921'
p269
S'donation_needs_or_offers_or_volunteering_services'
p270
sS'451229038779310081'
p271
S'not_related_or_irrelevant'
p272
sS'451229279201026048'
p273
S'injured_or_dead_people'
p274
sS'451229334607773696'
p275
S'other_useful_information'
p276
sS'451228431074992128'
p277
S'infrastructure_and_utilities_damage'
p278
sS'451228677003821056'
p279
S'donation_needs_or_offers_or_volunteering_services'
p280
sS'451228510187577345'
p281
S'donation_needs_or_offers_or_volunteering_services'
p282
sS'451229260486029312'
p283
S'donation_needs_or_offers_or_volunteering_services'
p284
sS'451228461273985024'
p285
S'donation_needs_or_offers_or_volunteering_services'
p286
sS'451229184212627456'
p287
S'injured_or_dead_people'
p288
sS'451228959427276800'
p289
S'donation_needs_or_offers_or_volunteering_services'
p290
sS'451229388223557632'
p291
S'injured_or_dead_people'
p292
sS'451229202994302976'
p293
S'injured_or_dead_people'
p294
sS'451228716761243648'
p295
S'caution_and_advice'
p296
sS'451228825729257473'
p297
S'donation_needs_or_offers_or_volunteering_services'
p298
sS'451228829361901568'
p299
S'infrastructure_and_utilities_damage'
p300
sS'451229011314622464'
p301
S'injured_or_dead_people'
p302
sS'451228970420543488'
p303
S'sympathy_and_emotional_support'
p304
sS'451229130559090688'
p305
S'injured_or_dead_people'
p306
sS'451228492856713216'
p307
S'infrastructure_and_utilities_damage'
p308
sS'451228574054248448'
p309
S'injured_or_dead_people'
p310
sS'451229214893568000'
p311
S'injured_or_dead_people'
p312
sS'451228511013830656'
p313
S'injured_or_dead_people'
p314
sS'451228691666718720'
p315
S'missing_trapped_or_found_people'
p316
sS'451229038376665088'
p317
S'sympathy_and_emotional_support'
p318
sS'451228749980528640'
p319
S'missing_trapped_or_found_people'
p320
sS'451229158736420865'
p321
S'other_useful_information'
p322
sS'451229176268210176'
p323
S'not_related_or_irrelevant'
p324
sS'451229264311255040'
p325
S'injured_or_dead_people'
p326
sS'451229246308904960'
p327
S'missing_trapped_or_found_people'
p328
sS'451228634473193472'
p329
S'injured_or_dead_people'
p330
sS'451228875943456768'
p331
S'caution_and_advice'
p332
sS'451229292744019968'
p333
S'donation_needs_or_offers_or_volunteering_services'
p334
sS'451228418072657920'
p335
S'injured_or_dead_people'
p336
sS'451228813318709248'
p337
S'injured_or_dead_people'
p338
sS'451228803474669568'
p339
S'injured_or_dead_people'
p340
sS'451228978276470784'
p341
S'infrastructure_and_utilities_damage'
p342
sS'451228964942401537'
p343
S'other_useful_information'
p344
sS'451229334117044224'
p345
S'donation_needs_or_offers_or_volunteering_services'
p346
sS'451228555754897408'
p347
S'donation_needs_or_offers_or_volunteering_services'
p348
sS'451228624432410624'
p349
S'not_related_or_irrelevant'
p350
sS'451228997297635328'
p351
S'donation_needs_or_offers_or_volunteering_services'
p352
sS'451229178420281345'
p353
S'other_useful_information'
p354
sS'451228724105449473'
p355
S'sympathy_and_emotional_support'
p356
sS'451229052796678144'
p357
S'injured_or_dead_people'
p358
sS'451228831836557313'
p359
S'infrastructure_and_utilities_damage'
p360
sS'451228952322142208'
p361
S'injured_or_dead_people'
p362
sS'451228890204487681'
p363
S'caution_and_advice'
p364
sS'451228585685450753'
p365
S'injured_or_dead_people'
p366
sS'451228474603077632'
p367
S'not_related_or_irrelevant'
p368
sS'451228662369501184'
p369
S'injured_or_dead_people'
p370
sS'451229089144520704'
p371
S'donation_needs_or_offers_or_volunteering_services'
p372
sS'451229283210383360'
p373
S'injured_or_dead_people'
p374
sS'451228554291081216'
p375
S'donation_needs_or_offers_or_volunteering_services'
p376
sS'451229409744535553'
p377
S'donation_needs_or_offers_or_volunteering_services'
p378
sS'451228575727763456'
p379
S'not_related_or_irrelevant'
p380
sS'451229346091773952'
p381
S'not_related_or_irrelevant'
p382
sS'451228472913166336'
p383
S'not_related_or_irrelevant'
p384
sS'451228945141092352'
p385
S'injured_or_dead_people'
p386
sS'451229445479600128'
p387
S'donation_needs_or_offers_or_volunteering_services'
p388
sS'451229236280303616'
p389
S'other_useful_information'
p390
sS'451228947414384640'
p391
S'other_useful_information'
p392
sS'451229399812435968'
p393
S'displaced_people_and_evacuations'
p394
sS'451228966360469504'
p395
S'sympathy_and_emotional_support'
p396
sS'451228420153028608'
p397
S'infrastructure_and_utilities_damage'
p398
sS'451229399623667712'
p399
S'injured_or_dead_people'
p400
sS'451229406158393344'
p401
S'donation_needs_or_offers_or_volunteering_services'
p402
sS'451229012883304448'
p403
S'donation_needs_or_offers_or_volunteering_services'
p404
sS'451229178180825088'
p405
S'injured_or_dead_people'
p406
sS'451228514692653056'
p407
S'other_useful_information'
p408
sS'451229356355248128'
p409
S'not_related_or_irrelevant'
p410
sS'451228876241645568'
p411
S'donation_needs_or_offers_or_volunteering_services'
p412
sS'451228520019030016'
p413
S'donation_needs_or_offers_or_volunteering_services'
p414
sS'451229088012050432'
p415
S'not_related_or_irrelevant'
p416
sS'451229245982142464'
p417
S'donation_needs_or_offers_or_volunteering_services'
p418
sS'451229332363825152'
p419
S'donation_needs_or_offers_or_volunteering_services'
p420
sS'451229039429423104'
p421
S'caution_and_advice'
p422
sS'451229413783240707'
p423
S'injured_or_dead_people'
p424
sS'451229346762481664'
p425
S'donation_needs_or_offers_or_volunteering_services'
p426
sS'451229131783802880'
p427
S'donation_needs_or_offers_or_volunteering_services'
p428
sS'451228459780816897'
p429
S'sympathy_and_emotional_support'
p430
sS'451228764652195840'
p431
S'other_useful_information'
p432
sS'451228827784462336'
p433
S'injured_or_dead_people'
p434
sS'451228622326857728'
p435
S'injured_or_dead_people'
p436
sS'451228635228160000'
p437
S'injured_or_dead_people'
p438
sS'451229220585631744'
p439
S'injured_or_dead_people'
p440
sS'451229304878534656'
p441
S'donation_needs_or_offers_or_volunteering_services'
p442
sS'451229255074992128'
p443
S'donation_needs_or_offers_or_volunteering_services'
p444
sS'451228504311738368'
p445
S'not_related_or_irrelevant'
p446
sS'451229131267919872'
p447
S'donation_needs_or_offers_or_volunteering_services'
p448
sS'451228581981470720'
p449
S'injured_or_dead_people'
p450
sS'451229041895682048'
p451
S'sympathy_and_emotional_support'
p452
sS'451229290776895488'
p453
S'not_related_or_irrelevant'
p454
sS'451228835208372224'
p455
S'other_useful_information'
p456
sS'451228862073298945'
p457
S'sympathy_and_emotional_support'
p458
sS'451229137064038400'
p459
S'infrastructure_and_utilities_damage'
p460
sS'451229106982891520'
p461
S'donation_needs_or_offers_or_volunteering_services'
p462
sS'451228573693935616'
p463
S'injured_or_dead_people'
p464
sS'451229352965857280'
p465
S'injured_or_dead_people'
p466
sS'451228697639411712'
p467
S'donation_needs_or_offers_or_volunteering_services'
p468
sS'451229404044468224'
p469
S'injured_or_dead_people'
p470
sS'451228779969404928'
p471
S'caution_and_advice'
p472
sS'451228756100014080'
p473
S'sympathy_and_emotional_support'
p474
sS'451228775129178113'
p475
S'injured_or_dead_people'
p476
sS'451228927118573568'
p477
S'donation_needs_or_offers_or_volunteering_services'
p478
sS'451229432087601152'
p479
S'injured_or_dead_people'
p480
sS'451229192081145857'
p481
S'donation_needs_or_offers_or_volunteering_services'
p482
sS'451228731848138753'
p483
S'injured_or_dead_people'
p484
sS'451229458813304832'
p485
S'caution_and_advice'
p486
sS'451229361380020224'
p487
S'injured_or_dead_people'
p488
sS'451228800844455936'
p489
S'missing_trapped_or_found_people'
p490
sS'451229176075259904'
p491
S'sympathy_and_emotional_support'
p492
sS'451229368409669632'
p493
S'other_useful_information'
p494
sS'451228612297887744'
p495
S'injured_or_dead_people'
p496
sS'451229095997997056'
p497
S'sympathy_and_emotional_support'
p498
sS'451229220333953024'
p499
S'injured_or_dead_people'
p500
sS'451228635588857856'
p501
S'donation_needs_or_offers_or_volunteering_services'
p502
sS'451228844931153920'
p503
S'donation_needs_or_offers_or_volunteering_services'
p504
sS'451228428738781184'
p505
S'injured_or_dead_people'
p506
sS'451228871434985472'
p507
S'injured_or_dead_people'
p508
sS'451229288461660161'
p509
S'injured_or_dead_people'
p510
sS'451229263333974016'
p511
S'injured_or_dead_people'
p512
sS'451228472791539712'
p513
S'infrastructure_and_utilities_damage'
p514
sS'451229061789274112'
p515
S'injured_or_dead_people'
p516
sS'451228986043932672'
p517
S'injured_or_dead_people'
p518
sS'451228459738861568'
p519
S'donation_needs_or_offers_or_volunteering_services'
p520
sS'451228493792047105'
p521
S'donation_needs_or_offers_or_volunteering_services'
p522
sS'451229048879206400'
p523
S'injured_or_dead_people'
p524
sS'451228994382209024'
p525
S'not_related_or_irrelevant'
p526
sS'451229173068349440'
p527
S'donation_needs_or_offers_or_volunteering_services'
p528
sS'451228935972737024'
p529
S'other_useful_information'
p530
sS'451229456997580801'
p531
S'donation_needs_or_offers_or_volunteering_services'
p532
sS'451228702823567360'
p533
S'donation_needs_or_offers_or_volunteering_services'
p534
sS'451228898639245312'
p535
S'injured_or_dead_people'
p536
sS'451229454816141312'
p537
S'donation_needs_or_offers_or_volunteering_services'
p538
sS'451229216856866816'
p539
S'sympathy_and_emotional_support'
p540
sS'451228680967442432'
p541
S'missing_trapped_or_found_people'
p542
sS'451228468790173696'
p543
S'injured_or_dead_people'
p544
sS'451228536548753408'
p545
S'other_useful_information'
p546
sS'451229416690294784'
p547
S'injured_or_dead_people'
p548
sS'451228691188568066'
p549
S'injured_or_dead_people'
p550
sS'451229225769766912'
p551
S'donation_needs_or_offers_or_volunteering_services'
p552
sS'451229096547065856'
p553
S'caution_and_advice'
p554
sS'451228844209733632'
p555
S'sympathy_and_emotional_support'
p556
sS'451228526243774464'
p557
S'injured_or_dead_people'
p558
sS'451228560561168384'
p559
S'donation_needs_or_offers_or_volunteering_services'
p560
sS'451228928146169857'
p561
S'donation_needs_or_offers_or_volunteering_services'
p562
sS'451228920231505920'
p563
S'donation_needs_or_offers_or_volunteering_services'
p564
sS'451228852119805952'
p565
S'caution_and_advice'
p566
sS'451229056537608192'
p567
S'sympathy_and_emotional_support'
p568
sS'451229255276695552'
p569
S'donation_needs_or_offers_or_volunteering_services'
p570
sS'451229292618203137'
p571
S'injured_or_dead_people'
p572
sS'451228596221517824'
p573
S'injured_or_dead_people'
p574
sS'451229117665771520'
p575
S'donation_needs_or_offers_or_volunteering_services'
p576
sS'451229389767057409'
p577
S'donation_needs_or_offers_or_volunteering_services'
p578
sS'451229177715630080'
p579
S'injured_or_dead_people'
p580
sS'451229084765667328'
p581
S'injured_or_dead_people'
p582
sS'451228687627603968'
p583
S'sympathy_and_emotional_support'
p584
sS'451229048383864832'
p585
S'injured_or_dead_people'
p586
sS'451228879072423936'
p587
S'sympathy_and_emotional_support'
p588
sS'451229133536653312'
p589
S'other_useful_information'
p590
sS'451228746855370752'
p591
S'donation_needs_or_offers_or_volunteering_services'
p592
sS'451228521940008960'
p593
S'donation_needs_or_offers_or_volunteering_services'
p594
sS'451229008198258689'
p595
S'infrastructure_and_utilities_damage'
p596
sS'451229312344391680'
p597
S'not_related_or_irrelevant'
p598
sS'451228987243909120'
p599
S'other_useful_information'
p600
sS'451228916888244224'
p601
S'donation_needs_or_offers_or_volunteering_services'
p602
sS'451229073508155392'
p603
S'injured_or_dead_people'
p604
sS'451229173869461504'
p605
S'not_related_or_irrelevant'
p606
sS'451228953743605760'
p607
S'donation_needs_or_offers_or_volunteering_services'
p608
sS'451228465405366272'
p609
S'injured_or_dead_people'
p610
sS'451228690383667200'
p611
S'donation_needs_or_offers_or_volunteering_services'
p612
sS'451228806603632640'
p613
S'caution_and_advice'
p614
sS'451229241107947521'
p615
S'donation_needs_or_offers_or_volunteering_services'
p616
sS'451229119792312320'
p617
S'infrastructure_and_utilities_damage'
p618
sS'451229133348282368'
p619
S'donation_needs_or_offers_or_volunteering_services'
p620
sS'451228689976410112'
p621
S'not_related_or_irrelevant'
p622
sS'451229003668803584'
p623
S'injured_or_dead_people'
p624
sS'451229082282635264'
p625
S'donation_needs_or_offers_or_volunteering_services'
p626
sS'451229417134903296'
p627
S'donation_needs_or_offers_or_volunteering_services'
p628
sS'451228858021580800'
p629
S'other_useful_information'
p630
sS'451229312545730560'
p631
S'injured_or_dead_people'
p632
sS'451229307780599808'
p633
S'displaced_people_and_evacuations'
p634
sS'451229071926906880'
p635
S'not_related_or_irrelevant'
p636
sS'451228665930842112'
p637
S'injured_or_dead_people'
p638
sS'451228913037889536'
p639
S'injured_or_dead_people'
p640
sS'451228826098728960'
p641
S'injured_or_dead_people'
p642
sS'451228443456581633'
p643
S'donation_needs_or_offers_or_volunteering_services'
p644
sS'451228421381558272'
p645
S'donation_needs_or_offers_or_volunteering_services'
p646
sS'451229085638094848'
p647
S'injured_or_dead_people'
p648
sS'451229222657204224'
p649
S'donation_needs_or_offers_or_volunteering_services'
p650
sS'451228603703767040'
p651
S'injured_or_dead_people'
p652
sS'451229429155385344'
p653
S'donation_needs_or_offers_or_volunteering_services'
p654
sS'451228806984904704'
p655
S'injured_or_dead_people'
p656
sS'451229002548903936'
p657
S'injured_or_dead_people'
p658
sS'451228671643504640'
p659
S'injured_or_dead_people'
p660
sS'451228807681548288'
p661
S'donation_needs_or_offers_or_volunteering_services'
p662
sS'451228689947447297'
p663
S'not_related_or_irrelevant'
p664
sS'451228515476586499'
p665
S'not_related_or_irrelevant'
p666
sS'451228914825068544'
p667
S'donation_needs_or_offers_or_volunteering_services'
p668
sS'451229211357761536'
p669
S'donation_needs_or_offers_or_volunteering_services'
p670
sS'451229067980046336'
p671
S'donation_needs_or_offers_or_volunteering_services'
p672
sS'451228714991628288'
p673
S'donation_needs_or_offers_or_volunteering_services'
p674
sS'451229261308104704'
p675
S'injured_or_dead_people'
p676
sS'451229058475368448'
p677
S'donation_needs_or_offers_or_volunteering_services'
p678
sS'451229295843999744'
p679
S'other_useful_information'
p680
sS'451228682326380544'
p681
S'donation_needs_or_offers_or_volunteering_services'
p682
sS'451229129392652288'
p683
S'other_useful_information'
p684
sS'451228619042353152'
p685
S'injured_or_dead_people'
p686
sS'451228692534939648'
p687
S'injured_or_dead_people'
p688
sS'451229270611066880'
p689
S'other_useful_information'
p690
sS'451229364597047296'
p691
S'injured_or_dead_people'
p692
sS'451228698327666688'
p693
S'donation_needs_or_offers_or_volunteering_services'
p694
sS'451228602508398592'
p695
S'sympathy_and_emotional_support'
p696
sS'451229339107868672'
p697
S'not_related_or_irrelevant'
p698
sS'451229166739148800'
p699
S'donation_needs_or_offers_or_volunteering_services'
p700
sS'451228738383273984'
p701
S'other_useful_information'
p702
sS'451228771786706944'
p703
S'other_useful_information'
p704
sS'451229136062021632'
p705
S'injured_or_dead_people'
p706
sS'451229134904377344'
p707
S'injured_or_dead_people'
p708
sS'451228741415763968'
p709
S'sympathy_and_emotional_support'
p710
sS'451229398134710273'
p711
S'sympathy_and_emotional_support'
p712
sS'451228704560386048'
p713
S'donation_needs_or_offers_or_volunteering_services'
p714
sS'451229024082083840'
p715
S'donation_needs_or_offers_or_volunteering_services'
p716
sS'451229295563010048'
p717
S'injured_or_dead_people'
p718
sS'451229001931972608'
p719
S'donation_needs_or_offers_or_volunteering_services'
p720
sS'451229344854450177'
p721
S'injured_or_dead_people'
p722
sS'451228414507503616'
p723
S'donation_needs_or_offers_or_volunteering_services'
p724
sS'451229132333285376'
p725
S'not_related_or_irrelevant'
p726
sS'451229042721964032'
p727
S'injured_or_dead_people'
p728
sS'451229228592537600'
p729
S'injured_or_dead_people'
p730
sS'451228955865935873'
p731
S'injured_or_dead_people'
p732
sS'451229102260113408'
p733
S'caution_and_advice'
p734
sS'451228538944122882'
p735
S'injured_or_dead_people'
p736
sS'451229409664839680'
p737
S'donation_needs_or_offers_or_volunteering_services'
p738
sS'451229023310733312'
p739
S'other_useful_information'
p740
sS'451229213073219584'
p741
S'injured_or_dead_people'
p742
sS'451228514516496384'
p743
S'missing_trapped_or_found_people'
p744
sS'451228963567071232'
p745
S'donation_needs_or_offers_or_volunteering_services'
p746
sS'451228522452123648'
p747
S'injured_or_dead_people'
p748
sS'451229333747953664'
p749
S'missing_trapped_or_found_people'
p750
sS'451229129938321408'
p751
S'other_useful_information'
p752
sS'451228909132972032'
p753
S'not_related_or_irrelevant'
p754
sS'451229095956066304'
p755
S'donation_needs_or_offers_or_volunteering_services'
p756
sS'451228840531341312'
p757
S'donation_needs_or_offers_or_volunteering_services'
p758
sS'451228452339720193'
p759
S'donation_needs_or_offers_or_volunteering_services'
p760
sS'451229386218672128'
p761
S'donation_needs_or_offers_or_volunteering_services'
p762
sS'451228720473190400'
p763
S'injured_or_dead_people'
p764
sS'451228650638434304'
p765
S'injured_or_dead_people'
p766
sS'451228815550070785'
p767
S'sympathy_and_emotional_support'
p768
sS'451228450213224448'
p769
S'donation_needs_or_offers_or_volunteering_services'
p770
sS'451228927860957184'
p771
S'displaced_people_and_evacuations'
p772
sS'451229217620242432'
p773
S'injured_or_dead_people'
p774
sS'451228419519709184'
p775
S'donation_needs_or_offers_or_volunteering_services'
p776
sS'451229299564371968'
p777
S'donation_needs_or_offers_or_volunteering_services'
p778
sS'451229434725818368'
p779
S'donation_needs_or_offers_or_volunteering_services'
p780
sS'451228910303580160'
p781
S'donation_needs_or_offers_or_volunteering_services'
p782
sS'451228844192976896'
p783
S'caution_and_advice'
p784
sS'451229409258012672'
p785
S'donation_needs_or_offers_or_volunteering_services'
p786
sS'451229098665594880'
p787
S'donation_needs_or_offers_or_volunteering_services'
p788
sS'451228727372820480'
p789
S'injured_or_dead_people'
p790
sS'451228441661042688'
p791
S'injured_or_dead_people'
p792
sS'451229086883393536'
p793
S'displaced_people_and_evacuations'
p794
sS'451228664831553537'
p795
S'donation_needs_or_offers_or_volunteering_services'
p796
sS'451228627385221120'
p797
S'donation_needs_or_offers_or_volunteering_services'
p798
sS'451228909372055555'
p799
S'injured_or_dead_people'
p800
sS'451229386696847360'
p801
S'injured_or_dead_people'
p802
sS'451229279561744385'
p803
S'injured_or_dead_people'
p804
sS'451228677079322624'
p805
S'donation_needs_or_offers_or_volunteering_services'
p806
sS'451228988267298816'
p807
S'other_useful_information'
p808
sS'451228580845199360'
p809
S'injured_or_dead_people'
p810
sS'451228584355442688'
p811
S'injured_or_dead_people'
p812
sS'451229268165820416'
p813
S'donation_needs_or_offers_or_volunteering_services'
p814
sS'451229348440195073'
p815
S'caution_and_advice'
p816
sS'451229395487690752'
p817
S'other_useful_information'
p818
sS'451228841496051712'
p819
S'injured_or_dead_people'
p820
sS'451228520199753728'
p821
S'injured_or_dead_people'
p822
sS'451228721735680000'
p823
S'donation_needs_or_offers_or_volunteering_services'
p824
sS'451228808059039744'
p825
S'injured_or_dead_people'
p826
sS'451228808943656960'
p827
S'donation_needs_or_offers_or_volunteering_services'
p828
sS'451229340605644801'
p829
S'injured_or_dead_people'
p830
sS'451228487463231489'
p831
S'donation_needs_or_offers_or_volunteering_services'
p832
sS'451228631033856000'
p833
S'injured_or_dead_people'
p834
sS'451228760222597121'
p835
S'donation_needs_or_offers_or_volunteering_services'
p836
sS'451229153325752320'
p837
S'donation_needs_or_offers_or_volunteering_services'
p838
sS'451229025021988864'
p839
S'injured_or_dead_people'
p840
sS'451228818158940160'
p841
S'donation_needs_or_offers_or_volunteering_services'
p842
sS'451229026796179457'
p843
S'injured_or_dead_people'
p844
sS'451228757962272768'
p845
S'injured_or_dead_people'
p846
sS'451228907258540032'
p847
S'injured_or_dead_people'
p848
sS'451228414955892736'
p849
S'donation_needs_or_offers_or_volunteering_services'
p850
sS'451228845958389760'
p851
S'injured_or_dead_people'
p852
sS'451228526717304833'
p853
S'injured_or_dead_people'
p854
sS'451229148632330240'
p855
S'infrastructure_and_utilities_damage'
p856
sS'451228970717941760'
p857
S'donation_needs_or_offers_or_volunteering_services'
p858
sS'451228889696960512'
p859
S'sympathy_and_emotional_support'
p860
sS'451229227535183872'
p861
S'not_related_or_irrelevant'
p862
sS'451229363032563713'
p863
S'donation_needs_or_offers_or_volunteering_services'
p864
sS'451229155167047680'
p865
S'donation_needs_or_offers_or_volunteering_services'
p866
sS'451228504219471872'
p867
S'sympathy_and_emotional_support'
p868
sS'451229414119194624'
p869
S'injured_or_dead_people'
p870
sS'451229112456445952'
p871
S'donation_needs_or_offers_or_volunteering_services'
p872
sS'451228777138241536'
p873
S'injured_or_dead_people'
p874
sS'451228563153616896'
p875
S'injured_or_dead_people'
p876
sS'451228659630616577'
p877
S'donation_needs_or_offers_or_volunteering_services'
p878
sS'451228921531760640'
p879
S'injured_or_dead_people'
p880
sS'451228872139239425'
p881
S'sympathy_and_emotional_support'
p882
sS'451229383382941696'
p883
S'injured_or_dead_people'
p884
sS'451228674579505152'
p885
S'donation_needs_or_offers_or_volunteering_services'
p886
sS'451229413523193856'
p887
S'injured_or_dead_people'
p888
sS'451229409257615360'
p889
S'injured_or_dead_people'
p890
sS'451228653767360512'
p891
S'injured_or_dead_people'
p892
sS'451228767332339712'
p893
S'donation_needs_or_offers_or_volunteering_services'
p894
sS'451228632095412224'
p895
S'injured_or_dead_people'
p896
sS'451229009087852544'
p897
S'donation_needs_or_offers_or_volunteering_services'
p898
sS'451228426322849792'
p899
S'donation_needs_or_offers_or_volunteering_services'
p900
sS'451229251010715648'
p901
S'donation_needs_or_offers_or_volunteering_services'
p902
sS'451229256895303680'
p903
S'donation_needs_or_offers_or_volunteering_services'
p904
sS'451228447051112449'
p905
S'donation_needs_or_offers_or_volunteering_services'
p906
sS'451229217842147328'
p907
S'sympathy_and_emotional_support'
p908
sS'451228602907250689'
p909
S'not_related_or_irrelevant'
p910
sS'451228540281708544'
p911
S'injured_or_dead_people'
p912
sS'451228432408788993'
p913
S'other_useful_information'
p914
sS'451229140083961856'
p915
S'sympathy_and_emotional_support'
p916
sS'451228899993612288'
p917
S'injured_or_dead_people'
p918
sS'451229025722454016'
p919
S'injured_or_dead_people'
p920
sS'451228762948911104'
p921
S'donation_needs_or_offers_or_volunteering_services'
p922
sS'451228819504906240'
p923
S'sympathy_and_emotional_support'
p924
sS'451229229221703680'
p925
S'injured_or_dead_people'
p926
sS'451228718132756480'
p927
S'other_useful_information'
p928
sS'451228479070019584'
p929
S'injured_or_dead_people'
p930
sS'451229354664931328'
p931
S'donation_needs_or_offers_or_volunteering_services'
p932
sS'451228771719581696'
p933
S'other_useful_information'
p934
sS'451228481704042497'
p935
S'injured_or_dead_people'
p936
sS'451229001709670400'
p937
S'donation_needs_or_offers_or_volunteering_services'
p938
sS'451229098732294144'
p939
S'not_related_or_irrelevant'
p940
sS'451228943958298624'
p941
S'donation_needs_or_offers_or_volunteering_services'
p942
sS'451228522015907840'
p943
S'other_useful_information'
p944
sS'451228629414842368'
p945
S'not_related_or_irrelevant'
p946
sS'451228421335814144'
p947
S'other_useful_information'
p948
sS'451229153376100352'
p949
S'donation_needs_or_offers_or_volunteering_services'
p950
sS'451228565863170049'
p951
S'injured_or_dead_people'
p952
sS'451228768880050176'
p953
S'injured_or_dead_people'
p954
sS'451229302269702144'
p955
S'not_related_or_irrelevant'
p956
sS'451228923171328000'
p957
S'donation_needs_or_offers_or_volunteering_services'
p958
sS'451228758939561984'
p959
S'injured_or_dead_people'
p960
sS'451229310968692736'
p961
S'donation_needs_or_offers_or_volunteering_services'
p962
sS'451228580857774080'
p963
S'donation_needs_or_offers_or_volunteering_services'
p964
sS'451229077287219200'
p965
S'donation_needs_or_offers_or_volunteering_services'
p966
sS'451229229821079552'
p967
S'injured_or_dead_people'
p968
sS'451228971917918208'
p969
S'donation_needs_or_offers_or_volunteering_services'
p970
sS'451228978129281024'
p971
S'other_useful_information'
p972
sS'451228637623095296'
p973
S'sympathy_and_emotional_support'
p974
sS'451229282845859840'
p975
S'donation_needs_or_offers_or_volunteering_services'
p976
sS'451229063697661952'
p977
S'injured_or_dead_people'
p978
sS'451228618321330176'
p979
S'caution_and_advice'
p980
sS'451228478809989121'
p981
S'donation_needs_or_offers_or_volunteering_services'
p982
sS'451229014573584384'
p983
S'injured_or_dead_people'
p984
sS'451229403822182400'
p985
S'donation_needs_or_offers_or_volunteering_services'
p986
sS'451228720628396032'
p987
S'donation_needs_or_offers_or_volunteering_services'
p988
sS'451229235496374272'
p989
S'injured_or_dead_people'
p990
sS'451228680606740481'
p991
S'sympathy_and_emotional_support'
p992
sS'451229341943607296'
p993
S'not_related_or_irrelevant'
p994
sS'451229343621341184'
p995
S'displaced_people_and_evacuations'
p996
sS'451228594497282048'
p997
S'donation_needs_or_offers_or_volunteering_services'
p998
sS'451228740786585601'
p999
S'injured_or_dead_people'
p1000
sS'451228561710383104'
p1001
S'injured_or_dead_people'
p1002
sS'451229117405347841'
p1003
S'sympathy_and_emotional_support'
p1004
sS'451228907875074048'
p1005
S'donation_needs_or_offers_or_volunteering_services'
p1006
sS'451229115765374977'
p1007
S'injured_or_dead_people'
p1008
sS'451228931233181696'
p1009
S'donation_needs_or_offers_or_volunteering_services'
p1010
sS'451228417711558658'
p1011
S'caution_and_advice'
p1012
sS'451229356191268864'
p1013
S'donation_needs_or_offers_or_volunteering_services'
p1014
sS'451229238775926784'
p1015
S'donation_needs_or_offers_or_volunteering_services'
p1016
sS'451228943270821888'
p1017
S'injured_or_dead_people'
p1018
sS'451229270585917440'
p1019
S'sympathy_and_emotional_support'
p1020
sS'451229398226989056'
p1021
S'donation_needs_or_offers_or_volunteering_services'
p1022
sS'451229410125815808'
p1023
S'sympathy_and_emotional_support'
p1024
sS'451229182799126528'
p1025
S'donation_needs_or_offers_or_volunteering_services'
p1026
sS'451228493557157888'
p1027
S'not_related_or_irrelevant'
p1028
sS'451228943698653184'
p1029
S'donation_needs_or_offers_or_volunteering_services'
p1030
sS'451228610012397568'
p1031
S'injured_or_dead_people'
p1032
sS'451229204051664896'
p1033
S'injured_or_dead_people'
p1034
sS'451228684284727297'
p1035
S'donation_needs_or_offers_or_volunteering_services'
p1036
sS'451228886940909568'
p1037
S'injured_or_dead_people'
p1038
sS'451228668145041409'
p1039
S'missing_trapped_or_found_people'
p1040
sS'451228986094653440'
p1041
S'not_related_or_irrelevant'
p1042
sS'451229383617822720'
p1043
S'donation_needs_or_offers_or_volunteering_services'
p1044
sS'451228632678412288'
p1045
S'donation_needs_or_offers_or_volunteering_services'
p1046
sS'451229189749088256'
p1047
S'injured_or_dead_people'
p1048
sS'451228796348542976'
p1049
S'sympathy_and_emotional_support'
p1050
sS'451228582539718656'
p1051
S'injured_or_dead_people'
p1052
sS'451229203401166849'
p1053
S'donation_needs_or_offers_or_volunteering_services'
p1054
sS'451229274197200896'
p1055
S'other_useful_information'
p1056
sS'451228578286678016'
p1057
S'sympathy_and_emotional_support'
p1058
sS'451229310029148160'
p1059
S'other_useful_information'
p1060
sS'451229246740889600'
p1061
S'injured_or_dead_people'
p1062
sS'451229016486600704'
p1063
S'donation_needs_or_offers_or_volunteering_services'
p1064
sS'451229264742854656'
p1065
S'not_related_or_irrelevant'
p1066
sS'451228638470766592'
p1067
S'donation_needs_or_offers_or_volunteering_services'
p1068
sS'451228816359161857'
p1069
S'infrastructure_and_utilities_damage'
p1070
sS'451229088611434496'
p1071
S'not_related_or_irrelevant'
p1072
sS'451228759832932352'
p1073
S'sympathy_and_emotional_support'
p1074
sS'451228743038930945'
p1075
S'donation_needs_or_offers_or_volunteering_services'
p1076
sS'451229173533515777'
p1077
S'other_useful_information'
p1078
sS'451229364232134656'
p1079
S'infrastructure_and_utilities_damage'
p1080
sS'451229428648247296'
p1081
S'injured_or_dead_people'
p1082
sS'451228550067011584'
p1083
S'infrastructure_and_utilities_damage'
p1084
sS'451229263480766464'
p1085
S'other_useful_information'
p1086
sS'451228599127781376'
p1087
S'not_related_or_irrelevant'
p1088
sS'451228623731974144'
p1089
S'donation_needs_or_offers_or_volunteering_services'
p1090
sS'451228940896833536'
p1091
S'injured_or_dead_people'
p1092
sS'451229436747063297'
p1093
S'not_related_or_irrelevant'
p1094
sS'451228604790087680'
p1095
S'donation_needs_or_offers_or_volunteering_services'
p1096
sS'451229105569005568'
p1097
S'injured_or_dead_people'
p1098
sS'451229414513074176'
p1099
S'not_related_or_irrelevant'
p1100
sS'451228951424557056'
p1101
S'injured_or_dead_people'
p1102
sS'451229431286095872'
p1103
S'donation_needs_or_offers_or_volunteering_services'
p1104
sS'451228637736345600'
p1105
S'donation_needs_or_offers_or_volunteering_services'
p1106
sS'451228869052211200'
p1107
S'other_useful_information'
p1108
sS'451228442059476992'
p1109
S'donation_needs_or_offers_or_volunteering_services'
p1110
sS'451229345386725376'
p1111
S'other_useful_information'
p1112
sS'451228960345837568'
p1113
S'injured_or_dead_people'
p1114
sS'451228678354378752'
p1115
S'injured_or_dead_people'
p1116
sS'451228605717417985'
p1117
S'donation_needs_or_offers_or_volunteering_services'
p1118
sS'451229140239151104'
p1119
S'donation_needs_or_offers_or_volunteering_services'
p1120
sS'451228647202885633'
p1121
S'donation_needs_or_offers_or_volunteering_services'
p1122
sS'451228839210123265'
p1123
S'injured_or_dead_people'
p1124
sS'451228714169540608'
p1125
S'donation_needs_or_offers_or_volunteering_services'
p1126
sS'451228903911088128'
p1127
S'donation_needs_or_offers_or_volunteering_services'
p1128
sS'451228447667286016'
p1129
S'donation_needs_or_offers_or_volunteering_services'
p1130
sS'451228505305391104'
p1131
S'injured_or_dead_people'
p1132
sS'451228935213178880'
p1133
S'injured_or_dead_people'
p1134
sS'451229402311827456'
p1135
S'sympathy_and_emotional_support'
p1136
sS'451228779273154561'
p1137
S'not_related_or_irrelevant'
p1138
sS'451228907455676416'
p1139
S'donation_needs_or_offers_or_volunteering_services'
p1140
sS'451228619910967296'
p1141
S'donation_needs_or_offers_or_volunteering_services'
p1142
sS'451229022589304832'
p1143
S'caution_and_advice'
p1144
sS'451228960152899584'
p1145
S'donation_needs_or_offers_or_volunteering_services'
p1146
sS'451229092684111872'
p1147
S'donation_needs_or_offers_or_volunteering_services'
p1148
sS'451229389712531456'
p1149
S'donation_needs_or_offers_or_volunteering_services'
p1150
sS'451229088494411776'
p1151
S'injured_or_dead_people'
p1152
sS'451228851331674112'
p1153
S'donation_needs_or_offers_or_volunteering_services'
p1154
sS'451228934542467072'
p1155
S'donation_needs_or_offers_or_volunteering_services'
p1156
sS'451228516973944832'
p1157
S'injured_or_dead_people'
p1158
sS'451229405944512512'
p1159
S'injured_or_dead_people'
p1160
sS'451228432446545920'
p1161
S'injured_or_dead_people'
p1162
sS'451228923771490304'
p1163
S'donation_needs_or_offers_or_volunteering_services'
p1164
sS'451228726156476416'
p1165
S'sympathy_and_emotional_support'
p1166
sS'451229356657233921'
p1167
S'sympathy_and_emotional_support'
p1168
sS'451229157025120256'
p1169
S'donation_needs_or_offers_or_volunteering_services'
p1170
sS'451228530412896256'
p1171
S'donation_needs_or_offers_or_volunteering_services'
p1172
sS'451229153732599808'
p1173
S'injured_or_dead_people'
p1174
sS'451229044731023360'
p1175
S'donation_needs_or_offers_or_volunteering_services'
p1176
sS'451228965920075776'
p1177
S'donation_needs_or_offers_or_volunteering_services'
p1178
sS'451228777008611329'
p1179
S'donation_needs_or_offers_or_volunteering_services'
p1180
sS'451229048149401601'
p1181
S'sympathy_and_emotional_support'
p1182
sS'451228783211978752'
p1183
S'not_related_or_irrelevant'
p1184
sS'451228767122247681'
p1185
S'injured_or_dead_people'
p1186
sS'451228905723424768'
p1187
S'injured_or_dead_people'
p1188
sS'451228831983337472'
p1189
S'missing_trapped_or_found_people'
p1190
sS'451228942457143296'
p1191
S'sympathy_and_emotional_support'
p1192
sS'451229240823128064'
p1193
S'other_useful_information'
p1194
sS'451228430512562177'
p1195
S'injured_or_dead_people'
p1196
sS'451228655465668608'
p1197
S'not_related_or_irrelevant'
p1198
sS'451228780762501120'
p1199
S'not_related_or_irrelevant'
p1200
sS'451229110267035648'
p1201
S'donation_needs_or_offers_or_volunteering_services'
p1202
sS'451228709232840704'
p1203
S'donation_needs_or_offers_or_volunteering_services'
p1204
sS'451229317687562240'
p1205
S'injured_or_dead_people'
p1206
sS'451229210602770432'
p1207
S'sympathy_and_emotional_support'
p1208
sS'451228988476633089'
p1209
S'injured_or_dead_people'
p1210
sS'451228526621261825'
p1211
S'injured_or_dead_people'
p1212
sS'451229209101611008'
p1213
S'donation_needs_or_offers_or_volunteering_services'
p1214
sS'451228716648366080'
p1215
S'donation_needs_or_offers_or_volunteering_services'
p1216
sS'451228814371467264'
p1217
S'donation_needs_or_offers_or_volunteering_services'
p1218
sS'451228931929034752'
p1219
S'other_useful_information'
p1220
sS'451228788807188480'
p1221
S'donation_needs_or_offers_or_volunteering_services'
p1222
sS'451228678383747072'
p1223
S'injured_or_dead_people'
p1224
sS'451228751318515712'
p1225
S'injured_or_dead_people'
p1226
sS'451228644057165824'
p1227
S'not_related_or_irrelevant'
p1228
sS'451229153174757376'
p1229
S'infrastructure_and_utilities_damage'
p1230
sS'451228716631617536'
p1231
S'injured_or_dead_people'
p1232
sS'451228455539974144'
p1233
S'donation_needs_or_offers_or_volunteering_services'
p1234
sS'451228937180688385'
p1235
S'injured_or_dead_people'
p1236
sS'451228668233515008'
p1237
S'sympathy_and_emotional_support'
p1238
sS'451228614546038784'
p1239
S'donation_needs_or_offers_or_volunteering_services'
p1240
sS'451228990414790656'
p1241
S'sympathy_and_emotional_support'
p1242
sS'451228483914838016'
p1243
S'injured_or_dead_people'
p1244
sS'451228610142031872'
p1245
S'not_related_or_irrelevant'
p1246
sS'451228734591213568'
p1247
S'donation_needs_or_offers_or_volunteering_services'
p1248
sS'451229403062603776'
p1249
S'injured_or_dead_people'
p1250
sS'451228917081575424'
p1251
S'sympathy_and_emotional_support'
p1252
sS'451228986564415488'
p1253
S'sympathy_and_emotional_support'
p1254
sS'451228817101967360'
p1255
S'donation_needs_or_offers_or_volunteering_services'
p1256
sS'451228463010430976'
p1257
S'donation_needs_or_offers_or_volunteering_services'
p1258
sS'451228649799172096'
p1259
S'injured_or_dead_people'
p1260
sS'451228908206440448'
p1261
S'donation_needs_or_offers_or_volunteering_services'
p1262
sS'451229062967885824'
p1263
S'injured_or_dead_people'
p1264
sS'451228437730955264'
p1265
S'donation_needs_or_offers_or_volunteering_services'
p1266
sS'451229053500936192'
p1267
S'donation_needs_or_offers_or_volunteering_services'
p1268
sS'451229130189574148'
p1269
S'donation_needs_or_offers_or_volunteering_services'
p1270
sS'451228730862886913'
p1271
S'donation_needs_or_offers_or_volunteering_services'
p1272
sS'451228811716091904'
p1273
S'other_useful_information'
p1274
sS'451229188021051392'
p1275
S'donation_needs_or_offers_or_volunteering_services'
p1276
sS'451229074426712064'
p1277
S'injured_or_dead_people'
p1278
sS'451229093204623360'
p1279
S'other_useful_information'
p1280
sS'451229135080525824'
p1281
S'injured_or_dead_people'
p1282
sS'451229409148538880'
p1283
S'caution_and_advice'
p1284
sS'451229125949546496'
p1285
S'sympathy_and_emotional_support'
p1286
sS'451228699535237120'
p1287
S'donation_needs_or_offers_or_volunteering_services'
p1288
sS'451228616173436928'
p1289
S'sympathy_and_emotional_support'
p1290
sS'451229257457762304'
p1291
S'missing_trapped_or_found_people'
p1292
sS'451229149269860352'
p1293
S'missing_trapped_or_found_people'
p1294
sS'451228954322407424'
p1295
S'sympathy_and_emotional_support'
p1296
sS'451229350403137536'
p1297
S'sympathy_and_emotional_support'
p1298
sS'451229029249847296'
p1299
S'donation_needs_or_offers_or_volunteering_services'
p1300
sS'451228954167214080'
p1301
S'donation_needs_or_offers_or_volunteering_services'
p1302
sS'451228507537178624'
p1303
S'other_useful_information'
p1304
sS'451228748055318528'
p1305
S'donation_needs_or_offers_or_volunteering_services'
p1306
sS'451229414009733120'
p1307
S'injured_or_dead_people'
p1308
sS'451229431957573632'
p1309
S'injured_or_dead_people'
p1310
sS'451229307130875904'
p1311
S'sympathy_and_emotional_support'
p1312
sS'451228506056564736'
p1313
S'injured_or_dead_people'
p1314
sS'451229158824091649'
p1315
S'injured_or_dead_people'
p1316
sS'451229079480463360'
p1317
S'donation_needs_or_offers_or_volunteering_services'
p1318
sS'451228919937904640'
p1319
S'injured_or_dead_people'
p1320
sS'451229265145511937'
p1321
S'donation_needs_or_offers_or_volunteering_services'
p1322
sS'451229161575575552'
p1323
S'sympathy_and_emotional_support'
p1324
sS'451229262474129408'
p1325
S'injured_or_dead_people'
p1326
sS'451228629523890176'
p1327
S'injured_or_dead_people'
p1328
sS'451229214029926400'
p1329
S'injured_or_dead_people'
p1330
sS'451229230962327552'
p1331
S'displaced_people_and_evacuations'
p1332
sS'451229076066680832'
p1333
S'injured_or_dead_people'
p1334
sS'451228641931046912'
p1335
S'donation_needs_or_offers_or_volunteering_services'
p1336
sS'451229085851602944'
p1337
S'donation_needs_or_offers_or_volunteering_services'
p1338
sS'451228515212730368'
p1339
S'other_useful_information'
p1340
sS'451228534271672320'
p1341
S'injured_or_dead_people'
p1342
sS'451229420666109952'
p1343
S'injured_or_dead_people'
p1344
sS'451228930067136512'
p1345
S'injured_or_dead_people'
p1346
sS'451228887604002816'
p1347
S'donation_needs_or_offers_or_volunteering_services'
p1348
sS'451229275363246080'
p1349
S'donation_needs_or_offers_or_volunteering_services'
p1350
sS'451229345093545984'
p1351
S'other_useful_information'
p1352
sS'451229397043798016'
p1353
S'donation_needs_or_offers_or_volunteering_services'
p1354
sS'451228746394370048'
p1355
S'injured_or_dead_people'
p1356
sS'451228422023692288'
p1357
S'other_useful_information'
p1358
sS'451229040025014273'
p1359
S'donation_needs_or_offers_or_volunteering_services'
p1360
sS'451229363124834305'
p1361
S'not_related_or_irrelevant'
p1362
sS'451229361694199808'
p1363
S'injured_or_dead_people'
p1364
sS'451229310532075520'
p1365
S'donation_needs_or_offers_or_volunteering_services'
p1366
sS'451228641171865600'
p1367
S'donation_needs_or_offers_or_volunteering_services'
p1368
sS'451229226499575808'
p1369
S'donation_needs_or_offers_or_volunteering_services'
p1370
sS'451229078360969216'
p1371
S'caution_and_advice'
p1372
sS'451229455654993920'
p1373
S'injured_or_dead_people'
p1374
sS'451228577267474432'
p1375
S'not_related_or_irrelevant'
p1376
sS'451229198456070144'
p1377
S'not_related_or_irrelevant'
p1378
sS'451228854775205889'
p1379
S'donation_needs_or_offers_or_volunteering_services'
p1380
sS'451229022408957952'
p1381
S'infrastructure_and_utilities_damage'
p1382
sS'451228642941472768'
p1383
S'injured_or_dead_people'
p1384
sS'451229406795542528'
p1385
S'sympathy_and_emotional_support'
p1386
sS'451228545155866624'
p1387
S'injured_or_dead_people'
p1388
sS'451228712302698496'
p1389
S'injured_or_dead_people'
p1390
sS'451228982441410560'
p1391
S'injured_or_dead_people'
p1392
sS'451229036253966337'
p1393
S'donation_needs_or_offers_or_volunteering_services'
p1394
sS'451229354379735040'
p1395
S'not_related_or_irrelevant'
p1396
sS'451228874978766848'
p1397
S'sympathy_and_emotional_support'
p1398
sS'451228972006014976'
p1399
S'injured_or_dead_people'
p1400
sS'451228482006429696'
p1401
S'injured_or_dead_people'
p1402
sS'451228427593322496'
p1403
S'donation_needs_or_offers_or_volunteering_services'
p1404
sS'451228659727093760'
p1405
S'other_useful_information'
p1406
sS'451229007892480000'
p1407
S'injured_or_dead_people'
p1408
sS'451229188297871360'
p1409
S'injured_or_dead_people'
p1410
sS'451229329494904833'
p1411
S'donation_needs_or_offers_or_volunteering_services'
p1412
sS'451228931534753792'
p1413
S'sympathy_and_emotional_support'
p1414
sS'451228882918973440'
p1415
S'not_related_or_irrelevant'
p1416
sS'451228698239184896'
p1417
S'donation_needs_or_offers_or_volunteering_services'
p1418
sS'451228487664541696'
p1419
S'donation_needs_or_offers_or_volunteering_services'
p1420
sS'451228703771877376'
p1421
S'not_related_or_irrelevant'
p1422
sS'451229265539768320'
p1423
S'donation_needs_or_offers_or_volunteering_services'
p1424
sS'451228971623931905'
p1425
S'injured_or_dead_people'
p1426
sS'451229448424415232'
p1427
S'missing_trapped_or_found_people'
p1428
sS'451228463190384640'
p1429
S'donation_needs_or_offers_or_volunteering_services'
p1430
sS'451228688965976064'
p1431
S'donation_needs_or_offers_or_volunteering_services'
p1432
sS'451229246753865728'
p1433
S'not_related_or_irrelevant'
p1434
sS'451228643503898624'
p1435
S'injured_or_dead_people'
p1436
sS'451228663280070656'
p1437
S'injured_or_dead_people'
p1438
sS'451228418026516480'
p1439
S'injured_or_dead_people'
p1440
sS'451228798734716929'
p1441
S'caution_and_advice'
p1442
sS'451228541846159360'
p1443
S'infrastructure_and_utilities_damage'
p1444
sS'451228608460505088'
p1445
S'injured_or_dead_people'
p1446
sS'451229340031000577'
p1447
S'sympathy_and_emotional_support'
p1448
sS'451229284037038080'
p1449
S'donation_needs_or_offers_or_volunteering_services'
p1450
sS'451229082160603136'
p1451
S'sympathy_and_emotional_support'
p1452
sS'451229098430722048'
p1453
S'injured_or_dead_people'
p1454
sS'451229162687037440'
p1455
S'injured_or_dead_people'
p1456
sS'451229122996736000'
p1457
S'injured_or_dead_people'
p1458
sS'451229361950433280'
p1459
S'injured_or_dead_people'
p1460
sS'451229144337350656'
p1461
S'injured_or_dead_people'
p1462
sS'451229054541496320'
p1463
S'donation_needs_or_offers_or_volunteering_services'
p1464
sS'451229144719036416'
p1465
S'donation_needs_or_offers_or_volunteering_services'
p1466
sS'451229243155185664'
p1467
S'donation_needs_or_offers_or_volunteering_services'
p1468
sS'451228558459805696'
p1469
S'donation_needs_or_offers_or_volunteering_services'
p1470
sS'451229225102479361'
p1471
S'not_related_or_irrelevant'
p1472
sS'451228451060461568'
p1473
S'injured_or_dead_people'
p1474
sS'451228981879390208'
p1475
S'donation_needs_or_offers_or_volunteering_services'
p1476
sS'451229091862417408'
p1477
S'infrastructure_and_utilities_damage'
p1478
sS'451229392744620032'
p1479
S'donation_needs_or_offers_or_volunteering_services'
p1480
sS'451229236133511168'
p1481
S'other_useful_information'
p1482
sS'451229073772015616'
p1483
S'injured_or_dead_people'
p1484
sS'451228523047305216'
p1485
S'donation_needs_or_offers_or_volunteering_services'
p1486
sS'451229066700419072'
p1487
S'missing_trapped_or_found_people'
p1488
sS'451229152247832577'
p1489
S'donation_needs_or_offers_or_volunteering_services'
p1490
sS'451228785568788480'
p1491
S'donation_needs_or_offers_or_volunteering_services'
p1492
sS'451228837716963328'
p1493
S'not_related_or_irrelevant'
p1494
sS'451229263573024768'
p1495
S'infrastructure_and_utilities_damage'
p1496
sS'451228596741230592'
p1497
S'sympathy_and_emotional_support'
p1498
sS'451229421639180288'
p1499
S'injured_or_dead_people'
p1500
sS'451228733912154113'
p1501
S'injured_or_dead_people'
p1502
sS'451229179141705728'
p1503
S'caution_and_advice'
p1504
sS'451229128851984384'
p1505
S'injured_or_dead_people'
p1506
sS'451229373912600576'
p1507
S'sympathy_and_emotional_support'
p1508
sS'451228811237933056'
p1509
S'donation_needs_or_offers_or_volunteering_services'
p1510
sS'451229222691143680'
p1511
S'injured_or_dead_people'
p1512
sS'451228491632357376'
p1513
S'donation_needs_or_offers_or_volunteering_services'
p1514
sS'451229224935100416'
p1515
S'donation_needs_or_offers_or_volunteering_services'
p1516
sS'451228628072669184'
p1517
S'injured_or_dead_people'
p1518
sS'451228423512281088'
p1519
S'donation_needs_or_offers_or_volunteering_services'
p1520
sS'451228660939653120'
p1521
S'other_useful_information'
p1522
sS'451228598780059648'
p1523
S'injured_or_dead_people'
p1524
sS'451229116768215040'
p1525
S'injured_or_dead_people'
p1526
sS'451229235899035649'
p1527
S'not_related_or_irrelevant'
p1528
sS'451228868377337856'
p1529
S'sympathy_and_emotional_support'
p1530
sS'451229082995671040'
p1531
S'not_related_or_irrelevant'
p1532
sS'451229004763525121'
p1533
S'injured_or_dead_people'
p1534
sS'451228565611110401'
p1535
S'other_useful_information'
p1536
sS'451228832758906880'
p1537
S'injured_or_dead_people'
p1538
sS'451229376135569408'
p1539
S'injured_or_dead_people'
p1540
sS'451229237157306368'
p1541
S'infrastructure_and_utilities_damage'
p1542
sS'451229095905353728'
p1543
S'missing_trapped_or_found_people'
p1544
sS'451228657818664962'
p1545
S'donation_needs_or_offers_or_volunteering_services'
p1546
sS'451228425010040832'
p1547
S'not_related_or_irrelevant'
p1548
sS'451228525002240000'
p1549
S'not_related_or_irrelevant'
p1550
sS'451228817357426689'
p1551
S'injured_or_dead_people'
p1552
sS'451228846759501824'
p1553
S'other_useful_information'
p1554
sS'451228734767775744'
p1555
S'other_useful_information'
p1556
sS'451228740840722432'
p1557
S'injured_or_dead_people'
p1558
sS'451229083171844096'
p1559
S'donation_needs_or_offers_or_volunteering_services'
p1560
sS'451229387292413952'
p1561
S'donation_needs_or_offers_or_volunteering_services'
p1562
sS'451229151480270848'
p1563
S'donation_needs_or_offers_or_volunteering_services'
p1564
sS'451228785153966080'
p1565
S'not_related_or_irrelevant'
p1566
sS'451229387309203456'
p1567
S'injured_or_dead_people'
p1568
sS'451228682343157760'
p1569
S'sympathy_and_emotional_support'
p1570
sS'451228896865054721'
p1571
S'injured_or_dead_people'
p1572
sS'451228847640698880'
p1573
S'donation_needs_or_offers_or_volunteering_services'
p1574
sS'451228926417723394'
p1575
S'other_useful_information'
p1576
sS'451229313241993216'
p1577
S'other_useful_information'
p1578
sS'451228933631913985'
p1579
S'donation_needs_or_offers_or_volunteering_services'
p1580
sS'451228425609424897'
p1581
S'donation_needs_or_offers_or_volunteering_services'
p1582
sS'451229133398609920'
p1583
S'donation_needs_or_offers_or_volunteering_services'
p1584
sS'451228977492164608'
p1585
S'injured_or_dead_people'
p1586
sS'451228827960619008'
p1587
S'sympathy_and_emotional_support'
p1588
sS'451229264277286912'
p1589
S'displaced_people_and_evacuations'
p1590
sS'451228479745703936'
p1591
S'sympathy_and_emotional_support'
p1592
sS'451229371332702208'
p1593
S'donation_needs_or_offers_or_volunteering_services'
p1594
sS'451228612570906625'
p1595
S'not_related_or_irrelevant'
p1596
sS'451229378706702338'
p1597
S'missing_trapped_or_found_people'
p1598
sS'451229069838131200'
p1599
S'donation_needs_or_offers_or_volunteering_services'
p1600
sS'451228657613561856'
p1601
S'sympathy_and_emotional_support'
p1602
sS'451229062254850049'
p1603
S'sympathy_and_emotional_support'
p1604
sS'451228706724646913'
p1605
S'donation_needs_or_offers_or_volunteering_services'
p1606
sS'451229291079270400'
p1607
S'donation_needs_or_offers_or_volunteering_services'
p1608
sS'451228584292941824'
p1609
S'not_related_or_irrelevant'
p1610
sS'451228878972125184'
p1611
S'other_useful_information'
p1612
sS'451229221268910080'
p1613
S'donation_needs_or_offers_or_volunteering_services'
p1614
sS'451228783882670081'
p1615
S'donation_needs_or_offers_or_volunteering_services'
p1616
sS'451228707730882560'
p1617
S'donation_needs_or_offers_or_volunteering_services'
p1618
sS'451228929333161984'
p1619
S'donation_needs_or_offers_or_volunteering_services'
p1620
sS'451228480836239360'
p1621
S'not_related_or_irrelevant'
p1622
sS'451229379096367104'
p1623
S'not_related_or_irrelevant'
p1624
sS'451229311488761857'
p1625
S'injured_or_dead_people'
p1626
sS'451228565451730945'
p1627
S'donation_needs_or_offers_or_volunteering_services'
p1628
sS'451229054654361600'
p1629
S'injured_or_dead_people'
p1630
sS'451229067769962496'
p1631
S'injured_or_dead_people'
p1632
sS'451228831341215744'
p1633
S'missing_trapped_or_found_people'
p1634
sS'451229068420448256'
p1635
S'injured_or_dead_people'
p1636
sS'451228511387529216'
p1637
S'injured_or_dead_people'
p1638
sS'451229382376312832'
p1639
S'injured_or_dead_people'
p1640
sS'451228881588989952'
p1641
S'donation_needs_or_offers_or_volunteering_services'
p1642
sS'451229192634765312'
p1643
S'sympathy_and_emotional_support'
p1644
sS'451229223202459649'
p1645
S'injured_or_dead_people'
p1646
sS'451229113169477632'
p1647
S'not_related_or_irrelevant'
p1648
sS'451229286432014337'
p1649
S'donation_needs_or_offers_or_volunteering_services'
p1650
sS'451228859795783680'
p1651
S'caution_and_advice'
p1652
sS'451228602281897984'
p1653
S'donation_needs_or_offers_or_volunteering_services'
p1654
sS'451228418424983553'
p1655
S'injured_or_dead_people'
p1656
sS'451228682997477376'
p1657
S'other_useful_information'
p1658
sS'451228473202601984'
p1659
S'not_related_or_irrelevant'
p1660
sS'451228452167745536'
p1661
S'donation_needs_or_offers_or_volunteering_services'
p1662
sS'451229430640160768'
p1663
S'donation_needs_or_offers_or_volunteering_services'
p1664
sS'451228920323379203'
p1665
S'donation_needs_or_offers_or_volunteering_services'
p1666
sS'451228904117010432'
p1667
S'not_related_or_irrelevant'
p1668
sS'451228541988790272'
p1669
S'injured_or_dead_people'
p1670
sS'451228831438086144'
p1671
S'sympathy_and_emotional_support'
p1672
sS'451229091476164608'
p1673
S'donation_needs_or_offers_or_volunteering_services'
p1674
sS'451228481322360833'
p1675
S'not_related_or_irrelevant'
p1676
sS'451228861796454400'
p1677
S'sympathy_and_emotional_support'
p1678
sS'451228862350131201'
p1679
S'other_useful_information'
p1680
sS'451228938245636096'
p1681
S'sympathy_and_emotional_support'
p1682
sS'451229266332876800'
p1683
S'not_related_or_irrelevant'
p1684
sS'451228595180941312'
p1685
S'donation_needs_or_offers_or_volunteering_services'
p1686
sS'451229195981824000'
p1687
S'donation_needs_or_offers_or_volunteering_services'
p1688
sS'451228609420619776'
p1689
S'injured_or_dead_people'
p1690
sS'451228484933660672'
p1691
S'infrastructure_and_utilities_damage'
p1692
sS'451229370376785921'
p1693
S'injured_or_dead_people'
p1694
sS'451228746771877889'
p1695
S'injured_or_dead_people'
p1696
sS'451229246229598208'
p1697
S'donation_needs_or_offers_or_volunteering_services'
p1698
sS'451229282669326336'
p1699
S'donation_needs_or_offers_or_volunteering_services'
p1700
sS'451229435308834816'
p1701
S'injured_or_dead_people'
p1702
sS'451228428222877696'
p1703
S'injured_or_dead_people'
p1704
sS'451229278991314944'
p1705
S'injured_or_dead_people'
p1706
sS'451229371664064512'
p1707
S'donation_needs_or_offers_or_volunteering_services'
p1708
sS'451228992289267712'
p1709
S'donation_needs_or_offers_or_volunteering_services'
p1710
sS'451228870055055360'
p1711
S'infrastructure_and_utilities_damage'
p1712
sS'451229347861364737'
p1713
S'sympathy_and_emotional_support'
p1714
sS'451228926430302208'
p1715
S'injured_or_dead_people'
p1716
sS'451229276038524928'
p1717
S'sympathy_and_emotional_support'
p1718
sS'451228958156402688'
p1719
S'not_related_or_irrelevant'
p1720
sS'451229306341961728'
p1721
S'injured_or_dead_people'
p1722
sS'451228690081251328'
p1723
S'missing_trapped_or_found_people'
p1724
sS'451229321902817280'
p1725
S'sympathy_and_emotional_support'
p1726
sS'451229167548264448'
p1727
S'injured_or_dead_people'
p1728
sS'451228422678020096'
p1729
S'sympathy_and_emotional_support'
p1730
sS'451229127215833088'
p1731
S'other_useful_information'
p1732
sS'451229436705521664'
p1733
S'caution_and_advice'
p1734
sS'451229235600834560'
p1735
S'donation_needs_or_offers_or_volunteering_services'
p1736
sS'451228935599427585'
p1737
S'injured_or_dead_people'
p1738
sS'451228590538256384'
p1739
S'injured_or_dead_people'
p1740
sS'451228502818177024'
p1741
S'injured_or_dead_people'
p1742
sS'451229286943694848'
p1743
S'not_related_or_irrelevant'
p1744
sS'451228707227987968'
p1745
S'injured_or_dead_people'
p1746
sS'451228936278900736'
p1747
S'donation_needs_or_offers_or_volunteering_services'
p1748
sS'451229429562626048'
p1749
S'not_related_or_irrelevant'
p1750
sS'451228508501467136'
p1751
S'donation_needs_or_offers_or_volunteering_services'
p1752
sS'451229203770269696'
p1753
S'injured_or_dead_people'
p1754
sS'451228770318700544'
p1755
S'injured_or_dead_people'
p1756
sS'451228752459341824'
p1757
S'injured_or_dead_people'
p1758
sS'451228504030720000'
p1759
S'donation_needs_or_offers_or_volunteering_services'
p1760
sS'451229061159723008'
p1761
S'sympathy_and_emotional_support'
p1762
sS'451229145414901761'
p1763
S'injured_or_dead_people'
p1764
sS'451229063496343552'
p1765
S'donation_needs_or_offers_or_volunteering_services'
p1766
sS'451229296313769984'
p1767
S'injured_or_dead_people'
p1768
sS'451229252068069376'
p1769
S'not_related_or_irrelevant'
p1770
sS'451229390685626368'
p1771
S'donation_needs_or_offers_or_volunteering_services'
p1772
sS'451228527942045696'
p1773
S'not_related_or_irrelevant'
p1774
sS'451229206698287105'
p1775
S'injured_or_dead_people'
p1776
sS'451228627565563904'
p1777
S'donation_needs_or_offers_or_volunteering_services'
p1778
sS'451229445412507648'
p1779
S'donation_needs_or_offers_or_volunteering_services'
p1780
sS'451229118474899456'
p1781
S'donation_needs_or_offers_or_volunteering_services'
p1782
sS'451229275879137280'
p1783
S'donation_needs_or_offers_or_volunteering_services'
p1784
sS'451229436470640640'
p1785
S'injured_or_dead_people'
p1786
sS'451229232765861888'
p1787
S'sympathy_and_emotional_support'
p1788
sS'451228622855368704'
p1789
S'not_related_or_irrelevant'
p1790
sS'451228875159130112'
p1791
S'injured_or_dead_people'
p1792
sS'451229058567655424'
p1793
S'not_related_or_irrelevant'
p1794
sS'451229075936256000'
p1795
S'injured_or_dead_people'
p1796
sS'451229269662765056'
p1797
S'injured_or_dead_people'
p1798
sS'451229328647680000'
p1799
S'other_useful_information'
p1800
sS'451228699015127041'
p1801
S'injured_or_dead_people'
p1802
sS'451229183796969472'
p1803
S'sympathy_and_emotional_support'
p1804
sS'451228810219102208'
p1805
S'sympathy_and_emotional_support'
p1806
sS'451229220736606208'
p1807
S'injured_or_dead_people'
p1808
sS'451229278479605760'
p1809
S'sympathy_and_emotional_support'
p1810
sS'451229046026686464'
p1811
S'injured_or_dead_people'
p1812
sS'451229361031487488'
p1813
S'donation_needs_or_offers_or_volunteering_services'
p1814
sS'451228603255390208'
p1815
S'donation_needs_or_offers_or_volunteering_services'
p1816
sS'451228423390633984'
p1817
S'not_related_or_irrelevant'
p1818
sS'451229360432115712'
p1819
S'not_related_or_irrelevant'
p1820
sS'451229424256446465'
p1821
S'donation_needs_or_offers_or_volunteering_services'
p1822
sS'451229389007884288'
p1823
S'injured_or_dead_people'
p1824
sS'451228785636290561'
p1825
S'injured_or_dead_people'
p1826
sS'451228563673329664'
p1827
S'injured_or_dead_people'
p1828
sS'451228600079892480'
p1829
S'injured_or_dead_people'
p1830
sS'451228434690109440'
p1831
S'infrastructure_and_utilities_damage'
p1832
sS'451228483121717251'
p1833
S'other_useful_information'
p1834
sS'451229203414151168'
p1835
S'donation_needs_or_offers_or_volunteering_services'
p1836
sS'451228650508398592'
p1837
S'injured_or_dead_people'
p1838
sS'451228745068605440'
p1839
S'injured_or_dead_people'
p1840
sS'451228587333795841'
p1841
S'donation_needs_or_offers_or_volunteering_services'
p1842
sS'451229357894152192'
p1843
S'donation_needs_or_offers_or_volunteering_services'
p1844
sS'451228686789140480'
p1845
S'donation_needs_or_offers_or_volunteering_services'
p1846
sS'451229316387323904'
p1847
S'injured_or_dead_people'
p1848
sS'451228726500421632'
p1849
S'donation_needs_or_offers_or_volunteering_services'
p1850
sS'451228768518955008'
p1851
S'injured_or_dead_people'
p1852
sS'451229175039688704'
p1853
S'injured_or_dead_people'
p1854
sS'451228588176445440'
p1855
S'not_related_or_irrelevant'
p1856
sS'451229215917375488'
p1857
S'injured_or_dead_people'
p1858
sS'451228601531133952'
p1859
S'sympathy_and_emotional_support'
p1860
sS'451228684842991616'
p1861
S'donation_needs_or_offers_or_volunteering_services'
p1862
sS'451228883657179136'
p1863
S'injured_or_dead_people'
p1864
sS'451228798621872128'
p1865
S'donation_needs_or_offers_or_volunteering_services'
p1866
sS'451229330161405952'
p1867
S'not_related_or_irrelevant'
p1868
sS'451228689905516544'
p1869
S'injured_or_dead_people'
p1870
sS'451228686323568640'
p1871
S'injured_or_dead_people'
p1872
sS'451229092482805760'
p1873
S'injured_or_dead_people'
p1874
sS'451228514109648896'
p1875
S'injured_or_dead_people'
p1876
sS'451229164251918336'
p1877
S'other_useful_information'
p1878
sS'451228735094939648'
p1879
S'not_related_or_irrelevant'
p1880
sS'451229117707747328'
p1881
S'missing_trapped_or_found_people'
p1882
sS'451229077949919232'
p1883
S'injured_or_dead_people'
p1884
sS'451229410541445120'
p1885
S'infrastructure_and_utilities_damage'
p1886
sS'451228841806422016'
p1887
S'donation_needs_or_offers_or_volunteering_services'
p1888
sS'451228514793291776'
p1889
S'injured_or_dead_people'
p1890
sS'451228627879747585'
p1891
S'donation_needs_or_offers_or_volunteering_services'
p1892
sS'451228529791754240'
p1893
S'donation_needs_or_offers_or_volunteering_services'
p1894
sS'451228484619091968'
p1895
S'donation_needs_or_offers_or_volunteering_services'
p1896
sS'451229348595765248'
p1897
S'sympathy_and_emotional_support'
p1898
sS'451228459470442497'
p1899
S'donation_needs_or_offers_or_volunteering_services'
p1900
sS'451228419494514688'
p1901
S'injured_or_dead_people'
p1902
sS'451229316907794432'
p1903
S'sympathy_and_emotional_support'
p1904
sS'451229138276188161'
p1905
S'injured_or_dead_people'
p1906
sS'451228514004770816'
p1907
S'injured_or_dead_people'
p1908
sS'451228412083204096'
p1909
S'injured_or_dead_people'
p1910
sS'451228652085055488'
p1911
S'sympathy_and_emotional_support'
p1912
sS'451228927550574592'
p1913
S'sympathy_and_emotional_support'
p1914
sS'451229252328128513'
p1915
S'donation_needs_or_offers_or_volunteering_services'
p1916
sS'451228535127306240'
p1917
S'donation_needs_or_offers_or_volunteering_services'
p1918
sS'451228423537438722'
p1919
S'injured_or_dead_people'
p1920
sS'451228653704470528'
p1921
S'donation_needs_or_offers_or_volunteering_services'
p1922
sS'451228651732750336'
p1923
S'donation_needs_or_offers_or_volunteering_services'
p1924
sS'451228652563619840'
p1925
S'other_useful_information'
p1926
sS'451229268702666752'
p1927
S'sympathy_and_emotional_support'
p1928
sS'451229066180706304'
p1929
S'not_related_or_irrelevant'
p1930
sS'451229251123937280'
p1931
S'donation_needs_or_offers_or_volunteering_services'
p1932
sS'451229458440404992'
p1933
S'injured_or_dead_people'
p1934
sS'451228906230931456'
p1935
S'sympathy_and_emotional_support'
p1936
sS'451229078075764737'
p1937
S'donation_needs_or_offers_or_volunteering_services'
p1938
sS'451229181905743872'
p1939
S'injured_or_dead_people'
p1940
sS'451228871216889856'
p1941
S'donation_needs_or_offers_or_volunteering_services'
p1942
sS'451228839234920448'
p1943
S'sympathy_and_emotional_support'
p1944
sS'451229084123922432'
p1945
S'donation_needs_or_offers_or_volunteering_services'
p1946
sS'451228848966074368'
p1947
S'injured_or_dead_people'
p1948
sS'451228852929695744'
p1949
S'sympathy_and_emotional_support'
p1950
sS'451228416424292352'
p1951
S'injured_or_dead_people'
p1952
sS'451228736730312704'
p1953
S'donation_needs_or_offers_or_volunteering_services'
p1954
sS'451229165866713088'
p1955
S'not_related_or_irrelevant'
p1956
sS'451228922257371136'
p1957
S'injured_or_dead_people'
p1958
sS'451228770049863680'
p1959
S'injured_or_dead_people'
p1960
sS'451228554462646272'
p1961
S'sympathy_and_emotional_support'
p1962
sS'451229041950228480'
p1963
S'injured_or_dead_people'
p1964
sS'451228620074524672'
p1965
S'sympathy_and_emotional_support'
p1966
sS'451229187659952128'
p1967
S'injured_or_dead_people'
p1968
sS'451228467238273024'
p1969
S'injured_or_dead_people'
p1970
sS'451228425366171650'
p1971
S'injured_or_dead_people'
p1972
sS'451229223873945600'
p1973
S'infrastructure_and_utilities_damage'
p1974
sS'451228454009069568'
p1975
S'injured_or_dead_people'
p1976
sS'451229349069717504'
p1977
S'donation_needs_or_offers_or_volunteering_services'
p1978
sS'451228832465305600'
p1979
S'donation_needs_or_offers_or_volunteering_services'
p1980
sS'451228451920285696'
p1981
S'not_related_or_irrelevant'
p1982
sS'451228714127589376'
p1983
S'injured_or_dead_people'
p1984
sS'451228614324137984'
p1985
S'injured_or_dead_people'
p1986
sS'451229104487268352'
p1987
S'donation_needs_or_offers_or_volunteering_services'
p1988
sS'451228584762306560'
p1989
S'caution_and_advice'
p1990
sS'451228443271643137'
p1991
S'injured_or_dead_people'
p1992
sS'451229224859602945'
p1993
S'donation_needs_or_offers_or_volunteering_services'
p1994
sS'451228499978633216'
p1995
S'not_related_or_irrelevant'
p1996
sS'451229011113689088'
p1997
S'other_useful_information'
p1998
sS'451228936622465024'
p1999
S'injured_or_dead_people'
p2000
sS'451228581788925952'
p2001
S'donation_needs_or_offers_or_volunteering_services'
p2002
sS'451228624771768320'
p2003
S'injured_or_dead_people'
p2004
sS'451228584703574016'
p2005
S'other_useful_information'
p2006
sS'451228477132247040'
p2007
S'caution_and_advice'
p2008
sS'451229208841568256'
p2009
S'injured_or_dead_people'
p2010
sS'451229284816793600'
p2011
S'donation_needs_or_offers_or_volunteering_services'
p2012
sS'451229085939666944'
p2013
S'sympathy_and_emotional_support'
p2014
sS'451228444505161729'
p2015
S'donation_needs_or_offers_or_volunteering_services'
p2016
sS'451229329134190592'
p2017
S'displaced_people_and_evacuations'
p2018
sS'451228990749954048'
p2019
S'other_useful_information'
p2020
sS'451228929114656768'
p2021
S'injured_or_dead_people'
p2022
sS'451229176876793856'
p2023
S'donation_needs_or_offers_or_volunteering_services'
p2024
sS'451228546665811968'
p2025
S'not_related_or_irrelevant'
p2026
sS'451229375720325120'
p2027
S'not_related_or_irrelevant'
p2028
sS'451228477292032000'
p2029
S'injured_or_dead_people'
p2030
sS'451228726290690048'
p2031
S'injured_or_dead_people'
p2032
sS'451229141556150272'
p2033
S'donation_needs_or_offers_or_volunteering_services'
p2034
sS'451229076960063488'
p2035
S'caution_and_advice'
p2036
sS'451228630664753154'
p2037
S'injured_or_dead_people'
p2038
sS'451228871254614016'
p2039
S'injured_or_dead_people'
p2040
sS'451228610104270848'
p2041
S'not_related_or_irrelevant'
p2042
sS'451229366178299904'
p2043
S'missing_trapped_or_found_people'
p2044
sS'451228612340240385'
p2045
S'injured_or_dead_people'
p2046
sS'451228418915328000'
p2047
S'donation_needs_or_offers_or_volunteering_services'
p2048
sS'451228578726690816'
p2049
S'injured_or_dead_people'
p2050
sS'451228748856442880'
p2051
S'donation_needs_or_offers_or_volunteering_services'
p2052
sS'451229236851130369'
p2053
S'other_useful_information'
p2054
sS'451229386399055872'
p2055
S'injured_or_dead_people'
p2056
sS'451229217175633920'
p2057
S'not_related_or_irrelevant'
p2058
sS'451229386105028608'
p2059
S'donation_needs_or_offers_or_volunteering_services'
p2060
sS'451229228135354368'
p2061
S'sympathy_and_emotional_support'
p2062
sS'451228775133368320'
p2063
S'injured_or_dead_people'
p2064
sS'451229118861176832'
p2065
S'not_related_or_irrelevant'
p2066
sS'451229304568184832'
p2067
S'donation_needs_or_offers_or_volunteering_services'
p2068
sS'451229346494431234'
p2069
S'donation_needs_or_offers_or_volunteering_services'
p2070
sS'451229313132941313'
p2071
S'donation_needs_or_offers_or_volunteering_services'
p2072
sS'451228694921904129'
p2073
S'injured_or_dead_people'
p2074
sS'451229303574110208'
p2075
S'donation_needs_or_offers_or_volunteering_services'
p2076
sS'451228906457006080'
p2077
S'donation_needs_or_offers_or_volunteering_services'
p2078
sS'451228473458061312'
p2079
S'injured_or_dead_people'
p2080
sS'451228548553256960'
p2081
S'injured_or_dead_people'
p2082
sS'451228489279344640'
p2083
S'donation_needs_or_offers_or_volunteering_services'
p2084
sS'451228493305884674'
p2085
S'injured_or_dead_people'
p2086
sS'451228737191702528'
p2087
S'not_related_or_irrelevant'
p2088
sS'451228627212845057'
p2089
S'donation_needs_or_offers_or_volunteering_services'
p2090
sS'451228733320744960'
p2091
S'other_useful_information'
p2092
sS'451228582367735808'
p2093
S'donation_needs_or_offers_or_volunteering_services'
p2094
sS'451228635748642816'
p2095
S'donation_needs_or_offers_or_volunteering_services'
p2096
sS'451229333437550592'
p2097
S'injured_or_dead_people'
p2098
sS'451228867915964416'
p2099
S'displaced_people_and_evacuations'
p2100
sS'451228869043830785'
p2101
S'injured_or_dead_people'
p2102
sS'451228641083412480'
p2103
S'donation_needs_or_offers_or_volunteering_services'
p2104
sS'451228563363348481'
p2105
S'donation_needs_or_offers_or_volunteering_services'
p2106
sS'451228784297914368'
p2107
S'donation_needs_or_offers_or_volunteering_services'
p2108
sS'451229228001148928'
p2109
S'sympathy_and_emotional_support'
p2110
sS'451229294543794177'
p2111
S'injured_or_dead_people'
p2112
sS'451229428857581569'
p2113
S'donation_needs_or_offers_or_volunteering_services'
p2114
sS'451228769051619329'
p2115
S'other_useful_information'
p2116
sS'451228594824830976'
p2117
S'not_related_or_irrelevant'
p2118
sS'451229151920676864'
p2119
S'not_related_or_irrelevant'
p2120
sS'451228424200544256'
p2121
S'donation_needs_or_offers_or_volunteering_services'
p2122
sS'451229322448494592'
p2123
S'injured_or_dead_people'
p2124
sS'451228839322984449'
p2125
S'not_related_or_irrelevant'
p2126
sS'451229047767719937'
p2127
S'donation_needs_or_offers_or_volunteering_services'
p2128
sS'451229438085058560'
p2129
S'not_related_or_irrelevant'
p2130
sS'451229267377266689'
p2131
S'other_useful_information'
p2132
sS'451228419238293505'
p2133
S'infrastructure_and_utilities_damage'
p2134
sS'451228523739361280'
p2135
S'injured_or_dead_people'
p2136
sS'451228833950470144'
p2137
S'injured_or_dead_people'
p2138
sS'451229258988670976'
p2139
S'injured_or_dead_people'
p2140
sS'451228906860068864'
p2141
S'other_useful_information'
p2142
sS'451229399543992320'
p2143
S'other_useful_information'
p2144
sS'451229411275456512'
p2145
S'donation_needs_or_offers_or_volunteering_services'
p2146
sS'451228497751855104'
p2147
S'injured_or_dead_people'
p2148
sS'451229445253521408'
p2149
S'donation_needs_or_offers_or_volunteering_services'
p2150
sS'451228455414550528'
p2151
S'injured_or_dead_people'
p2152
sS'451229280400592897'
p2153
S'donation_needs_or_offers_or_volunteering_services'
p2154
sS'451228994189672448'
p2155
S'donation_needs_or_offers_or_volunteering_services'
p2156
sS'451229226306666496'
p2157
S'sympathy_and_emotional_support'
p2158
sS'451229132899491840'
p2159
S'injured_or_dead_people'
p2160
sS'451229004695994368'
p2161
S'missing_trapped_or_found_people'
p2162
sS'451229193196830720'
p2163
S'donation_needs_or_offers_or_volunteering_services'
p2164
sS'451228920558268417'
p2165
S'donation_needs_or_offers_or_volunteering_services'
p2166
sS'451228652253245440'
p2167
S'injured_or_dead_people'
p2168
sS'451228602471038976'
p2169
S'sympathy_and_emotional_support'
p2170
sS'451228857509494785'
p2171
S'donation_needs_or_offers_or_volunteering_services'
p2172
sS'451229209944686592'
p2173
S'injured_or_dead_people'
p2174
sS'451229340135460864'
p2175
S'not_related_or_irrelevant'
p2176
sS'451228655356637184'
p2177
S'other_useful_information'
p2178
sS'451229264025640961'
p2179
S'injured_or_dead_people'
p2180
sS'451228588420136961'
p2181
S'donation_needs_or_offers_or_volunteering_services'
p2182
sS'451228526017249280'
p2183
S'other_useful_information'
p2184
sS'451228960316063744'
p2185
S'injured_or_dead_people'
p2186
sS'451228950908661760'
p2187
S'injured_or_dead_people'
p2188
sS'451229299593719808'
p2189
S'not_related_or_irrelevant'
p2190
sS'451228538130423808'
p2191
S'donation_needs_or_offers_or_volunteering_services'
p2192
sS'451228630849290241'
p2193
S'sympathy_and_emotional_support'
p2194
sS'451229107016454144'
p2195
S'donation_needs_or_offers_or_volunteering_services'
p2196
sS'451229179041038336'
p2197
S'donation_needs_or_offers_or_volunteering_services'
p2198
sS'451229234938527744'
p2199
S'injured_or_dead_people'
p2200
sS'451228518983434240'
p2201
S'missing_trapped_or_found_people'
p2202
sS'451229372880805888'
p2203
S'injured_or_dead_people'
p2204
sS'451228446887129088'
p2205
S'donation_needs_or_offers_or_volunteering_services'
p2206
sS'451229142252785665'
p2207
S'donation_needs_or_offers_or_volunteering_services'
p2208
sS'451228834210525184'
p2209
S'injured_or_dead_people'
p2210
sS'451229327460691968'
p2211
S'donation_needs_or_offers_or_volunteering_services'
p2212
sS'451228689955835904'
p2213
S'donation_needs_or_offers_or_volunteering_services'
p2214
sS'451229078616432640'
p2215
S'donation_needs_or_offers_or_volunteering_services'
p2216
sS'451228716501172224'
p2217
S'sympathy_and_emotional_support'
p2218
sS'451229405277597696'
p2219
S'injured_or_dead_people'
p2220
sS'451228987508142080'
p2221
S'injured_or_dead_people'
p2222
sS'451228750395752448'
p2223
S'injured_or_dead_people'
p2224
sS'451229017853534209'
p2225
S'donation_needs_or_offers_or_volunteering_services'
p2226
sS'451228577691086848'
p2227
S'donation_needs_or_offers_or_volunteering_services'
p2228
sS'451228973838508032'
p2229
S'injured_or_dead_people'
p2230
sS'451229034601775104'
p2231
S'injured_or_dead_people'
p2232
sS'451228628282777601'
p2233
S'injured_or_dead_people'
p2234
sS'451229455865090048'
p2235
S'other_useful_information'
p2236
sS'451228431624466432'
p2237
S'sympathy_and_emotional_support'
p2238
sS'451228728870584320'
p2239
S'infrastructure_and_utilities_damage'
p2240
sS'451229233898352640'
p2241
S'other_useful_information'
p2242
sS'451229435673313280'
p2243
S'donation_needs_or_offers_or_volunteering_services'
p2244
sS'451229294593732608'
p2245
S'not_related_or_irrelevant'
p2246
sS'451228551837011968'
p2247
S'injured_or_dead_people'
p2248
sS'451228475584962560'
p2249
S'injured_or_dead_people'
p2250
sS'451229208812191744'
p2251
S'injured_or_dead_people'
p2252
sS'451229302286065664'
p2253
S'donation_needs_or_offers_or_volunteering_services'
p2254
sS'451229280656453632'
p2255
S'injured_or_dead_people'
p2256
sS'451228996647129088'
p2257
S'injured_or_dead_people'
p2258
sS'451229440522326016'
p2259
S'injured_or_dead_people'
p2260
sS'451229008399593472'
p2261
S'missing_trapped_or_found_people'
p2262
sS'451228751494660096'
p2263
S'donation_needs_or_offers_or_volunteering_services'
p2264
sS'451228970009116672'
p2265
S'donation_needs_or_offers_or_volunteering_services'
p2266
sS'451228706766602240'
p2267
S'injured_or_dead_people'
p2268
sS'451228489279352832'
p2269
S'injured_or_dead_people'
p2270
sS'451228679524581376'
p2271
S'donation_needs_or_offers_or_volunteering_services'
p2272
sS'451228621097955328'
p2273
S'not_related_or_irrelevant'
p2274
sS'451229228638670848'
p2275
S'injured_or_dead_people'
p2276
sS'451228467133444096'
p2277
S'injured_or_dead_people'
p2278
sS'451228537086025728'
p2279
S'injured_or_dead_people'
p2280
sS'451229184141299712'
p2281
S'injured_or_dead_people'
p2282
sS'451228617763082240'
p2283
S'donation_needs_or_offers_or_volunteering_services'
p2284
sS'451229445257297920'
p2285
S'injured_or_dead_people'
p2286
sS'451229067053117441'
p2287
S'missing_trapped_or_found_people'
p2288
sS'451228885699416064'
p2289
S'other_useful_information'
p2290
sS'451229412214968320'
p2291
S'donation_needs_or_offers_or_volunteering_services'
p2292
sS'451228843349516288'
p2293
S'donation_needs_or_offers_or_volunteering_services'
p2294
sS'451228700873224192'
p2295
S'sympathy_and_emotional_support'
p2296
sS'451229221923598336'
p2297
S'sympathy_and_emotional_support'
p2298
sS'451228597840515072'
p2299
S'donation_needs_or_offers_or_volunteering_services'
p2300
sS'451228961176305664'
p2301
S'other_useful_information'
p2302
sS'451228433096261632'
p2303
S'other_useful_information'
p2304
sS'451228964460441600'
p2305
S'donation_needs_or_offers_or_volunteering_services'
p2306
sS'451228439304208384'
p2307
S'donation_needs_or_offers_or_volunteering_services'
p2308
sS'451229334809108480'
p2309
S'injured_or_dead_people'
p2310
sS'451228979937439744'
p2311
S'injured_or_dead_people'
p2312
sS'451229349048745984'
p2313
S'donation_needs_or_offers_or_volunteering_services'
p2314
sS'451229289619259392'
p2315
S'donation_needs_or_offers_or_volunteering_services'
p2316
sS'451229014246838272'
p2317
S'other_useful_information'
p2318
sS'451228969640013825'
p2319
S'injured_or_dead_people'
p2320
sS'451229003190251520'
p2321
S'injured_or_dead_people'
p2322
sS'451228417644851200'
p2323
S'sympathy_and_emotional_support'
p2324
sS'451228491967500288'
p2325
S'injured_or_dead_people'
p2326
sS'451229033939107840'
p2327
S'injured_or_dead_people'
p2328
sS'451229136334225408'
p2329
S'other_useful_information'
p2330
sS'451229374675943424'
p2331
S'caution_and_advice'
p2332
sS'451229115580825600'
p2333
S'donation_needs_or_offers_or_volunteering_services'
p2334
sS'451229190676041728'
p2335
S'sympathy_and_emotional_support'
p2336
sS'451229363384909824'
p2337
S'sympathy_and_emotional_support'
p2338
sS'451229331701137408'
p2339
S'injured_or_dead_people'
p2340
sS'451229341238976512'
p2341
S'donation_needs_or_offers_or_volunteering_services'
p2342
sS'451229072887398400'
p2343
S'not_related_or_irrelevant'
p2344
sS'451229250473832448'
p2345
S'missing_trapped_or_found_people'
p2346
sS'451229227988582400'
p2347
S'donation_needs_or_offers_or_volunteering_services'
p2348
sS'451228833027751936'
p2349
S'donation_needs_or_offers_or_volunteering_services'
p2350
sS'451229433815646208'
p2351
S'injured_or_dead_people'
p2352
sS'451228659740057600'
p2353
S'donation_needs_or_offers_or_volunteering_services'
p2354
sS'451228585143984128'
p2355
S'donation_needs_or_offers_or_volunteering_services'
p2356
sS'451228833984040960'
p2357
S'injured_or_dead_people'
p2358
sS'451228688341024768'
p2359
S'donation_needs_or_offers_or_volunteering_services'
p2360
sS'451228560678612993'
p2361
S'injured_or_dead_people'
p2362
sS'451229415620739072'
p2363
S'other_useful_information'
p2364
sS'451228633567223808'
p2365
S'donation_needs_or_offers_or_volunteering_services'
p2366
sS'451229318610694144'
p2367
S'sympathy_and_emotional_support'
p2368
sS'451228771098845184'
p2369
S'sympathy_and_emotional_support'
p2370
sS'451229346200817665'
p2371
S'donation_needs_or_offers_or_volunteering_services'
p2372
sS'451228688114548736'
p2373
S'injured_or_dead_people'
p2374
sS'451228452679876608'
p2375
S'sympathy_and_emotional_support'
p2376
sS'451229290902724609'
p2377
S'injured_or_dead_people'
p2378
sS'451229080550408193'
p2379
S'infrastructure_and_utilities_damage'
p2380
sS'451229231960576000'
p2381
S'other_useful_information'
p2382
sS'451228538952515584'
p2383
S'not_related_or_irrelevant'
p2384
sS'451229184744898560'
p2385
S'donation_needs_or_offers_or_volunteering_services'
p2386
sS'451229288252317696'
p2387
S'not_related_or_irrelevant'
p2388
sS'451229367142985728'
p2389
S'donation_needs_or_offers_or_volunteering_services'
p2390
sS'451229325807718401'
p2391
S'injured_or_dead_people'
p2392
sS'451228723254423552'
p2393
S'donation_needs_or_offers_or_volunteering_services'
p2394
sS'451228998241374208'
p2395
S'injured_or_dead_people'
p2396
sS'451228591913566208'
p2397
S'other_useful_information'
p2398
sS'451229145880485888'
p2399
S'donation_needs_or_offers_or_volunteering_services'
p2400
sS'451228794435551232'
p2401
S'injured_or_dead_people'
p2402
sS'451228471889788928'
p2403
S'donation_needs_or_offers_or_volunteering_services'
p2404
sS'451228614898761729'
p2405
S'injured_or_dead_people'
p2406
sS'451228831895269376'
p2407
S'injured_or_dead_people'
p2408
sS'451229310787915776'
p2409
S'donation_needs_or_offers_or_volunteering_services'
p2410
sS'451228566139994112'
p2411
S'donation_needs_or_offers_or_volunteering_services'
p2412
sS'451228876967280640'
p2413
S'injured_or_dead_people'
p2414
sS'451228708880121856'
p2415
S'sympathy_and_emotional_support'
p2416
sS'451229096953929728'
p2417
S'injured_or_dead_people'
p2418
sS'451228503896096768'
p2419
S'injured_or_dead_people'
p2420
sS'451228544325398528'
p2421
S'injured_or_dead_people'
p2422
sS'451229083527958528'
p2423
S'injured_or_dead_people'
p2424
sS'451228742644678656'
p2425
S'injured_or_dead_people'
p2426
sS'451228422912880640'
p2427
S'injured_or_dead_people'
p2428
sS'451228713430945792'
p2429
S'donation_needs_or_offers_or_volunteering_services'
p2430
sS'451228672674914304'
p2431
S'injured_or_dead_people'
p2432
sS'451228890821050368'
p2433
S'donation_needs_or_offers_or_volunteering_services'
p2434
sS'451228801809543168'
p2435
S'injured_or_dead_people'
p2436
sS'451229108848967680'
p2437
S'not_related_or_irrelevant'
p2438
sS'451228447961272320'
p2439
S'sympathy_and_emotional_support'
p2440
sS'451229435505958912'
p2441
S'displaced_people_and_evacuations'
p2442
sS'451228763380936704'
p2443
S'sympathy_and_emotional_support'
p2444
sS'451229448088870912'
p2445
S'not_related_or_irrelevant'
p2446
sS'451229299224621056'
p2447
S'donation_needs_or_offers_or_volunteering_services'
p2448
sS'451228785325903872'
p2449
S'other_useful_information'
p2450
sS'451228993174667264'
p2451
S'donation_needs_or_offers_or_volunteering_services'
p2452
sS'451228804594561024'
p2453
S'not_related_or_irrelevant'
p2454
sS'451229118592745472'
p2455
S'not_related_or_irrelevant'
p2456
sS'451228885544599552'
p2457
S'injured_or_dead_people'
p2458
sS'451228875931271168'
p2459
S'other_useful_information'
p2460
sS'451229063907401729'
p2461
S'injured_or_dead_people'
p2462
sS'451229382753796096'
p2463
S'injured_or_dead_people'
p2464
sS'451228533088468992'
p2465
S'donation_needs_or_offers_or_volunteering_services'
p2466
sS'451229091195150336'
p2467
S'injured_or_dead_people'
p2468
sS'451229188323016704'
p2469
S'sympathy_and_emotional_support'
p2470
sS'451229327909081088'
p2471
S'injured_or_dead_people'
p2472
sS'451229372163575808'
p2473
S'other_useful_information'
p2474
sS'451228571684462592'
p2475
S'sympathy_and_emotional_support'
p2476
sS'451228422950232064'
p2477
S'not_related_or_irrelevant'
p2478
sS'451228674189053952'
p2479
S'infrastructure_and_utilities_damage'
p2480
sS'451228505775144960'
p2481
S'donation_needs_or_offers_or_volunteering_services'
p2482
sS'451228798193647616'
p2483
S'sympathy_and_emotional_support'
p2484
sS'451229387216928768'
p2485
S'other_useful_information'
p2486
sS'451228451949641729'
p2487
S'donation_needs_or_offers_or_volunteering_services'
p2488
sS'451229169947770880'
p2489
S'donation_needs_or_offers_or_volunteering_services'
p2490
sS'451229374507786240'
p2491
S'infrastructure_and_utilities_damage'
p2492
sS'451228738701635584'
p2493
S'injured_or_dead_people'
p2494
sS'451229064897245184'
p2495
S'not_related_or_irrelevant'
p2496
sS'451228780779282432'
p2497
S'caution_and_advice'
p2498
sS'451228931061215232'
p2499
S'sympathy_and_emotional_support'
p2500
sS'451229130999099392'
p2501
S'injured_or_dead_people'
p2502
sS'451229229490126848'
p2503
S'donation_needs_or_offers_or_volunteering_services'
p2504
sS'451228534221316096'
p2505
S'donation_needs_or_offers_or_volunteering_services'
p2506
sS'451228821115527168'
p2507
S'donation_needs_or_offers_or_volunteering_services'
p2508
sS'451228814354292736'
p2509
S'sympathy_and_emotional_support'
p2510
sS'451229410994446336'
p2511
S'injured_or_dead_people'
p2512
sS'451228501685723136'
p2513
S'donation_needs_or_offers_or_volunteering_services'
p2514
sS'451229330203766784'
p2515
S'displaced_people_and_evacuations'
p2516
sS'451228538050732032'
p2517
S'not_related_or_irrelevant'
p2518
sS'451228429367910401'
p2519
S'injured_or_dead_people'
p2520
sS'451228893845159936'
p2521
S'other_useful_information'
p2522
sS'451229123004751872'
p2523
S'sympathy_and_emotional_support'
p2524
sS'451229330996092929'
p2525
S'sympathy_and_emotional_support'
p2526
sS'451228604589158400'
p2527
S'sympathy_and_emotional_support'
p2528
sS'451229205519675392'
p2529
S'sympathy_and_emotional_support'
p2530
sS'451229231419518976'
p2531
S'donation_needs_or_offers_or_volunteering_services'
p2532
sS'451228470626897920'
p2533
S'sympathy_and_emotional_support'
p2534
sS'451229058500952064'
p2535
S'donation_needs_or_offers_or_volunteering_services'
p2536
sS'451228794443939840'
p2537
S'injured_or_dead_people'
p2538
sS'451228625371557888'
p2539
S'other_useful_information'
p2540
sS'451229156429139968'
p2541
S'donation_needs_or_offers_or_volunteering_services'
p2542
sS'451228598973001728'
p2543
S'donation_needs_or_offers_or_volunteering_services'
p2544
sS'451228929861615616'
p2545
S'not_related_or_irrelevant'
p2546
sS'451229331952394241'
p2547
S'not_related_or_irrelevant'
p2548
sS'451228451027316736'
p2549
S'injured_or_dead_people'
p2550
sS'451228524536692737'
p2551
S'donation_needs_or_offers_or_volunteering_services'
p2552
sS'451229237836394497'
p2553
S'donation_needs_or_offers_or_volunteering_services'
p2554
sS'451229309487685632'
p2555
S'injured_or_dead_people'
p2556
sS'451228728509480960'
p2557
S'missing_trapped_or_found_people'
p2558
sS'451229446302105600'
p2559
S'sympathy_and_emotional_support'
p2560
sS'451229119590965250'
p2561
S'injured_or_dead_people'
p2562
sS'451229316102119424'
p2563
S'caution_and_advice'
p2564
sS'451228492546715648'
p2565
S'injured_or_dead_people'
p2566
sS'451229058320580608'
p2567
S'injured_or_dead_people'
p2568
sS'451228479837597697'
p2569
S'injured_or_dead_people'
p2570
sS'451229209885949952'
p2571
S'not_related_or_irrelevant'
p2572
sS'451228597488189441'
p2573
S'injured_or_dead_people'
p2574
sS'451228526515990528'
p2575
S'not_related_or_irrelevant'
p2576
sS'451228729180561408'
p2577
S'not_related_or_irrelevant'
p2578
sS'451228565665640448'
p2579
S'donation_needs_or_offers_or_volunteering_services'
p2580
sS'451229049495752704'
p2581
S'other_useful_information'
p2582
sS'451229330644152320'
p2583
S'injured_or_dead_people'
p2584
sS'451228611623002112'
p2585
S'not_related_or_irrelevant'
p2586
sS'451228546250596352'
p2587
S'injured_or_dead_people'
p2588
sS'451228632049283072'
p2589
S'injured_or_dead_people'
p2590
sS'451229292953759746'
p2591
S'not_related_or_irrelevant'
p2592
sS'451228611488776192'
p2593
S'caution_and_advice'
p2594
sS'451228473747841024'
p2595
S'donation_needs_or_offers_or_volunteering_services'
p2596
sS'451229417218793472'
p2597
S'injured_or_dead_people'
p2598
sS'451228932084629504'
p2599
S'sympathy_and_emotional_support'
p2600
sS'451228448590016512'
p2601
S'injured_or_dead_people'
p2602
sS'451228532489093120'
p2603
S'donation_needs_or_offers_or_volunteering_services'
p2604
sS'451229117191823360'
p2605
S'sympathy_and_emotional_support'
p2606
sS'451228491779145729'
p2607
S'donation_needs_or_offers_or_volunteering_services'
p2608
sS'451228905169383424'
p2609
S'not_related_or_irrelevant'
p2610
sS'451228591670706176'
p2611
S'donation_needs_or_offers_or_volunteering_services'
p2612
sS'451228513820221440'
p2613
S'donation_needs_or_offers_or_volunteering_services'
p2614
sS'451228947959652353'
p2615
S'injured_or_dead_people'
p2616
sS'451228915059937280'
p2617
S'displaced_people_and_evacuations'
p2618
sS'451229260574101504'
p2619
S'injured_or_dead_people'
p2620
sS'451228536301318144'
p2621
S'donation_needs_or_offers_or_volunteering_services'
p2622
sS'451229305138610176'
p2623
S'donation_needs_or_offers_or_volunteering_services'
p2624
sS'451229409672839169'
p2625
S'other_useful_information'
p2626
sS'451228492257320960'
p2627
S'other_useful_information'
p2628
sS'451229304316526592'
p2629
S'donation_needs_or_offers_or_volunteering_services'
p2630
sS'451228441413955584'
p2631
S'injured_or_dead_people'
p2632
sS'451228703670816768'
p2633
S'injured_or_dead_people'
p2634
sS'451229025197776897'
p2635
S'missing_trapped_or_found_people'
p2636
sS'451228500394254336'
p2637
S'injured_or_dead_people'
p2638
sS'451228512976789504'
p2639
S'not_related_or_irrelevant'
p2640
sS'451228740291289088'
p2641
S'donation_needs_or_offers_or_volunteering_services'
p2642
sS'451228423646478336'
p2643
S'not_related_or_irrelevant'
p2644
sS'451228642920497153'
p2645
S'donation_needs_or_offers_or_volunteering_services'
p2646
sS'451229331373977600'
p2647
S'donation_needs_or_offers_or_volunteering_services'
p2648
sS'451229087441633280'
p2649
S'injured_or_dead_people'
p2650
sS'451228887222325248'
p2651
S'donation_needs_or_offers_or_volunteering_services'
p2652
sS'451228560356032512'
p2653
S'injured_or_dead_people'
p2654
sS'451228525857484800'
p2655
S'donation_needs_or_offers_or_volunteering_services'
p2656
sS'451228796486578176'
p2657
S'displaced_people_and_evacuations'
p2658
sS'451228484145541120'
p2659
S'injured_or_dead_people'
p2660
sS'451229193993740288'
p2661
S'not_related_or_irrelevant'
p2662
sS'451228477333979136'
p2663
S'injured_or_dead_people'
p2664
sS'451228746960236545'
p2665
S'donation_needs_or_offers_or_volunteering_services'
p2666
sS'451229209612939264'
p2667
S'injured_or_dead_people'
p2668
sS'451229441830961152'
p2669
S'other_useful_information'
p2670
sS'451229207222579200'
p2671
S'donation_needs_or_offers_or_volunteering_services'
p2672
sS'451229005543260161'
p2673
S'displaced_people_and_evacuations'
p2674
sS'451228838874611713'
p2675
S'not_related_or_irrelevant'
p2676
sS'451229281059102720'
p2677
S'injured_or_dead_people'
p2678
sS'451229022874501120'
p2679
S'donation_needs_or_offers_or_volunteering_services'
p2680
sS'451228797090541568'
p2681
S'donation_needs_or_offers_or_volunteering_services'
p2682
sS'451228437722980352'
p2683
S'injured_or_dead_people'
p2684
sS'451229337291730944'
p2685
S'other_useful_information'
p2686
sS'451229242991603712'
p2687
S'not_related_or_irrelevant'
p2688
sS'451229351519207424'
p2689
S'injured_or_dead_people'
p2690
sS'451229006223118336'
p2691
S'sympathy_and_emotional_support'
p2692
sS'451228782674722816'
p2693
S'injured_or_dead_people'
p2694
sS'451228763695505408'
p2695
S'missing_trapped_or_found_people'
p2696
sS'451229443508690944'
p2697
S'donation_needs_or_offers_or_volunteering_services'
p2698
sS'451229084064825344'
p2699
S'sympathy_and_emotional_support'
p2700
sS'451228817776836608'
p2701
S'infrastructure_and_utilities_damage'
p2702
sS'451229098468061185'
p2703
S'injured_or_dead_people'
p2704
sS'451229209122181120'
p2705
S'injured_or_dead_people'
p2706
sS'451228746176278528'
p2707
S'not_related_or_irrelevant'
p2708
sS'451228506807353344'
p2709
S'donation_needs_or_offers_or_volunteering_services'
p2710
sS'451229348524482560'
p2711
S'not_related_or_irrelevant'
p2712
sS'451229140583477248'
p2713
S'injured_or_dead_people'
p2714
sS'451229047901941760'
p2715
S'injured_or_dead_people'
p2716
sS'451228433163771904'
p2717
S'donation_needs_or_offers_or_volunteering_services'
p2718
sS'451229260309860352'
p2719
S'donation_needs_or_offers_or_volunteering_services'
p2720
sS'451229222473039872'
p2721
S'injured_or_dead_people'
p2722
sS'451228970449506304'
p2723
S'missing_trapped_or_found_people'
p2724
sS'451228678455062528'
p2725
S'donation_needs_or_offers_or_volunteering_services'
p2726
sS'451228483101138944'
p2727
S'displaced_people_and_evacuations'
p2728
sS'451228745156685824'
p2729
S'donation_needs_or_offers_or_volunteering_services'
p2730
sS'451229254504955904'
p2731
S'donation_needs_or_offers_or_volunteering_services'
p2732
sS'451228443586596864'
p2733
S'injured_or_dead_people'
p2734
sS'451228707105955840'
p2735
S'other_useful_information'
p2736
sS'451229151408959488'
p2737
S'donation_needs_or_offers_or_volunteering_services'
p2738
sS'451228698751299584'
p2739
S'missing_trapped_or_found_people'
p2740
sS'451228579829792768'
p2741
S'injured_or_dead_people'
p2742
sS'451229265728901120'
p2743
S'donation_needs_or_offers_or_volunteering_services'
p2744
sS'451229063165001728'
p2745
S'injured_or_dead_people'
p2746
sS'451229353339518976'
p2747
S'donation_needs_or_offers_or_volunteering_services'
p2748
sS'451229115136221184'
p2749
S'sympathy_and_emotional_support'
p2750
sS'451228595814285312'
p2751
S'sympathy_and_emotional_support'
p2752
sS'451229271689027584'
p2753
S'other_useful_information'
p2754
sS'451228537958436864'
p2755
S'injured_or_dead_people'
p2756
sS'451229435362951168'
p2757
S'injured_or_dead_people'
p2758
sS'451229073935593472'
p2759
S'injured_or_dead_people'
p2760
sS'451229037948858368'
p2761
S'donation_needs_or_offers_or_volunteering_services'
p2762
sS'451229174544338945'
p2763
S'injured_or_dead_people'
p2764
sS'451229433878564864'
p2765
S'sympathy_and_emotional_support'
p2766
sS'451228598977175552'
p2767
S'donation_needs_or_offers_or_volunteering_services'
p2768
sS'451229367956680704'
p2769
S'donation_needs_or_offers_or_volunteering_services'
p2770
sS'451229412285878272'
p2771
S'injured_or_dead_people'
p2772
sS'451228708913688576'
p2773
S'donation_needs_or_offers_or_volunteering_services'
p2774
sS'451229206547296256'
p2775
S'donation_needs_or_offers_or_volunteering_services'
p2776
sS'451228654312235008'
p2777
S'injured_or_dead_people'
p2778
sS'451229376709795840'
p2779
S'not_related_or_irrelevant'
p2780
sS'451228844604030976'
p2781
S'injured_or_dead_people'
p2782
sS'451228731806191616'
p2783
S'injured_or_dead_people'
p2784
sS'451228928288358400'
p2785
S'donation_needs_or_offers_or_volunteering_services'
p2786
sS'451228457452969984'
p2787
S'donation_needs_or_offers_or_volunteering_services'
p2788
sS'451229057108422656'
p2789
S'injured_or_dead_people'
p2790
sS'451228475257417729'
p2791
S'injured_or_dead_people'
p2792
sS'451229443772940288'
p2793
S'injured_or_dead_people'
p2794
sS'451229139140608000'
p2795
S'injured_or_dead_people'
p2796
sS'451228812324253696'
p2797
S'injured_or_dead_people'
p2798
sS'451228674457894912'
p2799
S'injured_or_dead_people'
p2800
sS'451228512264138752'
p2801
S'donation_needs_or_offers_or_volunteering_services'
p2802
sS'451228733803098112'
p2803
S'sympathy_and_emotional_support'
p2804
sS'451229458285223936'
p2805
S'sympathy_and_emotional_support'
p2806
sS'451228813196681216'
p2807
S'donation_needs_or_offers_or_volunteering_services'
p2808
sS'451229135936192512'
p2809
S'injured_or_dead_people'
p2810
sS'451228656325890048'
p2811
S'injured_or_dead_people'
p2812
sS'451228842259382272'
p2813
S'injured_or_dead_people'
p2814
sS'451229346078806016'
p2815
S'injured_or_dead_people'
p2816
sS'451228796713443328'
p2817
S'missing_trapped_or_found_people'
p2818
sS'451228507952013312'
p2819
S'injured_or_dead_people'
p2820
sS'451229220036161538'
p2821
S'donation_needs_or_offers_or_volunteering_services'
p2822
sS'451228549857693696'
p2823
S'sympathy_and_emotional_support'
p2824
sS'451229390429769728'
p2825
S'injured_or_dead_people'
p2826
sS'451228600382259200'
p2827
S'donation_needs_or_offers_or_volunteering_services'
p2828
sS'451229226843516928'
p2829
S'missing_trapped_or_found_people'
p2830
sS'451228484040273920'
p2831
S'injured_or_dead_people'
p2832
sS'451229107507179520'
p2833
S'donation_needs_or_offers_or_volunteering_services'
p2834
sS'451229227858558976'
p2835
S'donation_needs_or_offers_or_volunteering_services'
p2836
sS'451228767243882496'
p2837
S'donation_needs_or_offers_or_volunteering_services'
p2838
sS'451228498498445313'
p2839
S'injured_or_dead_people'
p2840
sS'451228615066124288'
p2841
S'injured_or_dead_people'
p2842
sS'451228761468329984'
p2843
S'donation_needs_or_offers_or_volunteering_services'
p2844
sS'451228874706542592'
p2845
S'other_useful_information'
p2846
sS'451228420928593922'
p2847
S'donation_needs_or_offers_or_volunteering_services'
p2848
sS'451228825586634753'
p2849
S'injured_or_dead_people'
p2850
sS'451229231042031616'
p2851
S'donation_needs_or_offers_or_volunteering_services'
p2852
sS'451228965865533440'
p2853
S'injured_or_dead_people'
p2854
sS'451228606224531456'
p2855
S'donation_needs_or_offers_or_volunteering_services'
p2856
sS'451229306455207937'
p2857
S'not_related_or_irrelevant'
p2858
sS'451229095074873344'
p2859
S'not_related_or_irrelevant'
p2860
sS'451228864698908672'
p2861
S'caution_and_advice'
p2862
sS'451228447285583872'
p2863
S'not_related_or_irrelevant'
p2864
sS'451229254567882752'
p2865
S'not_related_or_irrelevant'
p2866
sS'451228806158614528'
p2867
S'injured_or_dead_people'
p2868
sS'451228786030178304'
p2869
S'donation_needs_or_offers_or_volunteering_services'
p2870
sS'451229272129024000'
p2871
S'injured_or_dead_people'
p2872
sS'451228999784869888'
p2873
S'not_related_or_irrelevant'
p2874
sS'451228559554519040'
p2875
S'injured_or_dead_people'
p2876
sS'451228625166028800'
p2877
S'not_related_or_irrelevant'
p2878
sS'451229063307591680'
p2879
S'injured_or_dead_people'
p2880
sS'451228569448882177'
p2881
S'donation_needs_or_offers_or_volunteering_services'
p2882
sS'451229347085815808'
p2883
S'injured_or_dead_people'
p2884
sS'451229151866155008'
p2885
S'injured_or_dead_people'
p2886
sS'451228957778518016'
p2887
S'missing_trapped_or_found_people'
p2888
sS'451228774256746496'
p2889
S'sympathy_and_emotional_support'
p2890
sS'451229370158690304'
p2891
S'caution_and_advice'
p2892
sS'451229206001618944'
p2893
S'injured_or_dead_people'
p2894
sS'451229150523981824'
p2895
S'injured_or_dead_people'
p2896
sS'451228619742801920'
p2897
S'not_related_or_irrelevant'
p2898
sS'451228520849489920'
p2899
S'other_useful_information'
p2900
sS'451229314927693824'
p2901
S'donation_needs_or_offers_or_volunteering_services'
p2902
sS'451229376634691584'
p2903
S'infrastructure_and_utilities_damage'
p2904
sS'451229004700205056'
p2905
S'donation_needs_or_offers_or_volunteering_services'
p2906
sS'451228655365009408'
p2907
S'donation_needs_or_offers_or_volunteering_services'
p2908
sS'451228419238264832'
p2909
S'injured_or_dead_people'
p2910
sS'451229328253394944'
p2911
S'donation_needs_or_offers_or_volunteering_services'
p2912
sS'451229365406564352'
p2913
S'injured_or_dead_people'
p2914
sS'451228772285820928'
p2915
S'sympathy_and_emotional_support'
p2916
sS'451229395186118656'
p2917
S'injured_or_dead_people'
p2918
sS'451228716165632000'
p2919
S'injured_or_dead_people'
p2920
sS'451228453799346176'
p2921
S'not_related_or_irrelevant'
p2922
sS'451228741201842176'
p2923
S'injured_or_dead_people'
p2924
sS'451229300596170752'
p2925
S'injured_or_dead_people'
p2926
sS'451228982155808768'
p2927
S'injured_or_dead_people'
p2928
sS'451228689536409600'
p2929
S'injured_or_dead_people'
p2930
sS'451228913034080256'
p2931
S'missing_trapped_or_found_people'
p2932
sS'451229175547183104'
p2933
S'caution_and_advice'
p2934
sS'451228824152199168'
p2935
S'donation_needs_or_offers_or_volunteering_services'
p2936
sS'451229088405925888'
p2937
S'missing_trapped_or_found_people'
p2938
sS'451228433717014528'
p2939
S'injured_or_dead_people'
p2940
sS'451229375048859648'
p2941
S'caution_and_advice'
p2942
sS'451229319638319104'
p2943
S'injured_or_dead_people'
p2944
sS'451228873301438464'
p2945
S'donation_needs_or_offers_or_volunteering_services'
p2946
sS'451229442841772032'
p2947
S'injured_or_dead_people'
p2948
sS'451228567548878848'
p2949
S'other_useful_information'
p2950
sS'451228680803876864'
p2951
S'caution_and_advice'
p2952
sS'451228990343102464'
p2953
S'injured_or_dead_people'
p2954
sS'451229036392349697'
p2955
S'not_related_or_irrelevant'
p2956
sS'451229369990541312'
p2957
S'donation_needs_or_offers_or_volunteering_services'
p2958
sS'451229065505406976'
p2959
S'sympathy_and_emotional_support'
p2960
sS'451229242375024640'
p2961
S'donation_needs_or_offers_or_volunteering_services'
p2962
sS'451228703737913345'
p2963
S'injured_or_dead_people'
p2964
sS'451228713502257152'
p2965
S'injured_or_dead_people'
p2966
sS'451229362869010432'
p2967
S'sympathy_and_emotional_support'
p2968
sS'451229103539367936'
p2969
S'injured_or_dead_people'
p2970
sS'451228537169907712'
p2971
S'injured_or_dead_people'
p2972
sS'451229111436840960'
p2973
S'donation_needs_or_offers_or_volunteering_services'
p2974
sS'451229331293892608'
p2975
S'donation_needs_or_offers_or_volunteering_services'
p2976
sS'451229056428539905'
p2977
S'donation_needs_or_offers_or_volunteering_services'
p2978
sS'451229344149819392'
p2979
S'donation_needs_or_offers_or_volunteering_services'
p2980
sS'451229326378557440'
p2981
S'donation_needs_or_offers_or_volunteering_services'
p2982
sS'451228976066093056'
p2983
S'donation_needs_or_offers_or_volunteering_services'
p2984
sS'451228818746114048'
p2985
S'donation_needs_or_offers_or_volunteering_services'
p2986
sS'451229028771319808'
p2987
S'not_related_or_irrelevant'
p2988
sS'451229452220235776'
p2989
S'injured_or_dead_people'
p2990
sS'451228447101448192'
p2991
S'donation_needs_or_offers_or_volunteering_services'
p2992
sS'451228982730838016'
p2993
S'injured_or_dead_people'
p2994
sS'451228876157362176'
p2995
S'donation_needs_or_offers_or_volunteering_services'
p2996
sS'451229059838910464'
p2997
S'injured_or_dead_people'
p2998
sS'451228792913424384'
p2999
S'displaced_people_and_evacuations'
p3000
sS'451228949482602496'
p3001
S'injured_or_dead_people'
p3002
sS'451228965357641728'
p3003
S'injured_or_dead_people'
p3004
sS'451229108710944768'
p3005
S'injured_or_dead_people'
p3006
sS'451228455431315456'
p3007
S'injured_or_dead_people'
p3008
sS'451228620527513600'
p3009
S'sympathy_and_emotional_support'
p3010
sS'451229117460271104'
p3011
S'not_related_or_irrelevant'
p3012
sS'451228458492784641'
p3013
S'other_useful_information'
p3014
sS'451229427557347328'
p3015
S'not_related_or_irrelevant'
p3016
sS'451229355801604096'
p3017
S'donation_needs_or_offers_or_volunteering_services'
p3018
sS'451228936316653568'
p3019
S'injured_or_dead_people'
p3020
sS'451228680157552640'
p3021
S'injured_or_dead_people'
p3022
sS'451228971569774592'
p3023
S'injured_or_dead_people'
p3024
sS'451229228575371265'
p3025
S'not_related_or_irrelevant'
p3026
sS'451229451180060672'
p3027
S'injured_or_dead_people'
p3028
sS'451229452026904576'
p3029
S'donation_needs_or_offers_or_volunteering_services'
p3030
sS'451229415167754240'
p3031
S'donation_needs_or_offers_or_volunteering_services'
p3032
sS'451228723560611840'
p3033
S'donation_needs_or_offers_or_volunteering_services'
p3034
sS'451228515695091713'
p3035
S'donation_needs_or_offers_or_volunteering_services'
p3036
sS'451228563174608896'
p3037
S'injured_or_dead_people'
p3038
sS'451228518454927360'
p3039
S'injured_or_dead_people'
p3040
sS'451229242001735680'
p3041
S'donation_needs_or_offers_or_volunteering_services'
p3042
sS'451229314269605888'
p3043
S'other_useful_information'
p3044
sS'451228597328420864'
p3045
S'injured_or_dead_people'
p3046
sS'451229379444891648'
p3047
S'not_related_or_irrelevant'
p3048
sS'451229260787613696'
p3049
S'donation_needs_or_offers_or_volunteering_services'
p3050
sS'451228823745744897'
p3051
S'caution_and_advice'
p3052
sS'451228903773069312'
p3053
S'injured_or_dead_people'
p3054
sS'451228526575091712'
p3055
S'not_related_or_irrelevant'
p3056
sS'451228595873402880'
p3057
S'donation_needs_or_offers_or_volunteering_services'
p3058
sS'451229433438162944'
p3059
S'donation_needs_or_offers_or_volunteering_services'
p3060
sS'451228618119987200'
p3061
S'donation_needs_or_offers_or_volunteering_services'
p3062
sS'451228468303249408'
p3063
S'not_related_or_irrelevant'
p3064
sS'451228775884537856'
p3065
S'not_related_or_irrelevant'
p3066
sS'451228606023233536'
p3067
S'other_useful_information'
p3068
sS'451228923415003136'
p3069
S'donation_needs_or_offers_or_volunteering_services'
p3070
sS'451229129904779266'
p3071
S'donation_needs_or_offers_or_volunteering_services'
p3072
sS'451228419049914368'
p3073
S'injured_or_dead_people'
p3074
sS'451228881216110592'
p3075
S'donation_needs_or_offers_or_volunteering_services'
p3076
sS'451229206345564160'
p3077
S'injured_or_dead_people'
p3078
sS'451228473898827776'
p3079
S'other_useful_information'
p3080
sS'451228757513498624'
p3081
S'donation_needs_or_offers_or_volunteering_services'
p3082
sS'451229306782355456'
p3083
S'injured_or_dead_people'
p3084
sS'451229128621309952'
p3085
S'injured_or_dead_people'
p3086
sS'451228714030731264'
p3087
S'donation_needs_or_offers_or_volunteering_services'
p3088
sS'451229138884382721'
p3089
S'displaced_people_and_evacuations'
p3090
sS'451228848844443648'
p3091
S'donation_needs_or_offers_or_volunteering_services'
p3092
sS'451228479367831552'
p3093
S'missing_trapped_or_found_people'
p3094
sS'451229426198384640'
p3095
S'injured_or_dead_people'
p3096
sS'451228770624880640'
p3097
S'injured_or_dead_people'
p3098
sS'451228559949168640'
p3099
S'donation_needs_or_offers_or_volunteering_services'
p3100
sS'451229282489348096'
p3101
S'donation_needs_or_offers_or_volunteering_services'
p3102
sS'451229384020856832'
p3103
S'donation_needs_or_offers_or_volunteering_services'
p3104
sS'451228587598049281'
p3105
S'injured_or_dead_people'
p3106
sS'451228997859676160'
p3107
S'donation_needs_or_offers_or_volunteering_services'
p3108
sS'451228514641915904'
p3109
S'donation_needs_or_offers_or_volunteering_services'
p3110
sS'451229034353917952'
p3111
S'donation_needs_or_offers_or_volunteering_services'
p3112
sS'451229395517468672'
p3113
S'caution_and_advice'
p3114
sS'451228877709250561'
p3115
S'donation_needs_or_offers_or_volunteering_services'
p3116
sS'451229333558800385'
p3117
S'donation_needs_or_offers_or_volunteering_services'
p3118
sS'451229049327988736'
p3119
S'sympathy_and_emotional_support'
p3120
sS'451228906151235584'
p3121
S'donation_needs_or_offers_or_volunteering_services'
p3122
sS'451228621361790976'
p3123
S'donation_needs_or_offers_or_volunteering_services'
p3124
sS'451228838937128960'
p3125
S'sympathy_and_emotional_support'
p3126
sS'451228932948643840'
p3127
S'caution_and_advice'
p3128
sS'451228433755176960'
p3129
S'donation_needs_or_offers_or_volunteering_services'
p3130
sS'451228997972922368'
p3131
S'displaced_people_and_evacuations'
p3132
sS'451228946697170944'
p3133
S'donation_needs_or_offers_or_volunteering_services'
p3134
sS'451228512221818880'
p3135
S'missing_trapped_or_found_people'
p3136
sS'451228750647410688'
p3137
S'injured_or_dead_people'
p3138
sS'451229074350813184'
p3139
S'donation_needs_or_offers_or_volunteering_services'
p3140
sS'451229022228611072'
p3141
S'donation_needs_or_offers_or_volunteering_services'
p3142
sS'451229113349844993'
p3143
S'donation_needs_or_offers_or_volunteering_services'
p3144
sS'451228481406664704'
p3145
S'donation_needs_or_offers_or_volunteering_services'
p3146
sS'451229218018689024'
p3147
S'injured_or_dead_people'
p3148
sS'451228433285005312'
p3149
S'donation_needs_or_offers_or_volunteering_services'
p3150
sS'451228928183500800'
p3151
S'injured_or_dead_people'
p3152
sS'451228706024218624'
p3153
S'other_useful_information'
p3154
sS'451228455188066304'
p3155
S'donation_needs_or_offers_or_volunteering_services'
p3156
sS'451228727826210816'
p3157
S'missing_trapped_or_found_people'
p3158
sS'451228458723835904'
p3159
S'not_related_or_irrelevant'
p3160
sS'451229016759209984'
p3161
S'injured_or_dead_people'
p3162
sS'451229356011315200'
p3163
S'other_useful_information'
p3164
sS'451229030680117248'
p3165
S'not_related_or_irrelevant'
p3166
sS'451228433776144384'
p3167
S'injured_or_dead_people'
p3168
sS'451229221395116033'
p3169
S'sympathy_and_emotional_support'
p3170
sS'451229301195550720'
p3171
S'donation_needs_or_offers_or_volunteering_services'
p3172
sS'451229232799432704'
p3173
S'donation_needs_or_offers_or_volunteering_services'
p3174
sS'451229071109017600'
p3175
S'donation_needs_or_offers_or_volunteering_services'
p3176
sS'451229005052936192'
p3177
S'injured_or_dead_people'
p3178
sS'451228769320456192'
p3179
S'sympathy_and_emotional_support'
p3180
sS'451228488390176768'
p3181
S'injured_or_dead_people'
p3182
sS'451229378530521088'
p3183
S'donation_needs_or_offers_or_volunteering_services'
p3184
sS'451228564440895488'
p3185
S'infrastructure_and_utilities_damage'
p3186
sS'451229366639681537'
p3187
S'donation_needs_or_offers_or_volunteering_services'
p3188
sS'451229013177290753'
p3189
S'sympathy_and_emotional_support'
p3190
sS'451229211013824512'
p3191
S'other_useful_information'
p3192
sS'451228587124097024'
p3193
S'injured_or_dead_people'
p3194
sS'451229201564459008'
p3195
S'injured_or_dead_people'
p3196
sS'451228617096572928'
p3197
S'donation_needs_or_offers_or_volunteering_services'
p3198
sS'451228949725863936'
p3199
S'injured_or_dead_people'
p3200
sS'451229225245503488'
p3201
S'injured_or_dead_people'
p3202
sS'451229099961614336'
p3203
S'other_useful_information'
p3204
sS'451228553489575936'
p3205
S'injured_or_dead_people'
p3206
sS'451228630371139584'
p3207
S'sympathy_and_emotional_support'
p3208
sS'451229333760126976'
p3209
S'injured_or_dead_people'
p3210
sS'451228967950114816'
p3211
S'other_useful_information'
p3212
sS'451228486980476929'
p3213
S'donation_needs_or_offers_or_volunteering_services'
p3214
sS'451228793089179648'
p3215
S'infrastructure_and_utilities_damage'
p3216
sS'451229405826646016'
p3217
S'sympathy_and_emotional_support'
p3218
sS'451228679784247296'
p3219
S'donation_needs_or_offers_or_volunteering_services'
p3220
sS'451229423459926016'
p3221
S'donation_needs_or_offers_or_volunteering_services'
p3222
sS'451228586356137985'
p3223
S'caution_and_advice'
p3224
sS'451229096530288641'
p3225
S'injured_or_dead_people'
p3226
sS'451228786315759616'
p3227
S'donation_needs_or_offers_or_volunteering_services'
p3228
sS'451228841944440832'
p3229
S'donation_needs_or_offers_or_volunteering_services'
p3230
sS'451229071150940160'
p3231
S'caution_and_advice'
p3232
sS'451229010261852160'
p3233
S'injured_or_dead_people'
p3234
sS'451229232359038976'
p3235
S'injured_or_dead_people'
p3236
sS'451229422213816320'
p3237
S'sympathy_and_emotional_support'
p3238
sS'451228872294404096'
p3239
S'sympathy_and_emotional_support'
p3240
sS'451229389326655488'
p3241
S'sympathy_and_emotional_support'
p3242
sS'451228906704883712'
p3243
S'injured_or_dead_people'
p3244
sS'451229046542991360'
p3245
S'injured_or_dead_people'
p3246
sS'451229240575668224'
p3247
S'injured_or_dead_people'
p3248
sS'451228998253944832'
p3249
S'sympathy_and_emotional_support'
p3250
sS'451229005963079681'
p3251
S'other_useful_information'
p3252
sS'451228433029148672'
p3253
S'donation_needs_or_offers_or_volunteering_services'
p3254
sS'451229153644535808'
p3255
S'donation_needs_or_offers_or_volunteering_services'
p3256
sS'451228604874371073'
p3257
S'not_related_or_irrelevant'
p3258
sS'451229246028267520'
p3259
S'donation_needs_or_offers_or_volunteering_services'
p3260
sS'451228547512676353'
p3261
S'injured_or_dead_people'
p3262
sS'451229298125701121'
p3263
S'donation_needs_or_offers_or_volunteering_services'
p3264
sS'451229133813465088'
p3265
S'other_useful_information'
p3266
sS'451228413291167744'
p3267
S'not_related_or_irrelevant'
p3268
sS'451229236100358144'
p3269
S'injured_or_dead_people'
p3270
sS'451228703704768512'
p3271
S'injured_or_dead_people'
p3272
sS'451229444959916032'
p3273
S'donation_needs_or_offers_or_volunteering_services'
p3274
sS'451228423130587136'
p3275
S'injured_or_dead_people'
p3276
sS'451229328177909760'
p3277
S'infrastructure_and_utilities_damage'
p3278
sS'451229003836588032'
p3279
S'sympathy_and_emotional_support'
p3280
sS'451229389976776704'
p3281
S'injured_or_dead_people'
p3282
sS'451229052548837376'
p3283
S'injured_or_dead_people'
p3284
sS'451228455967813632'
p3285
S'injured_or_dead_people'
p3286
sS'451229354174197760'
p3287
S'donation_needs_or_offers_or_volunteering_services'
p3288
sS'451229319902146560'
p3289
S'other_useful_information'
p3290
sS'451229023197073408'
p3291
S'donation_needs_or_offers_or_volunteering_services'
p3292
sS'451228685035532288'
p3293
S'donation_needs_or_offers_or_volunteering_services'
p3294
sS'451229256064839680'
p3295
S'injured_or_dead_people'
p3296
sS'451228909829627905'
p3297
S'donation_needs_or_offers_or_volunteering_services'
p3298
sS'451228420937375744'
p3299
S'injured_or_dead_people'
p3300
sS'451228807781822464'
p3301
S'donation_needs_or_offers_or_volunteering_services'
p3302
sS'451229116961157120'
p3303
S'caution_and_advice'
p3304
sS'451229265884110848'
p3305
S'donation_needs_or_offers_or_volunteering_services'
p3306
sS'451228413211459584'
p3307
S'donation_needs_or_offers_or_volunteering_services'
p3308
sS'451228936035262464'
p3309
S'injured_or_dead_people'
p3310
sS'451229234707836928'
p3311
S'donation_needs_or_offers_or_volunteering_services'
p3312
sS'451228693038252032'
p3313
S'injured_or_dead_people'
p3314
sS'451229223513235456'
p3315
S'donation_needs_or_offers_or_volunteering_services'
p3316
sS'451228858839076865'
p3317
S'donation_needs_or_offers_or_volunteering_services'
p3318
sS'451229274419507200'
p3319
S'injured_or_dead_people'
p3320
sS'451228708724948992'
p3321
S'other_useful_information'
p3322
sS'451228573131870208'
p3323
S'injured_or_dead_people'
p3324
sS'451229254219743232'
p3325
S'not_related_or_irrelevant'
p3326
sS'451229173957550081'
p3327
S'not_related_or_irrelevant'
p3328
sS'451229185609306112'
p3329
S'injured_or_dead_people'
p3330
sS'451228487375138816'
p3331
S'missing_trapped_or_found_people'
p3332
sS'451229390060683264'
p3333
S'injured_or_dead_people'
p3334
sS'451229290580160512'
p3335
S'donation_needs_or_offers_or_volunteering_services'
p3336
sS'451228811598626816'
p3337
S'injured_or_dead_people'
p3338
sS'451229314328297472'
p3339
S'sympathy_and_emotional_support'
p3340
sS'451229378232745984'
p3341
S'displaced_people_and_evacuations'
p3342
sS'451229233990598656'
p3343
S'donation_needs_or_offers_or_volunteering_services'
p3344
sS'451229023377428481'
p3345
S'donation_needs_or_offers_or_volunteering_services'
p3346
sS'451229160116334592'
p3347
S'caution_and_advice'
p3348
sS'451228672104861697'
p3349
S'donation_needs_or_offers_or_volunteering_services'
p3350
sS'451229370959421440'
p3351
S'donation_needs_or_offers_or_volunteering_services'
p3352
sS'451228515019816960'
p3353
S'injured_or_dead_people'
p3354
sS'451228910974291968'
p3355
S'sympathy_and_emotional_support'
p3356
sS'451228545277505536'
p3357
S'donation_needs_or_offers_or_volunteering_services'
p3358
sS'451229273030815745'
p3359
S'caution_and_advice'
p3360
sS'451228853780754432'
p3361
S'donation_needs_or_offers_or_volunteering_services'
p3362
sS'451229274788605952'
p3363
S'injured_or_dead_people'
p3364
sS'451228618912305152'
p3365
S'not_related_or_irrelevant'
p3366
sS'451229299542994945'
p3367
S'donation_needs_or_offers_or_volunteering_services'
p3368
sS'451228741591924736'
p3369
S'other_useful_information'
p3370
sS'451229220090699776'
p3371
S'injured_or_dead_people'
p3372
sS'451228429245886464'
p3373
S'sympathy_and_emotional_support'
p3374
sS'451228834231508992'
p3375
S'other_useful_information'
p3376
sS'451228900589592576'
p3377
S'donation_needs_or_offers_or_volunteering_services'
p3378
sS'451228992717078528'
p3379
S'caution_and_advice'
p3380
sS'451228853512335360'
p3381
S'injured_or_dead_people'
p3382
sS'451228960442302464'
p3383
S'donation_needs_or_offers_or_volunteering_services'
p3384
sS'451228916527550464'
p3385
S'sympathy_and_emotional_support'
p3386
sS'451228423294185472'
p3387
S'donation_needs_or_offers_or_volunteering_services'
p3388
sS'451229154743439360'
p3389
S'donation_needs_or_offers_or_volunteering_services'
p3390
sS'451228884646645760'
p3391
S'injured_or_dead_people'
p3392
sS'451228978045808640'
p3393
S'sympathy_and_emotional_support'
p3394
sS'451228652794302464'
p3395
S'injured_or_dead_people'
p3396
sS'451228593171881984'
p3397
S'donation_needs_or_offers_or_volunteering_services'
p3398
sS'451229314307325954'
p3399
S'not_related_or_irrelevant'
p3400
sS'451228902468636672'
p3401
S'donation_needs_or_offers_or_volunteering_services'
p3402
sS'451228606434639872'
p3403
S'injured_or_dead_people'
p3404
sS'451229160589901824'
p3405
S'other_useful_information'
p3406
sS'451229081808281600'
p3407
S'donation_needs_or_offers_or_volunteering_services'
p3408
sS'451228772852051968'
p3409
S'other_useful_information'
p3410
sS'451229028327100416'
p3411
S'donation_needs_or_offers_or_volunteering_services'
p3412
sS'451229066545201152'
p3413
S'sympathy_and_emotional_support'
p3414
sS'451228661455142912'
p3415
S'donation_needs_or_offers_or_volunteering_services'
p3416
sS'451229332313096194'
p3417
S'sympathy_and_emotional_support'
p3418
sS'451228584263176192'
p3419
S'injured_or_dead_people'
p3420
sS'451228533260816384'
p3421
S'donation_needs_or_offers_or_volunteering_services'
p3422
sS'451229176536657920'
p3423
S'injured_or_dead_people'
p3424
sS'451229156035272704'
p3425
S'injured_or_dead_people'
p3426
sS'451229342891134976'
p3427
S'other_useful_information'
p3428
sS'451229277304811520'
p3429
S'sympathy_and_emotional_support'
p3430
sS'451228678991523840'
p3431
S'other_useful_information'
p3432
sS'451228948975063040'
p3433
S'injured_or_dead_people'
p3434
sS'451229440878473216'
p3435
S'injured_or_dead_people'
p3436
sS'451229129912754176'
p3437
S'injured_or_dead_people'
p3438
sS'451229048786939904'
p3439
S'missing_trapped_or_found_people'
p3440
sS'451229394510442496'
p3441
S'other_useful_information'
p3442
sS'451229359966130178'
p3443
S'donation_needs_or_offers_or_volunteering_services'
p3444
sS'451229426756231168'
p3445
S'sympathy_and_emotional_support'
p3446
sS'451228608359845888'
p3447
S'injured_or_dead_people'
p3448
sS'451228601468203008'
p3449
S'injured_or_dead_people'
p3450
sS'451228858738819072'
p3451
S'injured_or_dead_people'
p3452
sS'451228926640414720'
p3453
S'donation_needs_or_offers_or_volunteering_services'
p3454
sS'451228982282051584'
p3455
S'injured_or_dead_people'
p3456
sS'451229104986398720'
p3457
S'not_related_or_irrelevant'
p3458
sS'451229228185698304'
p3459
S'missing_trapped_or_found_people'
p3460
sS'451229058387677184'
p3461
S'injured_or_dead_people'
p3462
sS'451228788395745280'
p3463
S'donation_needs_or_offers_or_volunteering_services'
p3464
sS'451229454350966784'
p3465
S'injured_or_dead_people'
p3466
sS'451229348801286144'
p3467
S'sympathy_and_emotional_support'
p3468
sS'451229137399971840'
p3469
S'other_useful_information'
p3470
sS'451229083972935680'
p3471
S'donation_needs_or_offers_or_volunteering_services'
p3472
sS'451228523890753536'
p3473
S'injured_or_dead_people'
p3474
sS'451228971938877440'
p3475
S'injured_or_dead_people'
p3476
sS'451229359794184192'
p3477
S'donation_needs_or_offers_or_volunteering_services'
p3478
sS'451228661530624001'
p3479
S'donation_needs_or_offers_or_volunteering_services'
p3480
sS'451229413188075520'
p3481
S'injured_or_dead_people'
p3482
sS'451228464192843776'
p3483
S'injured_or_dead_people'
p3484
sS'451228587170222080'
p3485
S'injured_or_dead_people'
p3486
sS'451228744834093056'
p3487
S'injured_or_dead_people'
p3488
sS'451228445390159872'
p3489
S'sympathy_and_emotional_support'
p3490
sS'451228425089724416'
p3491
S'injured_or_dead_people'
p3492
sS'451229181972848640'
p3493
S'injured_or_dead_people'
p3494
sS'451228951680004096'
p3495
S'donation_needs_or_offers_or_volunteering_services'
p3496
sS'451229422272905216'
p3497
S'sympathy_and_emotional_support'
p3498
sS'451229325618999296'
p3499
S'donation_needs_or_offers_or_volunteering_services'
p3500
sS'451228484363636736'
p3501
S'other_useful_information'
p3502
sS'451228767470755840'
p3503
S'injured_or_dead_people'
p3504
sS'451228822398980096'
p3505
S'injured_or_dead_people'
p3506
sS'451228583864717312'
p3507
S'donation_needs_or_offers_or_volunteering_services'
p3508
sS'451229275380023296'
p3509
S'other_useful_information'
p3510
sS'451229148925919232'
p3511
S'sympathy_and_emotional_support'
p3512
sS'451228549664350208'
p3513
S'injured_or_dead_people'
p3514
sS'451228750727090176'
p3515
S'donation_needs_or_offers_or_volunteering_services'
p3516
sS'451229067363106817'
p3517
S'donation_needs_or_offers_or_volunteering_services'
p3518
sS'451228761938464768'
p3519
S'missing_trapped_or_found_people'
p3520
sS'451228683488202752'
p3521
S'donation_needs_or_offers_or_volunteering_services'
p3522
sS'451228613535617024'
p3523
S'not_related_or_irrelevant'
p3524
sS'451229199811215360'
p3525
S'sympathy_and_emotional_support'
p3526
sS'451228477493350400'
p3527
S'donation_needs_or_offers_or_volunteering_services'
p3528
sS'451228500133806081'
p3529
S'injured_or_dead_people'
p3530
sS'451229061604716544'
p3531
S'injured_or_dead_people'
p3532
sS'451229248435789824'
p3533
S'displaced_people_and_evacuations'
p3534
sS'451228879131537408'
p3535
S'injured_or_dead_people'
p3536
sS'451228472484970496'
p3537
S'sympathy_and_emotional_support'
p3538
sS'451228453623197696'
p3539
S'injured_or_dead_people'
p3540
sS'451228522796032000'
p3541
S'donation_needs_or_offers_or_volunteering_services'
p3542
sS'451228555649634306'
p3543
S'injured_or_dead_people'
p3544
sS'451229096308383745'
p3545
S'not_related_or_irrelevant'
p3546
sS'451229318023503872'
p3547
S'injured_or_dead_people'
p3548
sS'451228424741220352'
p3549
S'sympathy_and_emotional_support'
p3550
sS'451229213526216704'
p3551
S'not_related_or_irrelevant'
p3552
sS'451228594346262528'
p3553
S'sympathy_and_emotional_support'
p3554
sS'451228658632376320'
p3555
S'donation_needs_or_offers_or_volunteering_services'
p3556
sS'451229345349001216'
p3557
S'injured_or_dead_people'
p3558
sS'451228761732947968'
p3559
S'injured_or_dead_people'
p3560
sS'451229327473254400'
p3561
S'other_useful_information'
p3562
sS'451228744750235648'
p3563
S'injured_or_dead_people'
p3564
sS'451228608355254274'
p3565
S'donation_needs_or_offers_or_volunteering_services'
p3566
sS'451228908755890176'
p3567
S'other_useful_information'
p3568
sS'451228838593572864'
p3569
S'donation_needs_or_offers_or_volunteering_services'
p3570
sS'451229362889973760'
p3571
S'injured_or_dead_people'
p3572
sS'451229339888021504'
p3573
S'donation_needs_or_offers_or_volunteering_services'
p3574
sS'451228570208468992'
p3575
S'not_related_or_irrelevant'
p3576
sS'451228559240355840'
p3577
S'injured_or_dead_people'
p3578
sS'451229335765417984'
p3579
S'sympathy_and_emotional_support'
p3580
sS'451228451190870016'
p3581
S'injured_or_dead_people'
p3582
sS'451229394845962240'
p3583
S'missing_trapped_or_found_people'
p3584
sS'451228883128315904'
p3585
S'injured_or_dead_people'
p3586
sS'451229190017536000'
p3587
S'donation_needs_or_offers_or_volunteering_services'
p3588
sS'451228823556980736'
p3589
S'sympathy_and_emotional_support'
p3590
sS'451228443678482432'
p3591
S'donation_needs_or_offers_or_volunteering_services'
p3592
sS'451228739062730753'
p3593
S'not_related_or_irrelevant'
p3594
sS'451228666639704064'
p3595
S'injured_or_dead_people'
p3596
sS'451228921707888640'
p3597
S'donation_needs_or_offers_or_volunteering_services'
p3598
sS'451229439230488576'
p3599
S'donation_needs_or_offers_or_volunteering_services'
p3600
sS'451229450936807424'
p3601
S'donation_needs_or_offers_or_volunteering_services'
p3602
sS'451228924945915904'
p3603
S'sympathy_and_emotional_support'
p3604
sS'451228844226539520'
p3605
S'caution_and_advice'
p3606
sS'451228743965876224'
p3607
S'sympathy_and_emotional_support'
p3608
sS'451228508183097344'
p3609
S'other_useful_information'
p3610
sS'451228970831212544'
p3611
S'injured_or_dead_people'
p3612
sS'451229134484557824'
p3613
S'injured_or_dead_people'
p3614
sS'451229061311127552'
p3615
S'sympathy_and_emotional_support'
p3616
sS'451229122627268608'
p3617
S'other_useful_information'
p3618
sS'451228453086695424'
p3619
S'displaced_people_and_evacuations'
p3620
sS'451229457387241472'
p3621
S'sympathy_and_emotional_support'
p3622
sS'451228471415418880'
p3623
S'injured_or_dead_people'
p3624
sS'451229054654758912'
p3625
S'injured_or_dead_people'
p3626
sS'451229308560756736'
p3627
S'not_related_or_irrelevant'
p3628
sS'451228669470846976'
p3629
S'donation_needs_or_offers_or_volunteering_services'
p3630
sS'451228827704782848'
p3631
S'donation_needs_or_offers_or_volunteering_services'
p3632
sS'451228920931573760'
p3633
S'injured_or_dead_people'
p3634
sS'451228614420213761'
p3635
S'donation_needs_or_offers_or_volunteering_services'
p3636
sS'451228933640687617'
p3637
S'not_related_or_irrelevant'
p3638
sS'451228827470290944'
p3639
S'missing_trapped_or_found_people'
p3640
sS'451228428776521728'
p3641
S'injured_or_dead_people'
p3642
sS'451229317255954432'
p3643
S'injured_or_dead_people'
p3644
sS'451228764353990658'
p3645
S'injured_or_dead_people'
p3646
sS'451228693344845824'
p3647
S'donation_needs_or_offers_or_volunteering_services'
p3648
sS'451228953919766528'
p3649
S'sympathy_and_emotional_support'
p3650
sS'451229138951499777'
p3651
S'injured_or_dead_people'
p3652
sS'451228615485575168'
p3653
S'injured_or_dead_people'
p3654
sS'451228480705802240'
p3655
S'injured_or_dead_people'
p3656
sS'451229066788483072'
p3657
S'donation_needs_or_offers_or_volunteering_services'
p3658
sS'451228499563393024'
p3659
S'donation_needs_or_offers_or_volunteering_services'
p3660
sS'451229329788116992'
p3661
S'other_useful_information'
p3662
sS'451228510099894272'
p3663
S'sympathy_and_emotional_support'
p3664
sS'451229316446445568'
p3665
S'injured_or_dead_people'
p3666
sS'451228718951067648'
p3667
S'donation_needs_or_offers_or_volunteering_services'
p3668
sS'451228484220628992'
p3669
S'donation_needs_or_offers_or_volunteering_services'
p3670
sS'451228881731989504'
p3671
S'injured_or_dead_people'
p3672
sS'451229118802452480'
p3673
S'injured_or_dead_people'
p3674
sS'451229289950625792'
p3675
S'injured_or_dead_people'
p3676
sS'451228681613369344'
p3677
S'injured_or_dead_people'
p3678
sS'451229042285375488'
p3679
S'donation_needs_or_offers_or_volunteering_services'
p3680
sS'451229207503589376'
p3681
S'donation_needs_or_offers_or_volunteering_services'
p3682
sS'451228840761622528'
p3683
S'sympathy_and_emotional_support'
p3684
sS'451228877784768512'
p3685
S'not_related_or_irrelevant'
p3686
sS'451228629243289600'
p3687
S'donation_needs_or_offers_or_volunteering_services'
p3688
sS'451228551555993600'
p3689
S'donation_needs_or_offers_or_volunteering_services'
p3690
sS'451228651363655680'
p3691
S'donation_needs_or_offers_or_volunteering_services'
p3692
sS'451228904179904512'
p3693
S'missing_trapped_or_found_people'
p3694
sS'451228565762105344'
p3695
S'donation_needs_or_offers_or_volunteering_services'
p3696
sS'451229316412870656'
p3697
S'injured_or_dead_people'
p3698
sS'451229404522610689'
p3699
S'injured_or_dead_people'
p3700
sS'451229227942445056'
p3701
S'injured_or_dead_people'
p3702
sS'451229134132215808'
p3703
S'missing_trapped_or_found_people'
p3704
sS'451228467921567744'
p3705
S'caution_and_advice'
p3706
sS'451228944633982976'
p3707
S'donation_needs_or_offers_or_volunteering_services'
p3708
sS'451229268341579777'
p3709
S'injured_or_dead_people'
p3710
sS'451229034060341248'
p3711
S'sympathy_and_emotional_support'
p3712
sS'451229347245211648'
p3713
S'sympathy_and_emotional_support'
p3714
sS'451229458557837312'
p3715
S'injured_or_dead_people'
p3716
sS'451228774789840896'
p3717
S'other_useful_information'
p3718
sS'451228577044783104'
p3719
S'donation_needs_or_offers_or_volunteering_services'
p3720
sS'451229401532092417'
p3721
S'injured_or_dead_people'
p3722
sS'451229341742280704'
p3723
S'sympathy_and_emotional_support'
p3724
sS'451229190466314240'
p3725
S'caution_and_advice'
p3726
sS'451228880083234816'
p3727
S'other_useful_information'
p3728
sS'451229095817252864'
p3729
S'injured_or_dead_people'
p3730
sS'451229213958238208'
p3731
S'donation_needs_or_offers_or_volunteering_services'
p3732
sS'451229398084354048'
p3733
S'donation_needs_or_offers_or_volunteering_services'
p3734
sS'451228964938199040'
p3735
S'donation_needs_or_offers_or_volunteering_services'
p3736
sS'451228976716185600'
p3737
S'injured_or_dead_people'
p3738
sS'451228843865825280'
p3739
S'injured_or_dead_people'
p3740
sS'451229453989863424'
p3741
S'injured_or_dead_people'
p3742
sS'451229038204715008'
p3743
S'donation_needs_or_offers_or_volunteering_services'
p3744
sS'451228666685833216'
p3745
S'sympathy_and_emotional_support'
p3746
sS'451228465585729536'
p3747
S'donation_needs_or_offers_or_volunteering_services'
p3748
sS'451228575145156608'
p3749
S'other_useful_information'
p3750
sS'451229134854049792'
p3751
S'other_useful_information'
p3752
sS'451228734792552448'
p3753
S'donation_needs_or_offers_or_volunteering_services'
p3754
sS'451228594128568321'
p3755
S'donation_needs_or_offers_or_volunteering_services'
p3756
sS'451229190453751808'
p3757
S'not_related_or_irrelevant'
p3758
sS'451228524645728256'
p3759
S'donation_needs_or_offers_or_volunteering_services'
p3760
sS'451229208292122624'
p3761
S'infrastructure_and_utilities_damage'
p3762
sS'451228937562370048'
p3763
S'donation_needs_or_offers_or_volunteering_services'
p3764
sS'451228996089692160'
p3765
S'other_useful_information'
p3766
sS'451229124896763904'
p3767
S'not_related_or_irrelevant'
p3768
sS'451228691465768960'
p3769
S'injured_or_dead_people'
p3770
sS'451228664932626432'
p3771
S'sympathy_and_emotional_support'
p3772
sS'451229045972541440'
p3773
S'injured_or_dead_people'
p3774
sS'451228999545798656'
p3775
S'injured_or_dead_people'
p3776
sS'451229446930837504'
p3777
S'donation_needs_or_offers_or_volunteering_services'
p3778
sS'451229429512278016'
p3779
S'donation_needs_or_offers_or_volunteering_services'
p3780
sS'451229344661528577'
p3781
S'injured_or_dead_people'
p3782
sS'451229337136934912'
p3783
S'donation_needs_or_offers_or_volunteering_services'
p3784
sS'451228908147335168'
p3785
S'donation_needs_or_offers_or_volunteering_services'
p3786
sS'451228468869861376'
p3787
S'injured_or_dead_people'
p3788
sS'451229080223232000'
p3789
S'injured_or_dead_people'
p3790
sS'451229439007784960'
p3791
S'injured_or_dead_people'
p3792
sS'451229031565103104'
p3793
S'sympathy_and_emotional_support'
p3794
sS'451229053237075968'
p3795
S'donation_needs_or_offers_or_volunteering_services'
p3796
sS'451228541276139520'
p3797
S'donation_needs_or_offers_or_volunteering_services'
p3798
sS'451229281100632064'
p3799
S'donation_needs_or_offers_or_volunteering_services'
p3800
sS'451229336289697792'
p3801
S'infrastructure_and_utilities_damage'
p3802
sS'451229241037058048'
p3803
S'donation_needs_or_offers_or_volunteering_services'
p3804
sS'451228425949569024'
p3805
S'caution_and_advice'
p3806
sS'451228810202349568'
p3807
S'sympathy_and_emotional_support'
p3808
sS'451228751397793792'
p3809
S'donation_needs_or_offers_or_volunteering_services'
p3810
sS'451228953580019712'
p3811
S'donation_needs_or_offers_or_volunteering_services'
p3812
sS'451229064112902144'
p3813
S'injured_or_dead_people'
p3814
sS'451228857627320320'
p3815
S'not_related_or_irrelevant'
p3816
sS'451228490525061121'
p3817
S'donation_needs_or_offers_or_volunteering_services'
p3818
sS'451229291221880833'
p3819
S'injured_or_dead_people'
p3820
sS'451228556958658560'
p3821
S'donation_needs_or_offers_or_volunteering_services'
p3822
sS'451229043627921408'
p3823
S'donation_needs_or_offers_or_volunteering_services'
p3824
sS'451229197642772481'
p3825
S'donation_needs_or_offers_or_volunteering_services'
p3826
sS'451228897141465088'
p3827
S'donation_needs_or_offers_or_volunteering_services'
p3828
sS'451228691415437312'
p3829
S'sympathy_and_emotional_support'
p3830
sS'451229113156902912'
p3831
S'not_related_or_irrelevant'
p3832
sS'451229043229089792'
p3833
S'donation_needs_or_offers_or_volunteering_services'
p3834
sS'451229448520482816'
p3835
S'donation_needs_or_offers_or_volunteering_services'
p3836
sS'451229430955114496'
p3837
S'sympathy_and_emotional_support'
p3838
sS'451229231872090113'
p3839
S'other_useful_information'
p3840
sS'451229118194266112'
p3841
S'sympathy_and_emotional_support'
p3842
sS'451229449531301888'
p3843
S'injured_or_dead_people'
p3844
sS'451228413576364032'
p3845
S'other_useful_information'
p3846
sS'451229306019004416'
p3847
S'donation_needs_or_offers_or_volunteering_services'
p3848
sS'451228699749150721'
p3849
S'sympathy_and_emotional_support'
p3850
sS'451229030822322176'
p3851
S'donation_needs_or_offers_or_volunteering_services'
p3852
sS'451228463840501760'
p3853
S'donation_needs_or_offers_or_volunteering_services'
p3854
sS'451229065551552512'
p3855
S'donation_needs_or_offers_or_volunteering_services'
p3856
sS'451229263925370880'
p3857
S'infrastructure_and_utilities_damage'
p3858
sS'451229438999416832'
p3859
S'donation_needs_or_offers_or_volunteering_services'
p3860
sS'451229315577835520'
p3861
S'not_related_or_irrelevant'
p3862
sS'451228575421587456'
p3863
S'donation_needs_or_offers_or_volunteering_services'
p3864
sS'451229231868301312'
p3865
S'not_related_or_irrelevant'
p3866
sS'451228766870982656'
p3867
S'not_related_or_irrelevant'
p3868
sS'451228825121464320'
p3869
S'sympathy_and_emotional_support'
p3870
sS'451229257327316992'
p3871
S'not_related_or_irrelevant'
p3872
sS'451229372847251456'
p3873
S'other_useful_information'
p3874
sS'451229013932249088'
p3875
S'injured_or_dead_people'
p3876
sS'451229087650951168'
p3877
S'injured_or_dead_people'
p3878
sS'451229276088459264'
p3879
S'donation_needs_or_offers_or_volunteering_services'
p3880
sS'451228857354309632'
p3881
S'donation_needs_or_offers_or_volunteering_services'
p3882
sS'451229131783426048'
p3883
S'injured_or_dead_people'
p3884
sS'451229149525716992'
p3885
S'displaced_people_and_evacuations'
p3886
sS'451228932713775104'
p3887
S'donation_needs_or_offers_or_volunteering_services'
p3888
sS'451228945644781568'
p3889
S'donation_needs_or_offers_or_volunteering_services'
p3890
sS'451228934404063232'
p3891
S'donation_needs_or_offers_or_volunteering_services'
p3892
sS'451229079380193280'
p3893
S'injured_or_dead_people'
p3894
sS'451229047234641920'
p3895
S'injured_or_dead_people'
p3896
sS'451229019892355072'
p3897
S'sympathy_and_emotional_support'
p3898
sS'451228450863337472'
p3899
S'sympathy_and_emotional_support'
p3900
sS'451228420765392896'
p3901
S'injured_or_dead_people'
p3902
sS'451228764346015745'
p3903
S'injured_or_dead_people'
p3904
sS'451229391717015552'
p3905
S'not_related_or_irrelevant'
p3906
sS'451228566538436608'
p3907
S'donation_needs_or_offers_or_volunteering_services'
p3908
sS'451228654865883136'
p3909
S'donation_needs_or_offers_or_volunteering_services'
p3910
sS'451228668182810624'
p3911
S'sympathy_and_emotional_support'
p3912
sS'451228681676267520'
p3913
S'donation_needs_or_offers_or_volunteering_services'
p3914
sS'451229190109798400'
p3915
S'injured_or_dead_people'
p3916
sS'451229240156233728'
p3917
S'sympathy_and_emotional_support'
p3918
sS'451228619432423424'
p3919
S'sympathy_and_emotional_support'
p3920
sS'451228575111213057'
p3921
S'sympathy_and_emotional_support'
p3922
sS'451229031783215104'
p3923
S'injured_or_dead_people'
p3924
sS'451228645684957184'
p3925
S'not_related_or_irrelevant'
p3926
sS'451229032202665984'
p3927
S'donation_needs_or_offers_or_volunteering_services'
p3928
sS'451228557113450498'
p3929
S'donation_needs_or_offers_or_volunteering_services'
p3930
sS'451229013735112704'
p3931
S'injured_or_dead_people'
p3932
sS'451229028981436416'
p3933
S'injured_or_dead_people'
p3934
sS'451228839536906240'
p3935
S'donation_needs_or_offers_or_volunteering_services'
p3936
sS'451229166265192448'
p3937
S'missing_trapped_or_found_people'
p3938
sS'451229189312507904'
p3939
S'donation_needs_or_offers_or_volunteering_services'
p3940
sS'451228807933206528'
p3941
S'caution_and_advice'
p3942
sS'451228480018345984'
p3943
S'donation_needs_or_offers_or_volunteering_services'
p3944
sS'451228611807555584'
p3945
S'donation_needs_or_offers_or_volunteering_services'
p3946
sS'451229358121054208'
p3947
S'injured_or_dead_people'
p3948
sS'451229218886938625'
p3949
S'donation_needs_or_offers_or_volunteering_services'
p3950
sS'451228512754479104'
p3951
S'not_related_or_irrelevant'
p3952
sS'451228911704096768'
p3953
S'donation_needs_or_offers_or_volunteering_services'
p3954
sS'451229408087392258'
p3955
S'other_useful_information'
p3956
sS'451229420506726400'
p3957
S'injured_or_dead_people'
p3958
sS'451229306619187200'
p3959
S'caution_and_advice'
p3960
sS'451228994981986304'
p3961
S'displaced_people_and_evacuations'
p3962
sS'451229306975309824'
p3963
S'injured_or_dead_people'
p3964
sS'451228426712526848'
p3965
S'not_related_or_irrelevant'
p3966
sS'451228590089048064'
p3967
S'injured_or_dead_people'
p3968
sS'451228492840325120'
p3969
S'donation_needs_or_offers_or_volunteering_services'
p3970
sS'451229134275215360'
p3971
S'other_useful_information'
p3972
sS'451229244669321216'
p3973
S'not_related_or_irrelevant'
p3974
sS'451228633198510080'
p3975
S'not_related_or_irrelevant'
p3976
sS'451228450528178176'
p3977
S'missing_trapped_or_found_people'
p3978
sS'451229430565064705'
p3979
S'other_useful_information'
p3980
sS'451228919660699648'
p3981
S'other_useful_information'
p3982
sS'451229191527100417'
p3983
S'donation_needs_or_offers_or_volunteering_services'
p3984
sS'451228760164270080'
p3985
S'injured_or_dead_people'
p3986
sS'451229019816869888'
p3987
S'donation_needs_or_offers_or_volunteering_services'
p3988
sS'451229232346431488'
p3989
S'displaced_people_and_evacuations'
p3990
sS'451228728178515969'
p3991
S'displaced_people_and_evacuations'
p3992
sS'451229255788417024'
p3993
S'displaced_people_and_evacuations'
p3994
sS'451228981275406338'
p3995
S'sympathy_and_emotional_support'
p3996
sS'451228541070237696'
p3997
S'injured_or_dead_people'
p3998
sS'451228560745713665'
p3999
S'missing_trapped_or_found_people'
p4000
s.