(dp0
S'508343727929450497'
p1
S'donation_needs_or_offers_or_volunteering_services'
p2
sS'508334188446363648'
p3
S'injured_or_dead_people'
p4
sS'508339969547853824'
p5
S'displaced_people_and_evacuations'
p6
sS'508340377196044288'
p7
S'other_useful_information'
p8
sS'508335033963147264'
p9
S'missing_trapped_or_found_people'
p10
sS'508344642426130433'
p11
S'displaced_people_and_evacuations'
p12
sS'508336486807511040'
p13
S'other_useful_information'
p14
sS'508334572463857664'
p15
S'displaced_people_and_evacuations'
p16
sS'508333283348733952'
p17
S'other_useful_information'
p18
sS'508336457745190912'
p19
S'injured_or_dead_people'
p20
sS'508344795212042240'
p21
S'infrastructure_and_utilities_damage'
p22
sS'508344335620784128'
p23
S'displaced_people_and_evacuations'
p24
sS'508342442962067456'
p25
S'other_useful_information'
p26
sS'508341791112716288'
p27
S'other_useful_information'
p28
sS'508340066453049344'
p29
S'donation_needs_or_offers_or_volunteering_services'
p30
sS'508338886255587328'
p31
S'injured_or_dead_people'
p32
sS'508337772881383424'
p33
S'donation_needs_or_offers_or_volunteering_services'
p34
sS'508343945378557953'
p35
S'other_useful_information'
p36
sS'508339268708605952'
p37
S'donation_needs_or_offers_or_volunteering_services'
p38
sS'508335163865321472'
p39
S'displaced_people_and_evacuations'
p40
sS'508342005270069248'
p41
S'infrastructure_and_utilities_damage'
p42
sS'508333001688641536'
p43
S'injured_or_dead_people'
p44
sS'508336957412614146'
p45
S'other_useful_information'
p46
sS'508340564501463040'
p47
S'other_useful_information'
p48
sS'508345282665672704'
p49
S'injured_or_dead_people'
p50
sS'508344523093991425'
p51
S'other_useful_information'
p52
sS'508332287524499456'
p53
S'donation_needs_or_offers_or_volunteering_services'
p54
sS'508335018075123712'
p55
S'injured_or_dead_people'
p56
sS'508335477884084224'
p57
S'other_useful_information'
p58
sS'508336837166104576'
p59
S'sympathy_and_emotional_support'
p60
sS'508335099075907585'
p61
S'sympathy_and_emotional_support'
p62
sS'508335086622613505'
p63
S'other_useful_information'
p64
sS'508342220320428032'
p65
S'other_useful_information'
p66
sS'508337677121249280'
p67
S'infrastructure_and_utilities_damage'
p68
sS'508345052670992384'
p69
S'other_useful_information'
p70
sS'508341851846225920'
p71
S'other_useful_information'
p72
sS'508344075460702208'
p73
S'injured_or_dead_people'
p74
sS'508337046520598528'
p75
S'injured_or_dead_people'
p76
sS'508344029075886080'
p77
S'donation_needs_or_offers_or_volunteering_services'
p78
sS'508345109965180928'
p79
S'infrastructure_and_utilities_damage'
p80
sS'508343995865395200'
p81
S'donation_needs_or_offers_or_volunteering_services'
p82
sS'508333714510970880'
p83
S'caution_and_advice'
p84
sS'508342123411030016'
p85
S'caution_and_advice'
p86
sS'508343858011594752'
p87
S'other_useful_information'
p88
sS'508335183754321921'
p89
S'injured_or_dead_people'
p90
sS'508337517377368065'
p91
S'caution_and_advice'
p92
sS'508337380831420416'
p93
S'injured_or_dead_people'
p94
sS'508337394630664192'
p95
S'injured_or_dead_people'
p96
sS'508338344527265792'
p97
S'other_useful_information'
p98
sS'508342599217057792'
p99
S'donation_needs_or_offers_or_volunteering_services'
p100
sS'508334089489756160'
p101
S'other_useful_information'
p102
sS'508340090360180736'
p103
S'sympathy_and_emotional_support'
p104
sS'508337537988182016'
p105
S'other_useful_information'
p106
sS'508339155210739712'
p107
S'donation_needs_or_offers_or_volunteering_services'
p108
sS'508340989187330048'
p109
S'other_useful_information'
p110
sS'508342142121431040'
p111
S'other_useful_information'
p112
sS'508342933352112129'
p113
S'other_useful_information'
p114
sS'508341485129834496'
p115
S'donation_needs_or_offers_or_volunteering_services'
p116
sS'508334130182881281'
p117
S'other_useful_information'
p118
sS'508340636693434370'
p119
S'donation_needs_or_offers_or_volunteering_services'
p120
sS'508334612934709249'
p121
S'other_useful_information'
p122
sS'508345145650343936'
p123
S'sympathy_and_emotional_support'
p124
sS'508335693899128832'
p125
S'other_useful_information'
p126
sS'508339437961764865'
p127
S'caution_and_advice'
p128
sS'508339556156833792'
p129
S'injured_or_dead_people'
p130
sS'508342981792133121'
p131
S'donation_needs_or_offers_or_volunteering_services'
p132
sS'508345198099705856'
p133
S'donation_needs_or_offers_or_volunteering_services'
p134
sS'508342116205215744'
p135
S'other_useful_information'
p136
sS'508332350187397120'
p137
S'injured_or_dead_people'
p138
sS'508335166025003008'
p139
S'infrastructure_and_utilities_damage'
p140
sS'508332506349711360'
p141
S'donation_needs_or_offers_or_volunteering_services'
p142
sS'508345109285306368'
p143
S'injured_or_dead_people'
p144
sS'508337584905256960'
p145
S'injured_or_dead_people'
p146
sS'508332983787335680'
p147
S'displaced_people_and_evacuations'
p148
sS'508332732900859904'
p149
S'sympathy_and_emotional_support'
p150
sS'508337097905016832'
p151
S'caution_and_advice'
p152
sS'508343897748430848'
p153
S'other_useful_information'
p154
sS'508343975434924034'
p155
S'caution_and_advice'
p156
sS'508333985651757056'
p157
S'other_useful_information'
p158
sS'508337761275768832'
p159
S'infrastructure_and_utilities_damage'
p160
sS'508336764205801472'
p161
S'other_useful_information'
p162
sS'508340196635467776'
p163
S'donation_needs_or_offers_or_volunteering_services'
p164
sS'508343886251843585'
p165
S'injured_or_dead_people'
p166
sS'508342879228395520'
p167
S'injured_or_dead_people'
p168
sS'508340149067853824'
p169
S'missing_trapped_or_found_people'
p170
sS'508333655874236416'
p171
S'donation_needs_or_offers_or_volunteering_services'
p172
sS'508333652405911552'
p173
S'donation_needs_or_offers_or_volunteering_services'
p174
sS'508333255738003456'
p175
S'donation_needs_or_offers_or_volunteering_services'
p176
sS'508332570501971968'
p177
S'injured_or_dead_people'
p178
sS'508340116989820929'
p179
S'donation_needs_or_offers_or_volunteering_services'
p180
sS'508342206076583936'
p181
S'infrastructure_and_utilities_damage'
p182
sS'508343972402442240'
p183
S'other_useful_information'
p184
sS'508335135901884416'
p185
S'other_useful_information'
p186
sS'508342322946650112'
p187
S'other_useful_information'
p188
sS'508338532948389889'
p189
S'other_useful_information'
p190
sS'508337144960942080'
p191
S'other_useful_information'
p192
sS'508337942100574208'
p193
S'other_useful_information'
p194
sS'508334130694602752'
p195
S'other_useful_information'
p196
sS'508336605766385666'
p197
S'donation_needs_or_offers_or_volunteering_services'
p198
sS'508344567754551296'
p199
S'sympathy_and_emotional_support'
p200
sS'508335718624542720'
p201
S'injured_or_dead_people'
p202
sS'508343961132740608'
p203
S'injured_or_dead_people'
p204
sS'508339126223908864'
p205
S'donation_needs_or_offers_or_volunteering_services'
p206
sS'508334379832057856'
p207
S'caution_and_advice'
p208
sS'508342640085962752'
p209
S'donation_needs_or_offers_or_volunteering_services'
p210
sS'508343623188877312'
p211
S'injured_or_dead_people'
p212
sS'508333233293897729'
p213
S'donation_needs_or_offers_or_volunteering_services'
p214
sS'508343129024385024'
p215
S'other_useful_information'
p216
sS'508334114928218112'
p217
S'other_useful_information'
p218
sS'508332997246844928'
p219
S'not_related_or_irrelevant'
p220
sS'508332488599425024'
p221
S'missing_trapped_or_found_people'
p222
sS'508334126009556993'
p223
S'donation_needs_or_offers_or_volunteering_services'
p224
sS'508344534666059776'
p225
S'other_useful_information'
p226
sS'508338594449489920'
p227
S'donation_needs_or_offers_or_volunteering_services'
p228
sS'508332187448401920'
p229
S'donation_needs_or_offers_or_volunteering_services'
p230
sS'508341330590699520'
p231
S'sympathy_and_emotional_support'
p232
sS'508344482962886656'
p233
S'donation_needs_or_offers_or_volunteering_services'
p234
sS'508344515162144768'
p235
S'other_useful_information'
p236
sS'508335726170505217'
p237
S'displaced_people_and_evacuations'
p238
sS'508345374705479680'
p239
S'donation_needs_or_offers_or_volunteering_services'
p240
sS'508343642998587392'
p241
S'sympathy_and_emotional_support'
p242
sS'508345205398208512'
p243
S'other_useful_information'
p244
sS'508342209570430976'
p245
S'infrastructure_and_utilities_damage'
p246
sS'508333774409846784'
p247
S'donation_needs_or_offers_or_volunteering_services'
p248
sS'508335440215035904'
p249
S'other_useful_information'
p250
sS'508345220485120000'
p251
S'other_useful_information'
p252
sS'508342900652916736'
p253
S'injured_or_dead_people'
p254
sS'508333569232482305'
p255
S'other_useful_information'
p256
sS'508337700005359617'
p257
S'other_useful_information'
p258
sS'508336243982086144'
p259
S'other_useful_information'
p260
sS'508343691660886017'
p261
S'donation_needs_or_offers_or_volunteering_services'
p262
sS'508333879304798208'
p263
S'other_useful_information'
p264
sS'508341582404534272'
p265
S'donation_needs_or_offers_or_volunteering_services'
p266
sS'508335875869007872'
p267
S'injured_or_dead_people'
p268
sS'508334056040181761'
p269
S'donation_needs_or_offers_or_volunteering_services'
p270
sS'508338311132639232'
p271
S'other_useful_information'
p272
sS'508345366509387776'
p273
S'other_useful_information'
p274
sS'508341861967085569'
p275
S'donation_needs_or_offers_or_volunteering_services'
p276
sS'508341800843898880'
p277
S'other_useful_information'
p278
sS'508338889783009281'
p279
S'missing_trapped_or_found_people'
p280
sS'508338280891691008'
p281
S'other_useful_information'
p282
sS'508333146496958465'
p283
S'displaced_people_and_evacuations'
p284
sS'508341365433180160'
p285
S'injured_or_dead_people'
p286
sS'508337670297489408'
p287
S'not_related_or_irrelevant'
p288
sS'508339056909221888'
p289
S'donation_needs_or_offers_or_volunteering_services'
p290
sS'508336716781195264'
p291
S'donation_needs_or_offers_or_volunteering_services'
p292
sS'508344745505345537'
p293
S'displaced_people_and_evacuations'
p294
sS'508345026234306561'
p295
S'displaced_people_and_evacuations'
p296
sS'508340146698088449'
p297
S'other_useful_information'
p298
sS'508340272028086272'
p299
S'displaced_people_and_evacuations'
p300
sS'508337325521502208'
p301
S'donation_needs_or_offers_or_volunteering_services'
p302
sS'508334234860154882'
p303
S'donation_needs_or_offers_or_volunteering_services'
p304
sS'508341504201351168'
p305
S'not_related_or_irrelevant'
p306
sS'508343028377862144'
p307
S'injured_or_dead_people'
p308
sS'508333916022128640'
p309
S'sympathy_and_emotional_support'
p310
sS'508337689457086464'
p311
S'donation_needs_or_offers_or_volunteering_services'
p312
sS'508341755276570625'
p313
S'donation_needs_or_offers_or_volunteering_services'
p314
sS'508338819049877504'
p315
S'other_useful_information'
p316
sS'508334643935182848'
p317
S'sympathy_and_emotional_support'
p318
sS'508339814580510720'
p319
S'injured_or_dead_people'
p320
sS'508336999968022528'
p321
S'other_useful_information'
p322
sS'508339347662594048'
p323
S'other_useful_information'
p324
sS'508333134321299456'
p325
S'donation_needs_or_offers_or_volunteering_services'
p326
sS'508343245999722497'
p327
S'displaced_people_and_evacuations'
p328
sS'508342269930266624'
p329
S'infrastructure_and_utilities_damage'
p330
sS'508338976940650496'
p331
S'other_useful_information'
p332
sS'508343167440003073'
p333
S'injured_or_dead_people'
p334
sS'508342881799512064'
p335
S'donation_needs_or_offers_or_volunteering_services'
p336
sS'508333449401229312'
p337
S'donation_needs_or_offers_or_volunteering_services'
p338
sS'508338199656022016'
p339
S'other_useful_information'
p340
sS'508343922368577536'
p341
S'other_useful_information'
p342
sS'508341316498251778'
p343
S'other_useful_information'
p344
sS'508344598918230016'
p345
S'donation_needs_or_offers_or_volunteering_services'
p346
sS'508333042851930113'
p347
S'donation_needs_or_offers_or_volunteering_services'
p348
sS'508338080026484736'
p349
S'displaced_people_and_evacuations'
p350
sS'508340229011681282'
p351
S'not_related_or_irrelevant'
p352
sS'508335316684382208'
p353
S'donation_needs_or_offers_or_volunteering_services'
p354
sS'508342064216801281'
p355
S'other_useful_information'
p356
sS'508333046924193792'
p357
S'other_useful_information'
p358
sS'508332595566739456'
p359
S'other_useful_information'
p360
sS'508336734686691328'
p361
S'injured_or_dead_people'
p362
sS'508342744470007808'
p363
S'other_useful_information'
p364
sS'508342940544954368'
p365
S'other_useful_information'
p366
sS'508339132439871489'
p367
S'other_useful_information'
p368
sS'508338348641886208'
p369
S'injured_or_dead_people'
p370
sS'508343269520986112'
p371
S'displaced_people_and_evacuations'
p372
sS'508336738293387264'
p373
S'other_useful_information'
p374
sS'508338000367874048'
p375
S'other_useful_information'
p376
sS'508334254174912512'
p377
S'infrastructure_and_utilities_damage'
p378
sS'508332668878987264'
p379
S'other_useful_information'
p380
sS'508336772032376833'
p381
S'injured_or_dead_people'
p382
sS'508340201798651905'
p383
S'other_useful_information'
p384
sS'508342675980820480'
p385
S'other_useful_information'
p386
sS'508343416619405312'
p387
S'donation_needs_or_offers_or_volunteering_services'
p388
sS'508340640409587712'
p389
S'other_useful_information'
p390
sS'508334664264593408'
p391
S'donation_needs_or_offers_or_volunteering_services'
p392
sS'508341268905086976'
p393
S'other_useful_information'
p394
sS'508342944907022336'
p395
S'donation_needs_or_offers_or_volunteering_services'
p396
sS'508343737249193985'
p397
S'donation_needs_or_offers_or_volunteering_services'
p398
sS'508339899674947584'
p399
S'other_useful_information'
p400
sS'508341514385510400'
p401
S'other_useful_information'
p402
sS'508340092100816898'
p403
S'other_useful_information'
p404
sS'508335340378001408'
p405
S'injured_or_dead_people'
p406
sS'508339413135261696'
p407
S'displaced_people_and_evacuations'
p408
sS'508334075309195264'
p409
S'other_useful_information'
p410
sS'508337168779976705'
p411
S'other_useful_information'
p412
sS'508336699542605824'
p413
S'donation_needs_or_offers_or_volunteering_services'
p414
sS'508342691751804929'
p415
S'other_useful_information'
p416
sS'508334250341314561'
p417
S'donation_needs_or_offers_or_volunteering_services'
p418
sS'508336293110366208'
p419
S'other_useful_information'
p420
sS'508344491284377600'
p421
S'missing_trapped_or_found_people'
p422
sS'508340381050630144'
p423
S'other_useful_information'
p424
sS'508338320548458496'
p425
S'donation_needs_or_offers_or_volunteering_services'
p426
sS'508341750029508608'
p427
S'infrastructure_and_utilities_damage'
p428
sS'508344717948383232'
p429
S'other_useful_information'
p430
sS'508342348934164480'
p431
S'other_useful_information'
p432
sS'508334836407234560'
p433
S'injured_or_dead_people'
p434
sS'508334805503578112'
p435
S'other_useful_information'
p436
sS'508338054973493249'
p437
S'other_useful_information'
p438
sS'508339485323444224'
p439
S'infrastructure_and_utilities_damage'
p440
sS'508340577499631616'
p441
S'other_useful_information'
p442
sS'508344432916049920'
p443
S'sympathy_and_emotional_support'
p444
sS'508333190746877952'
p445
S'other_useful_information'
p446
sS'508342171284807680'
p447
S'injured_or_dead_people'
p448
sS'508332173532073985'
p449
S'donation_needs_or_offers_or_volunteering_services'
p450
sS'508333184342163456'
p451
S'injured_or_dead_people'
p452
sS'508337356076630016'
p453
S'not_related_or_irrelevant'
p454
sS'508339620023898113'
p455
S'missing_trapped_or_found_people'
p456
sS'508338369852489728'
p457
S'other_useful_information'
p458
sS'508341148721491969'
p459
S'donation_needs_or_offers_or_volunteering_services'
p460
sS'508345380191617024'
p461
S'other_useful_information'
p462
sS'508342545760284672'
p463
S'displaced_people_and_evacuations'
p464
sS'508336108850016256'
p465
S'donation_needs_or_offers_or_volunteering_services'
p466
sS'508337282965704704'
p467
S'other_useful_information'
p468
sS'508338235752587264'
p469
S'injured_or_dead_people'
p470
sS'508340577365016576'
p471
S'donation_needs_or_offers_or_volunteering_services'
p472
sS'508337544669302784'
p473
S'missing_trapped_or_found_people'
p474
sS'508343770518016000'
p475
S'injured_or_dead_people'
p476
sS'508344053658689536'
p477
S'sympathy_and_emotional_support'
p478
sS'508338535150399488'
p479
S'other_useful_information'
p480
sS'508334302665658368'
p481
S'caution_and_advice'
p482
sS'508344770167865344'
p483
S'donation_needs_or_offers_or_volunteering_services'
p484
sS'508332314561376256'
p485
S'caution_and_advice'
p486
sS'508336774221799425'
p487
S'injured_or_dead_people'
p488
sS'508335781543301120'
p489
S'donation_needs_or_offers_or_volunteering_services'
p490
sS'508340028804579328'
p491
S'not_related_or_irrelevant'
p492
sS'508335054402383873'
p493
S'injured_or_dead_people'
p494
sS'508342553049972736'
p495
S'other_useful_information'
p496
sS'508334531188105216'
p497
S'sympathy_and_emotional_support'
p498
sS'508332384572694528'
p499
S'other_useful_information'
p500
sS'508341407028101120'
p501
S'donation_needs_or_offers_or_volunteering_services'
p502
sS'508335265396436993'
p503
S'missing_trapped_or_found_people'
p504
sS'508341075225116672'
p505
S'donation_needs_or_offers_or_volunteering_services'
p506
sS'508341466297421825'
p507
S'donation_needs_or_offers_or_volunteering_services'
p508
sS'508338764130029569'
p509
S'injured_or_dead_people'
p510
sS'508344249234886656'
p511
S'donation_needs_or_offers_or_volunteering_services'
p512
sS'508332411315167232'
p513
S'donation_needs_or_offers_or_volunteering_services'
p514
sS'508339570119700480'
p515
S'injured_or_dead_people'
p516
sS'508334269039509504'
p517
S'donation_needs_or_offers_or_volunteering_services'
p518
sS'508332644598177792'
p519
S'other_useful_information'
p520
sS'508343033847631873'
p521
S'missing_trapped_or_found_people'
p522
sS'508339496429973505'
p523
S'donation_needs_or_offers_or_volunteering_services'
p524
sS'508342902800396288'
p525
S'other_useful_information'
p526
sS'508342436452524032'
p527
S'infrastructure_and_utilities_damage'
p528
sS'508337612705525760'
p529
S'other_useful_information'
p530
sS'508342659061383170'
p531
S'caution_and_advice'
p532
sS'508340798870417408'
p533
S'displaced_people_and_evacuations'
p534
sS'508336097378566144'
p535
S'donation_needs_or_offers_or_volunteering_services'
p536
sS'508344178795765760'
p537
S'other_useful_information'
p538
sS'508342825235529729'
p539
S'injured_or_dead_people'
p540
sS'508336595527688193'
p541
S'donation_needs_or_offers_or_volunteering_services'
p542
sS'508345126872023041'
p543
S'infrastructure_and_utilities_damage'
p544
sS'508336600611581953'
p545
S'donation_needs_or_offers_or_volunteering_services'
p546
sS'508341051816308736'
p547
S'other_useful_information'
p548
sS'508334140119195648'
p549
S'injured_or_dead_people'
p550
sS'508333137030418432'
p551
S'donation_needs_or_offers_or_volunteering_services'
p552
sS'508333460340367361'
p553
S'missing_trapped_or_found_people'
p554
sS'508339827553472512'
p555
S'other_useful_information'
p556
sS'508341697643044864'
p557
S'other_useful_information'
p558
sS'508335545026498560'
p559
S'donation_needs_or_offers_or_volunteering_services'
p560
sS'508344631739027456'
p561
S'injured_or_dead_people'
p562
sS'508338451440095232'
p563
S'displaced_people_and_evacuations'
p564
sS'508341626260160512'
p565
S'donation_needs_or_offers_or_volunteering_services'
p566
sS'508338305201889280'
p567
S'other_useful_information'
p568
sS'508338999443066880'
p569
S'missing_trapped_or_found_people'
p570
sS'508341060297560064'
p571
S'other_useful_information'
p572
sS'508335975094050816'
p573
S'other_useful_information'
p574
sS'508336779683168257'
p575
S'other_useful_information'
p576
sS'508342517624868864'
p577
S'missing_trapped_or_found_people'
p578
sS'508340241217118208'
p579
S'injured_or_dead_people'
p580
sS'508339548326072321'
p581
S'sympathy_and_emotional_support'
p582
sS'508345005681811457'
p583
S'donation_needs_or_offers_or_volunteering_services'
p584
sS'508343292111515648'
p585
S'missing_trapped_or_found_people'
p586
sS'508342497001885696'
p587
S'injured_or_dead_people'
p588
sS'508340145633120256'
p589
S'other_useful_information'
p590
sS'508340326398840832'
p591
S'other_useful_information'
p592
sS'508344087708438529'
p593
S'displaced_people_and_evacuations'
p594
sS'508344354478755840'
p595
S'other_useful_information'
p596
sS'508338886993805312'
p597
S'donation_needs_or_offers_or_volunteering_services'
p598
sS'508337613070422016'
p599
S'other_useful_information'
p600
sS'508333834279350272'
p601
S'donation_needs_or_offers_or_volunteering_services'
p602
sS'508341129780011009'
p603
S'other_useful_information'
p604
sS'508343876382625792'
p605
S'donation_needs_or_offers_or_volunteering_services'
p606
sS'508333225438367744'
p607
S'injured_or_dead_people'
p608
sS'508340573049483264'
p609
S'sympathy_and_emotional_support'
p610
sS'508336089069674497'
p611
S'infrastructure_and_utilities_damage'
p612
sS'508334907634900992'
p613
S'donation_needs_or_offers_or_volunteering_services'
p614
sS'508336731205013504'
p615
S'missing_trapped_or_found_people'
p616
sS'508344534124613633'
p617
S'caution_and_advice'
p618
sS'508339618480390144'
p619
S'infrastructure_and_utilities_damage'
p620
sS'508342904234852352'
p621
S'other_useful_information'
p622
sS'508335557903007744'
p623
S'injured_or_dead_people'
p624
sS'508339767780466688'
p625
S'injured_or_dead_people'
p626
sS'508338256606674944'
p627
S'infrastructure_and_utilities_damage'
p628
sS'508343085781118976'
p629
S'donation_needs_or_offers_or_volunteering_services'
p630
sS'508341453676756992'
p631
S'not_related_or_irrelevant'
p632
sS'508336236994375680'
p633
S'other_useful_information'
p634
sS'508336597226758144'
p635
S'other_useful_information'
p636
sS'508332247867355136'
p637
S'donation_needs_or_offers_or_volunteering_services'
p638
sS'508344298992316416'
p639
S'missing_trapped_or_found_people'
p640
sS'508337173121089536'
p641
S'displaced_people_and_evacuations'
p642
sS'508334574766551040'
p643
S'sympathy_and_emotional_support'
p644
sS'508342398103982080'
p645
S'displaced_people_and_evacuations'
p646
sS'508345263891554304'
p647
S'not_related_or_irrelevant'
p648
sS'508333801094021121'
p649
S'other_useful_information'
p650
sS'508341535990382592'
p651
S'donation_needs_or_offers_or_volunteering_services'
p652
sS'508343824704626688'
p653
S'other_useful_information'
p654
sS'508344396082057216'
p655
S'donation_needs_or_offers_or_volunteering_services'
p656
sS'508335484557209600'
p657
S'not_related_or_irrelevant'
p658
sS'508332489215979520'
p659
S'injured_or_dead_people'
p660
sS'508342659338240000'
p661
S'injured_or_dead_people'
p662
sS'508332919249960960'
p663
S'other_useful_information'
p664
sS'508341384881778688'
p665
S'donation_needs_or_offers_or_volunteering_services'
p666
sS'508339174756200448'
p667
S'other_useful_information'
p668
sS'508337889223385089'
p669
S'injured_or_dead_people'
p670
sS'508344321075331072'
p671
S'other_useful_information'
p672
sS'508337427304701952'
p673
S'other_useful_information'
p674
sS'508335645878521856'
p675
S'sympathy_and_emotional_support'
p676
sS'508339799871062016'
p677
S'infrastructure_and_utilities_damage'
p678
sS'508333592020123648'
p679
S'injured_or_dead_people'
p680
sS'508335767299842048'
p681
S'missing_trapped_or_found_people'
p682
sS'508340445370257408'
p683
S'donation_needs_or_offers_or_volunteering_services'
p684
sS'508336742521266176'
p685
S'other_useful_information'
p686
sS'508335394287411200'
p687
S'other_useful_information'
p688
sS'508344468714815488'
p689
S'donation_needs_or_offers_or_volunteering_services'
p690
sS'508335293426962432'
p691
S'other_useful_information'
p692
sS'508342031408971776'
p693
S'other_useful_information'
p694
sS'508338047025283072'
p695
S'donation_needs_or_offers_or_volunteering_services'
p696
sS'508337792179777536'
p697
S'donation_needs_or_offers_or_volunteering_services'
p698
sS'508342382400913408'
p699
S'sympathy_and_emotional_support'
p700
sS'508337797489381376'
p701
S'other_useful_information'
p702
sS'508335783930257410'
p703
S'donation_needs_or_offers_or_volunteering_services'
p704
sS'508340440697819136'
p705
S'injured_or_dead_people'
p706
sS'508336607318265856'
p707
S'displaced_people_and_evacuations'
p708
sS'508334512099434496'
p709
S'other_useful_information'
p710
sS'508343619032338433'
p711
S'missing_trapped_or_found_people'
p712
sS'508333089471610881'
p713
S'infrastructure_and_utilities_damage'
p714
sS'508334127649525760'
p715
S'sympathy_and_emotional_support'
p716
sS'508343392338980866'
p717
S'other_useful_information'
p718
sS'508333895700713472'
p719
S'donation_needs_or_offers_or_volunteering_services'
p720
sS'508336544412086272'
p721
S'injured_or_dead_people'
p722
sS'508335352650944513'
p723
S'missing_trapped_or_found_people'
p724
sS'508341858938802176'
p725
S'caution_and_advice'
p726
sS'508332937461248000'
p727
S'other_useful_information'
p728
sS'508338547573551104'
p729
S'other_useful_information'
p730
sS'508341485901578242'
p731
S'infrastructure_and_utilities_damage'
p732
sS'508339947112509441'
p733
S'donation_needs_or_offers_or_volunteering_services'
p734
sS'508342302712950784'
p735
S'other_useful_information'
p736
sS'508335649175269376'
p737
S'donation_needs_or_offers_or_volunteering_services'
p738
sS'508336897655988225'
p739
S'infrastructure_and_utilities_damage'
p740
sS'508339978942701568'
p741
S'other_useful_information'
p742
sS'508336578456854529'
p743
S'other_useful_information'
p744
sS'508339373826256897'
p745
S'donation_needs_or_offers_or_volunteering_services'
p746
sS'508332439756754944'
p747
S'donation_needs_or_offers_or_volunteering_services'
p748
sS'508333255272431617'
p749
S'displaced_people_and_evacuations'
p750
sS'508342279736524800'
p751
S'injured_or_dead_people'
p752
sS'508337220655128581'
p753
S'sympathy_and_emotional_support'
p754
sS'508342687540318208'
p755
S'donation_needs_or_offers_or_volunteering_services'
p756
sS'508334540553592832'
p757
S'other_useful_information'
p758
sS'508341809266044928'
p759
S'other_useful_information'
p760
sS'508339272860962817'
p761
S'sympathy_and_emotional_support'
p762
sS'508343968011022336'
p763
S'displaced_people_and_evacuations'
p764
sS'508339848181084160'
p765
S'other_useful_information'
p766
sS'508341462598041600'
p767
S'other_useful_information'
p768
sS'508344267480113152'
p769
S'infrastructure_and_utilities_damage'
p770
sS'508341216317284352'
p771
S'donation_needs_or_offers_or_volunteering_services'
p772
sS'508335875680657408'
p773
S'donation_needs_or_offers_or_volunteering_services'
p774
sS'508336433132609537'
p775
S'other_useful_information'
p776
sS'508340150460354560'
p777
S'donation_needs_or_offers_or_volunteering_services'
p778
sS'508339184789360640'
p779
S'displaced_people_and_evacuations'
p780
sS'508341618429411328'
p781
S'other_useful_information'
p782
sS'508333386600308737'
p783
S'donation_needs_or_offers_or_volunteering_services'
p784
sS'508341275653726208'
p785
S'donation_needs_or_offers_or_volunteering_services'
p786
sS'508339409293299712'
p787
S'other_useful_information'
p788
sS'508335714279243776'
p789
S'donation_needs_or_offers_or_volunteering_services'
p790
sS'508342726002085888'
p791
S'injured_or_dead_people'
p792
sS'508337845648760834'
p793
S'other_useful_information'
p794
sS'508336434214731777'
p795
S'donation_needs_or_offers_or_volunteering_services'
p796
sS'508339161191817216'
p797
S'donation_needs_or_offers_or_volunteering_services'
p798
sS'508340814561308672'
p799
S'other_useful_information'
p800
sS'508341498539032576'
p801
S'donation_needs_or_offers_or_volunteering_services'
p802
sS'508345376240177153'
p803
S'displaced_people_and_evacuations'
p804
sS'508344561635446785'
p805
S'sympathy_and_emotional_support'
p806
sS'508337139327991808'
p807
S'donation_needs_or_offers_or_volunteering_services'
p808
sS'508340584340152321'
p809
S'displaced_people_and_evacuations'
p810
sS'508344550751219712'
p811
S'donation_needs_or_offers_or_volunteering_services'
p812
sS'508344646591062016'
p813
S'donation_needs_or_offers_or_volunteering_services'
p814
sS'508341753422688256'
p815
S'injured_or_dead_people'
p816
sS'508343922629021696'
p817
S'donation_needs_or_offers_or_volunteering_services'
p818
sS'508344667075661824'
p819
S'other_useful_information'
p820
sS'508333243712544768'
p821
S'donation_needs_or_offers_or_volunteering_services'
p822
sS'508335809020190720'
p823
S'donation_needs_or_offers_or_volunteering_services'
p824
sS'508341264732147712'
p825
S'displaced_people_and_evacuations'
p826
sS'508341577732079616'
p827
S'injured_or_dead_people'
p828
sS'508336602939400192'
p829
S'other_useful_information'
p830
sS'508338501864423424'
p831
S'missing_trapped_or_found_people'
p832
sS'508335059292524544'
p833
S'other_useful_information'
p834
sS'508335921960611840'
p835
S'donation_needs_or_offers_or_volunteering_services'
p836
sS'508341153524367360'
p837
S'other_useful_information'
p838
sS'508333652292681730'
p839
S'other_useful_information'
p840
sS'508345045586440192'
p841
S'other_useful_information'
p842
sS'508336491312193536'
p843
S'donation_needs_or_offers_or_volunteering_services'
p844
sS'508342841072820224'
p845
S'other_useful_information'
p846
sS'508335829400694784'
p847
S'displaced_people_and_evacuations'
p848
sS'508332749929725952'
p849
S'other_useful_information'
p850
sS'508338300654858242'
p851
S'other_useful_information'
p852
sS'508338283495960577'
p853
S'donation_needs_or_offers_or_volunteering_services'
p854
sS'508345165791379456'
p855
S'injured_or_dead_people'
p856
sS'508344896345104384'
p857
S'other_useful_information'
p858
sS'508339488859635713'
p859
S'other_useful_information'
p860
sS'508343244397084672'
p861
S'donation_needs_or_offers_or_volunteering_services'
p862
sS'508332882595573760'
p863
S'other_useful_information'
p864
sS'508342556053078016'
p865
S'other_useful_information'
p866
sS'508345394468630528'
p867
S'infrastructure_and_utilities_damage'
p868
sS'508340089366515712'
p869
S'missing_trapped_or_found_people'
p870
sS'508344351387566081'
p871
S'donation_needs_or_offers_or_volunteering_services'
p872
sS'508332959385272320'
p873
S'other_useful_information'
p874
sS'508333754855616514'
p875
S'other_useful_information'
p876
sS'508343979675754497'
p877
S'other_useful_information'
p878
sS'508343417756069889'
p879
S'sympathy_and_emotional_support'
p880
sS'508333485007069184'
p881
S'missing_trapped_or_found_people'
p882
sS'508341873140695040'
p883
S'displaced_people_and_evacuations'
p884
sS'508342834668527617'
p885
S'displaced_people_and_evacuations'
p886
sS'508341047848480768'
p887
S'other_useful_information'
p888
sS'508341450560385024'
p889
S'sympathy_and_emotional_support'
p890
sS'508341415126900736'
p891
S'displaced_people_and_evacuations'
p892
sS'508341589052112896'
p893
S'sympathy_and_emotional_support'
p894
sS'508339794473005056'
p895
S'donation_needs_or_offers_or_volunteering_services'
p896
sS'508338882203484160'
p897
S'other_useful_information'
p898
sS'508333836225511424'
p899
S'other_useful_information'
p900
sS'508334406671818752'
p901
S'donation_needs_or_offers_or_volunteering_services'
p902
sS'508337148219883521'
p903
S'donation_needs_or_offers_or_volunteering_services'
p904
sS'508344409511825408'
p905
S'other_useful_information'
p906
sS'508342849750851584'
p907
S'donation_needs_or_offers_or_volunteering_services'
p908
sS'508343230644367360'
p909
S'injured_or_dead_people'
p910
sS'508341484098039808'
p911
S'other_useful_information'
p912
sS'508336129175592960'
p913
S'donation_needs_or_offers_or_volunteering_services'
p914
sS'508339057856757761'
p915
S'donation_needs_or_offers_or_volunteering_services'
p916
sS'508340897629876224'
p917
S'missing_trapped_or_found_people'
p918
sS'508342177961754624'
p919
S'other_useful_information'
p920
sS'508342389686030336'
p921
S'missing_trapped_or_found_people'
p922
sS'508340496029081600'
p923
S'other_useful_information'
p924
sS'508345119997562880'
p925
S'other_useful_information'
p926
sS'508334554629677057'
p927
S'displaced_people_and_evacuations'
p928
sS'508335812745121792'
p929
S'missing_trapped_or_found_people'
p930
sS'508344538612895746'
p931
S'donation_needs_or_offers_or_volunteering_services'
p932
sS'508344648004562944'
p933
S'injured_or_dead_people'
p934
sS'508341896565907456'
p935
S'other_useful_information'
p936
sS'508333949290954752'
p937
S'other_useful_information'
p938
sS'508342410204561408'
p939
S'other_useful_information'
p940
sS'508332886819631104'
p941
S'displaced_people_and_evacuations'
p942
sS'508337165227806721'
p943
S'donation_needs_or_offers_or_volunteering_services'
p944
sS'508345334524047360'
p945
S'other_useful_information'
p946
sS'508342908802437120'
p947
S'sympathy_and_emotional_support'
p948
sS'508337617302458368'
p949
S'other_useful_information'
p950
sS'508340495467421696'
p951
S'missing_trapped_or_found_people'
p952
sS'508340315124948992'
p953
S'donation_needs_or_offers_or_volunteering_services'
p954
sS'508334818212708352'
p955
S'other_useful_information'
p956
sS'508338041371762688'
p957
S'other_useful_information'
p958
sS'508344584720879617'
p959
S'donation_needs_or_offers_or_volunteering_services'
p960
sS'508341080459190273'
p961
S'missing_trapped_or_found_people'
p962
sS'508340545911934976'
p963
S'donation_needs_or_offers_or_volunteering_services'
p964
sS'508336276945129472'
p965
S'donation_needs_or_offers_or_volunteering_services'
p966
sS'508335668444286976'
p967
S'injured_or_dead_people'
p968
sS'508334931332714497'
p969
S'infrastructure_and_utilities_damage'
p970
sS'508335176460812288'
p971
S'other_useful_information'
p972
sS'508333511762530305'
p973
S'caution_and_advice'
p974
sS'508345230731378688'
p975
S'missing_trapped_or_found_people'
p976
sS'508341858993336320'
p977
S'missing_trapped_or_found_people'
p978
sS'508344049074331648'
p979
S'other_useful_information'
p980
sS'508342682473611264'
p981
S'other_useful_information'
p982
sS'508332632908652544'
p983
S'donation_needs_or_offers_or_volunteering_services'
p984
sS'508332375772647424'
p985
S'other_useful_information'
p986
sS'508339101653692416'
p987
S'missing_trapped_or_found_people'
p988
sS'508344146461868032'
p989
S'donation_needs_or_offers_or_volunteering_services'
p990
sS'508341678193664000'
p991
S'donation_needs_or_offers_or_volunteering_services'
p992
sS'508342882629984256'
p993
S'other_useful_information'
p994
sS'508336070065278976'
p995
S'infrastructure_and_utilities_damage'
p996
sS'508340513968103424'
p997
S'donation_needs_or_offers_or_volunteering_services'
p998
sS'508340049138565121'
p999
S'other_useful_information'
p1000
sS'508344670767034368'
p1001
S'donation_needs_or_offers_or_volunteering_services'
p1002
sS'508342442777526272'
p1003
S'donation_needs_or_offers_or_volunteering_services'
p1004
sS'508334222952497152'
p1005
S'donation_needs_or_offers_or_volunteering_services'
p1006
sS'508340525779259392'
p1007
S'other_useful_information'
p1008
sS'508332549643726848'
p1009
S'other_useful_information'
p1010
sS'508340872962768896'
p1011
S'other_useful_information'
p1012
sS'508342057857867776'
p1013
S'other_useful_information'
p1014
sS'508332271381008384'
p1015
S'donation_needs_or_offers_or_volunteering_services'
p1016
sS'508341007440936960'
p1017
S'other_useful_information'
p1018
sS'508341470047137793'
p1019
S'sympathy_and_emotional_support'
p1020
sS'508334067822395392'
p1021
S'displaced_people_and_evacuations'
p1022
sS'508342239886856192'
p1023
S'donation_needs_or_offers_or_volunteering_services'
p1024
sS'508332642014478336'
p1025
S'donation_needs_or_offers_or_volunteering_services'
p1026
sS'508339072155131904'
p1027
S'donation_needs_or_offers_or_volunteering_services'
p1028
sS'508338067791290368'
p1029
S'donation_needs_or_offers_or_volunteering_services'
p1030
sS'508335250779283456'
p1031
S'displaced_people_and_evacuations'
p1032
sS'508336220405907456'
p1033
S'injured_or_dead_people'
p1034
sS'508334564901912576'
p1035
S'donation_needs_or_offers_or_volunteering_services'
p1036
sS'508340257528365057'
p1037
S'other_useful_information'
p1038
sS'508343991222673408'
p1039
S'displaced_people_and_evacuations'
p1040
sS'508335175860645889'
p1041
S'injured_or_dead_people'
p1042
sS'508340615105368064'
p1043
S'injured_or_dead_people'
p1044
sS'508340560416210944'
p1045
S'other_useful_information'
p1046
sS'508338145960534016'
p1047
S'other_useful_information'
p1048
sS'508343843364675584'
p1049
S'sympathy_and_emotional_support'
p1050
sS'508345301233836032'
p1051
S'caution_and_advice'
p1052
sS'508343916572078080'
p1053
S'other_useful_information'
p1054
sS'508333172807839744'
p1055
S'missing_trapped_or_found_people'
p1056
sS'508339465035972608'
p1057
S'donation_needs_or_offers_or_volunteering_services'
p1058
sS'508342674777047040'
p1059
S'other_useful_information'
p1060
sS'508341220918063105'
p1061
S'other_useful_information'
p1062
sS'508341505644167168'
p1063
S'injured_or_dead_people'
p1064
sS'508342650823794688'
p1065
S'displaced_people_and_evacuations'
p1066
sS'508338433631457281'
p1067
S'caution_and_advice'
p1068
sS'508338981839204353'
p1069
S'other_useful_information'
p1070
sS'508339855051722752'
p1071
S'missing_trapped_or_found_people'
p1072
sS'508345259936710656'
p1073
S'missing_trapped_or_found_people'
p1074
sS'508344764660715520'
p1075
S'donation_needs_or_offers_or_volunteering_services'
p1076
sS'508341464070238208'
p1077
S'donation_needs_or_offers_or_volunteering_services'
p1078
sS'508340793057112064'
p1079
S'other_useful_information'
p1080
sS'508332262317113345'
p1081
S'injured_or_dead_people'
p1082
sS'508339818812555264'
p1083
S'donation_needs_or_offers_or_volunteering_services'
p1084
sS'508339004119728129'
p1085
S'other_useful_information'
p1086
sS'508336848460980226'
p1087
S'other_useful_information'
p1088
sS'508344396962488321'
p1089
S'donation_needs_or_offers_or_volunteering_services'
p1090
sS'508333038892097536'
p1091
S'donation_needs_or_offers_or_volunteering_services'
p1092
sS'508343828768509952'
p1093
S'other_useful_information'
p1094
sS'508335653797376000'
p1095
S'displaced_people_and_evacuations'
p1096
sS'508336931822768128'
p1097
S'infrastructure_and_utilities_damage'
p1098
sS'508345200276942848'
p1099
S'other_useful_information'
p1100
sS'508332927935987712'
p1101
S'not_related_or_irrelevant'
p1102
sS'508338001240281088'
p1103
S'other_useful_information'
p1104
sS'508337173221756929'
p1105
S'donation_needs_or_offers_or_volunteering_services'
p1106
sS'508335868298670080'
p1107
S'donation_needs_or_offers_or_volunteering_services'
p1108
sS'508342306060394497'
p1109
S'donation_needs_or_offers_or_volunteering_services'
p1110
sS'508338812699688960'
p1111
S'other_useful_information'
p1112
sS'508334218112696322'
p1113
S'injured_or_dead_people'
p1114
sS'508332211821490176'
p1115
S'caution_and_advice'
p1116
sS'508342978759245824'
p1117
S'other_useful_information'
p1118
sS'508339441681723392'
p1119
S'other_useful_information'
p1120
sS'508333418128502784'
p1121
S'donation_needs_or_offers_or_volunteering_services'
p1122
sS'508341800835092481'
p1123
S'injured_or_dead_people'
p1124
sS'508338283068534784'
p1125
S'other_useful_information'
p1126
sS'508332510950862848'
p1127
S'sympathy_and_emotional_support'
p1128
sS'508341823715024896'
p1129
S'donation_needs_or_offers_or_volunteering_services'
p1130
sS'508334652218941440'
p1131
S'missing_trapped_or_found_people'
p1132
sS'508339880569491456'
p1133
S'other_useful_information'
p1134
sS'508341539379351553'
p1135
S'other_useful_information'
p1136
sS'508342125646581760'
p1137
S'other_useful_information'
p1138
sS'508336629099270144'
p1139
S'sympathy_and_emotional_support'
p1140
sS'508339042623430656'
p1141
S'infrastructure_and_utilities_damage'
p1142
sS'508345005136953344'
p1143
S'donation_needs_or_offers_or_volunteering_services'
p1144
sS'508337025561280512'
p1145
S'other_useful_information'
p1146
sS'508344984073170944'
p1147
S'donation_needs_or_offers_or_volunteering_services'
p1148
sS'508337734877188096'
p1149
S'missing_trapped_or_found_people'
p1150
sS'508334813216899073'
p1151
S'donation_needs_or_offers_or_volunteering_services'
p1152
sS'508338364873846784'
p1153
S'other_useful_information'
p1154
sS'508341537009598465'
p1155
S'injured_or_dead_people'
p1156
sS'508343528595152896'
p1157
S'other_useful_information'
p1158
sS'508334746091257857'
p1159
S'other_useful_information'
p1160
sS'508336376257867777'
p1161
S'infrastructure_and_utilities_damage'
p1162
sS'508337018771099648'
p1163
S'donation_needs_or_offers_or_volunteering_services'
p1164
sS'508334175754002432'
p1165
S'other_useful_information'
p1166
sS'508336338404659200'
p1167
S'injured_or_dead_people'
p1168
sS'508334855403237377'
p1169
S'other_useful_information'
p1170
sS'508339512410640384'
p1171
S'other_useful_information'
p1172
sS'508332572091613184'
p1173
S'sympathy_and_emotional_support'
p1174
sS'508343211765399552'
p1175
S'missing_trapped_or_found_people'
p1176
sS'508332410631487488'
p1177
S'infrastructure_and_utilities_damage'
p1178
sS'508335107535814656'
p1179
S'other_useful_information'
p1180
sS'508332960421249024'
p1181
S'injured_or_dead_people'
p1182
sS'508344568710848512'
p1183
S'other_useful_information'
p1184
sS'508340608021590017'
p1185
S'other_useful_information'
p1186
sS'508341682430279680'
p1187
S'donation_needs_or_offers_or_volunteering_services'
p1188
sS'508335117920923648'
p1189
S'other_useful_information'
p1190
sS'508344022541164544'
p1191
S'donation_needs_or_offers_or_volunteering_services'
p1192
sS'508341913171550209'
p1193
S'donation_needs_or_offers_or_volunteering_services'
p1194
sS'508332338988601344'
p1195
S'injured_or_dead_people'
p1196
sS'508334028118695936'
p1197
S'other_useful_information'
p1198
sS'508335897679761408'
p1199
S'other_useful_information'
p1200
sS'508343994519420928'
p1201
S'sympathy_and_emotional_support'
p1202
sS'508339043063828480'
p1203
S'injured_or_dead_people'
p1204
sS'508332862106771456'
p1205
S'displaced_people_and_evacuations'
p1206
sS'508332478226919424'
p1207
S'missing_trapped_or_found_people'
p1208
sS'508338804663390208'
p1209
S'donation_needs_or_offers_or_volunteering_services'
p1210
sS'508345021695672320'
p1211
S'other_useful_information'
p1212
sS'508342371080495105'
p1213
S'injured_or_dead_people'
p1214
sS'508335011737923584'
p1215
S'caution_and_advice'
p1216
sS'508335857388900353'
p1217
S'injured_or_dead_people'
p1218
sS'508337622867910656'
p1219
S'injured_or_dead_people'
p1220
sS'508344779789565952'
p1221
S'other_useful_information'
p1222
sS'508340067555745793'
p1223
S'other_useful_information'
p1224
sS'508344588449632257'
p1225
S'other_useful_information'
p1226
sS'508341710162644992'
p1227
S'donation_needs_or_offers_or_volunteering_services'
p1228
sS'508345184506363904'
p1229
S'displaced_people_and_evacuations'
p1230
sS'508337570497847296'
p1231
S'other_useful_information'
p1232
sS'508343818811236352'
p1233
S'donation_needs_or_offers_or_volunteering_services'
p1234
sS'508345209814384640'
p1235
S'other_useful_information'
p1236
sS'508343613672026112'
p1237
S'injured_or_dead_people'
p1238
sS'508340376038825984'
p1239
S'other_useful_information'
p1240
sS'508344911842668545'
p1241
S'injured_or_dead_people'
p1242
sS'508337509357867008'
p1243
S'infrastructure_and_utilities_damage'
p1244
sS'508339625048301568'
p1245
S'sympathy_and_emotional_support'
p1246
sS'508334018098917376'
p1247
S'not_related_or_irrelevant'
p1248
sS'508340747167617024'
p1249
S'sympathy_and_emotional_support'
p1250
sS'508336669817184257'
p1251
S'other_useful_information'
p1252
sS'508344922198781952'
p1253
S'injured_or_dead_people'
p1254
sS'508334876093726720'
p1255
S'injured_or_dead_people'
p1256
sS'508345397379858432'
p1257
S'injured_or_dead_people'
p1258
sS'508334820737286144'
p1259
S'sympathy_and_emotional_support'
p1260
sS'508333783234260992'
p1261
S'other_useful_information'
p1262
sS'508336198637850624'
p1263
S'sympathy_and_emotional_support'
p1264
sS'508344941308035072'
p1265
S'donation_needs_or_offers_or_volunteering_services'
p1266
sS'508338060333821952'
p1267
S'donation_needs_or_offers_or_volunteering_services'
p1268
sS'508338014511448064'
p1269
S'other_useful_information'
p1270
sS'508342022173106176'
p1271
S'other_useful_information'
p1272
sS'508335081027821568'
p1273
S'infrastructure_and_utilities_damage'
p1274
sS'508333371114946560'
p1275
S'other_useful_information'
p1276
sS'508344643374034944'
p1277
S'donation_needs_or_offers_or_volunteering_services'
p1278
sS'508334205017661440'
p1279
S'donation_needs_or_offers_or_volunteering_services'
p1280
sS'508340376428498945'
p1281
S'infrastructure_and_utilities_damage'
p1282
sS'508332928817192960'
p1283
S'sympathy_and_emotional_support'
p1284
sS'508344962963222528'
p1285
S'donation_needs_or_offers_or_volunteering_services'
p1286
sS'508344145832726528'
p1287
S'other_useful_information'
p1288
sS'508345036619399169'
p1289
S'other_useful_information'
p1290
sS'508338172783124480'
p1291
S'other_useful_information'
p1292
sS'508333607698829312'
p1293
S'other_useful_information'
p1294
sS'508343435288662016'
p1295
S'other_useful_information'
p1296
sS'508342595039158272'
p1297
S'injured_or_dead_people'
p1298
sS'508334018639564801'
p1299
S'displaced_people_and_evacuations'
p1300
sS'508344321767378944'
p1301
S'infrastructure_and_utilities_damage'
p1302
sS'508333040125227008'
p1303
S'other_useful_information'
p1304
sS'508334160596201472'
p1305
S'displaced_people_and_evacuations'
p1306
sS'508334118380515328'
p1307
S'missing_trapped_or_found_people'
p1308
sS'508342693823787008'
p1309
S'other_useful_information'
p1310
sS'508339949373259776'
p1311
S'missing_trapped_or_found_people'
p1312
sS'508336443257679872'
p1313
S'donation_needs_or_offers_or_volunteering_services'
p1314
sS'508341905747619840'
p1315
S'other_useful_information'
p1316
sS'508342106897649664'
p1317
S'donation_needs_or_offers_or_volunteering_services'
p1318
sS'508343801719836672'
p1319
S'donation_needs_or_offers_or_volunteering_services'
p1320
sS'508339979018190848'
p1321
S'donation_needs_or_offers_or_volunteering_services'
p1322
sS'508342115156623360'
p1323
S'donation_needs_or_offers_or_volunteering_services'
p1324
sS'508344940321984512'
p1325
S'missing_trapped_or_found_people'
p1326
sS'508332809295912960'
p1327
S'other_useful_information'
p1328
sS'508332422765613056'
p1329
S'other_useful_information'
p1330
sS'508343153032568832'
p1331
S'other_useful_information'
p1332
sS'508333105573154816'
p1333
S'donation_needs_or_offers_or_volunteering_services'
p1334
sS'508337045081563138'
p1335
S'injured_or_dead_people'
p1336
sS'508339307803709440'
p1337
S'donation_needs_or_offers_or_volunteering_services'
p1338
sS'508340179825078274'
p1339
S'other_useful_information'
p1340
sS'508337430429437952'
p1341
S'donation_needs_or_offers_or_volunteering_services'
p1342
sS'508339354171744256'
p1343
S'infrastructure_and_utilities_damage'
p1344
sS'508344148811063296'
p1345
S'donation_needs_or_offers_or_volunteering_services'
p1346
sS'508343854219923456'
p1347
S'missing_trapped_or_found_people'
p1348
sS'508336061714821120'
p1349
S'caution_and_advice'
p1350
sS'508342963206762496'
p1351
S'donation_needs_or_offers_or_volunteering_services'
p1352
sS'508344104636276736'
p1353
S'injured_or_dead_people'
p1354
sS'508335574022123521'
p1355
S'infrastructure_and_utilities_damage'
p1356
sS'508333429943853056'
p1357
S'donation_needs_or_offers_or_volunteering_services'
p1358
sS'508335127479721984'
p1359
S'sympathy_and_emotional_support'
p1360
sS'508341170171572224'
p1361
S'donation_needs_or_offers_or_volunteering_services'
p1362
sS'508341773866127360'
p1363
S'other_useful_information'
p1364
sS'508338284154863617'
p1365
S'other_useful_information'
p1366
sS'508332372069064704'
p1367
S'missing_trapped_or_found_people'
p1368
sS'508336463755608064'
p1369
S'missing_trapped_or_found_people'
p1370
sS'508340621375844353'
p1371
S'other_useful_information'
p1372
sS'508341486623027200'
p1373
S'other_useful_information'
p1374
sS'508335541767516160'
p1375
S'other_useful_information'
p1376
sS'508334841340104704'
p1377
S'other_useful_information'
p1378
sS'508334328380551169'
p1379
S'donation_needs_or_offers_or_volunteering_services'
p1380
sS'508341291025842177'
p1381
S'donation_needs_or_offers_or_volunteering_services'
p1382
sS'508332834508242944'
p1383
S'donation_needs_or_offers_or_volunteering_services'
p1384
sS'508343201761984512'
p1385
S'caution_and_advice'
p1386
sS'508334757533327360'
p1387
S'donation_needs_or_offers_or_volunteering_services'
p1388
sS'508344520237654017'
p1389
S'missing_trapped_or_found_people'
p1390
sS'508334088470552576'
p1391
S'injured_or_dead_people'
p1392
sS'508332654383865856'
p1393
S'other_useful_information'
p1394
sS'508341705004044288'
p1395
S'other_useful_information'
p1396
sS'508341619687706624'
p1397
S'caution_and_advice'
p1398
sS'508334152916414464'
p1399
S'sympathy_and_emotional_support'
p1400
sS'508343913950629888'
p1401
S'injured_or_dead_people'
p1402
sS'508344823535763457'
p1403
S'sympathy_and_emotional_support'
p1404
sS'508332776198639616'
p1405
S'other_useful_information'
p1406
sS'508335164800237569'
p1407
S'other_useful_information'
p1408
sS'508336872842469376'
p1409
S'infrastructure_and_utilities_damage'
p1410
sS'508338676485459968'
p1411
S'other_useful_information'
p1412
sS'508343361833402368'
p1413
S'other_useful_information'
p1414
sS'508333548953407488'
p1415
S'other_useful_information'
p1416
sS'508333870324805632'
p1417
S'donation_needs_or_offers_or_volunteering_services'
p1418
sS'508338417709490176'
p1419
S'donation_needs_or_offers_or_volunteering_services'
p1420
sS'508344823380602880'
p1421
S'other_useful_information'
p1422
sS'508340186661412864'
p1423
S'injured_or_dead_people'
p1424
sS'508340324562137088'
p1425
S'other_useful_information'
p1426
sS'508340018705104897'
p1427
S'other_useful_information'
p1428
sS'508342024341553152'
p1429
S'donation_needs_or_offers_or_volunteering_services'
p1430
sS'508332477140590592'
p1431
S'displaced_people_and_evacuations'
p1432
sS'508336321794813952'
p1433
S'displaced_people_and_evacuations'
p1434
sS'508340951426027521'
p1435
S'injured_or_dead_people'
p1436
sS'508340141392281600'
p1437
S'other_useful_information'
p1438
sS'508335235398787072'
p1439
S'infrastructure_and_utilities_damage'
p1440
sS'508342269171085312'
p1441
S'missing_trapped_or_found_people'
p1442
sS'508336172268265472'
p1443
S'sympathy_and_emotional_support'
p1444
sS'508339107240902657'
p1445
S'injured_or_dead_people'
p1446
sS'508337916368535552'
p1447
S'other_useful_information'
p1448
sS'508343393622458368'
p1449
S'donation_needs_or_offers_or_volunteering_services'
p1450
sS'508334470010003456'
p1451
S'caution_and_advice'
p1452
sS'508344070096576514'
p1453
S'other_useful_information'
p1454
sS'508343228631105537'
p1455
S'donation_needs_or_offers_or_volunteering_services'
p1456
sS'508333006973456384'
p1457
S'displaced_people_and_evacuations'
p1458
sS'508337369985323008'
p1459
S'other_useful_information'
p1460
sS'508342505453416448'
p1461
S'other_useful_information'
p1462
sS'508335174518833152'
p1463
S'other_useful_information'
p1464
sS'508336461473935360'
p1465
S'other_useful_information'
p1466
sS'508342750907887617'
p1467
S'other_useful_information'
p1468
sS'508341103431389184'
p1469
S'other_useful_information'
p1470
sS'508344671542599680'
p1471
S'donation_needs_or_offers_or_volunteering_services'
p1472
sS'508338408914051072'
p1473
S'injured_or_dead_people'
p1474
sS'508334556613980162'
p1475
S'displaced_people_and_evacuations'
p1476
sS'508342812426108928'
p1477
S'other_useful_information'
p1478
sS'508339471998533632'
p1479
S'other_useful_information'
p1480
sS'508334310756081664'
p1481
S'donation_needs_or_offers_or_volunteering_services'
p1482
sS'508342222400389120'
p1483
S'donation_needs_or_offers_or_volunteering_services'
p1484
sS'508344755890425856'
p1485
S'other_useful_information'
p1486
sS'508344217379143680'
p1487
S'other_useful_information'
p1488
sS'508337506186567680'
p1489
S'sympathy_and_emotional_support'
p1490
sS'508341170422837248'
p1491
S'donation_needs_or_offers_or_volunteering_services'
p1492
sS'508340223130873857'
p1493
S'other_useful_information'
p1494
sS'508335605739032576'
p1495
S'other_useful_information'
p1496
sS'508340536353492992'
p1497
S'other_useful_information'
p1498
sS'508333403289047040'
p1499
S'donation_needs_or_offers_or_volunteering_services'
p1500
sS'508341075367313408'
p1501
S'other_useful_information'
p1502
sS'508337842540404736'
p1503
S'displaced_people_and_evacuations'
p1504
sS'508343227640868865'
p1505
S'caution_and_advice'
p1506
sS'508339595608481792'
p1507
S'other_useful_information'
p1508
sS'508345171474251777'
p1509
S'injured_or_dead_people'
p1510
sS'508342128263438336'
p1511
S'other_useful_information'
p1512
sS'508338325388677120'
p1513
S'injured_or_dead_people'
p1514
sS'508345041937784832'
p1515
S'other_useful_information'
p1516
sS'508335490592813056'
p1517
S'sympathy_and_emotional_support'
p1518
sS'508339550360727552'
p1519
S'donation_needs_or_offers_or_volunteering_services'
p1520
sS'508342433256456192'
p1521
S'other_useful_information'
p1522
sS'508332342717325312'
p1523
S'injured_or_dead_people'
p1524
sS'508342239001464832'
p1525
S'injured_or_dead_people'
p1526
sS'508340112024145920'
p1527
S'missing_trapped_or_found_people'
p1528
sS'508336960348635136'
p1529
S'displaced_people_and_evacuations'
p1530
sS'508336440594280449'
p1531
S'missing_trapped_or_found_people'
p1532
sS'508338982153756673'
p1533
S'caution_and_advice'
p1534
sS'508341797236801536'
p1535
S'other_useful_information'
p1536
sS'508344498670161920'
p1537
S'other_useful_information'
p1538
sS'508341297074409472'
p1539
S'donation_needs_or_offers_or_volunteering_services'
p1540
sS'508335903878557696'
p1541
S'injured_or_dead_people'
p1542
sS'508334018090131456'
p1543
S'other_useful_information'
p1544
sS'508335450738929665'
p1545
S'donation_needs_or_offers_or_volunteering_services'
p1546
sS'508337201932144641'
p1547
S'sympathy_and_emotional_support'
p1548
sS'508333764146384897'
p1549
S'displaced_people_and_evacuations'
p1550
sS'508332750038761473'
p1551
S'other_useful_information'
p1552
sS'508335604443000832'
p1553
S'missing_trapped_or_found_people'
p1554
sS'508333430283575296'
p1555
S'other_useful_information'
p1556
sS'508345365956161536'
p1557
S'infrastructure_and_utilities_damage'
p1558
sS'508342792372772865'
p1559
S'infrastructure_and_utilities_damage'
p1560
sS'508334904422055936'
p1561
S'missing_trapped_or_found_people'
p1562
sS'508343008014909440'
p1563
S'other_useful_information'
p1564
sS'508336953956130816'
p1565
S'sympathy_and_emotional_support'
p1566
sS'508334103523893248'
p1567
S'other_useful_information'
p1568
sS'508337425685311488'
p1569
S'injured_or_dead_people'
p1570
sS'508343391948521472'
p1571
S'donation_needs_or_offers_or_volunteering_services'
p1572
sS'508344227604856832'
p1573
S'donation_needs_or_offers_or_volunteering_services'
p1574
sS'508335396317437952'
p1575
S'sympathy_and_emotional_support'
p1576
sS'508342802338414592'
p1577
S'donation_needs_or_offers_or_volunteering_services'
p1578
sS'508338951623438337'
p1579
S'injured_or_dead_people'
p1580
sS'508342642518663168'
p1581
S'other_useful_information'
p1582
sS'508343028700819456'
p1583
S'donation_needs_or_offers_or_volunteering_services'
p1584
sS'508336798083579904'
p1585
S'sympathy_and_emotional_support'
p1586
sS'508339878023553024'
p1587
S'donation_needs_or_offers_or_volunteering_services'
p1588
sS'508338022837157888'
p1589
S'donation_needs_or_offers_or_volunteering_services'
p1590
sS'508344329585164288'
p1591
S'donation_needs_or_offers_or_volunteering_services'
p1592
sS'508345351095341056'
p1593
S'donation_needs_or_offers_or_volunteering_services'
p1594
sS'508335219410087936'
p1595
S'other_useful_information'
p1596
sS'508344686516248576'
p1597
S'other_useful_information'
p1598
sS'508337756389388290'
p1599
S'injured_or_dead_people'
p1600
sS'508332538608111616'
p1601
S'other_useful_information'
p1602
sS'508345108383944704'
p1603
S'other_useful_information'
p1604
sS'508332237591293952'
p1605
S'other_useful_information'
p1606
sS'508336266769752064'
p1607
S'donation_needs_or_offers_or_volunteering_services'
p1608
sS'508335092251365376'
p1609
S'other_useful_information'
p1610
sS'508333356258299904'
p1611
S'sympathy_and_emotional_support'
p1612
sS'508343795076046848'
p1613
S'donation_needs_or_offers_or_volunteering_services'
p1614
sS'508341599529488384'
p1615
S'displaced_people_and_evacuations'
p1616
sS'508333981579112449'
p1617
S'other_useful_information'
p1618
sS'508333198787371008'
p1619
S'donation_needs_or_offers_or_volunteering_services'
p1620
sS'508343367449579520'
p1621
S'donation_needs_or_offers_or_volunteering_services'
p1622
sS'508333555513303040'
p1623
S'other_useful_information'
p1624
sS'508333090008481792'
p1625
S'infrastructure_and_utilities_damage'
p1626
sS'508335122836238336'
p1627
S'injured_or_dead_people'
p1628
sS'508341223535288320'
p1629
S'other_useful_information'
p1630
sS'508335520402116609'
p1631
S'injured_or_dead_people'
p1632
sS'508336789308710913'
p1633
S'donation_needs_or_offers_or_volunteering_services'
p1634
sS'508335381222133760'
p1635
S'sympathy_and_emotional_support'
p1636
sS'508343638854627328'
p1637
S'donation_needs_or_offers_or_volunteering_services'
p1638
sS'508336666185302016'
p1639
S'sympathy_and_emotional_support'
p1640
sS'508335095887839232'
p1641
S'donation_needs_or_offers_or_volunteering_services'
p1642
sS'508335701788594176'
p1643
S'other_useful_information'
p1644
sS'508333975140438016'
p1645
S'donation_needs_or_offers_or_volunteering_services'
p1646
sS'508343801845657600'
p1647
S'donation_needs_or_offers_or_volunteering_services'
p1648
sS'508339916905136128'
p1649
S'other_useful_information'
p1650
sS'508333530254811136'
p1651
S'donation_needs_or_offers_or_volunteering_services'
p1652
sS'508334382529380352'
p1653
S'other_useful_information'
p1654
sS'508339868447940608'
p1655
S'other_useful_information'
p1656
sS'508345081212837888'
p1657
S'donation_needs_or_offers_or_volunteering_services'
p1658
sS'508343694114562048'
p1659
S'other_useful_information'
p1660
sS'508342894965837826'
p1661
S'other_useful_information'
p1662
sS'508335711943012352'
p1663
S'other_useful_information'
p1664
sS'508335211969794049'
p1665
S'donation_needs_or_offers_or_volunteering_services'
p1666
sS'508345277527625728'
p1667
S'injured_or_dead_people'
p1668
sS'508336425696100352'
p1669
S'donation_needs_or_offers_or_volunteering_services'
p1670
sS'508338463972659201'
p1671
S'sympathy_and_emotional_support'
p1672
sS'508344770989924353'
p1673
S'other_useful_information'
p1674
sS'508345127949983744'
p1675
S'donation_needs_or_offers_or_volunteering_services'
p1676
sS'508337757799084032'
p1677
S'other_useful_information'
p1678
sS'508342793526181889'
p1679
S'other_useful_information'
p1680
sS'508345166361419776'
p1681
S'other_useful_information'
p1682
sS'508335944844718080'
p1683
S'donation_needs_or_offers_or_volunteering_services'
p1684
sS'508338502652919808'
p1685
S'donation_needs_or_offers_or_volunteering_services'
p1686
sS'508335880008790016'
p1687
S'injured_or_dead_people'
p1688
sS'508344748721987584'
p1689
S'infrastructure_and_utilities_damage'
p1690
sS'508338263199711232'
p1691
S'other_useful_information'
p1692
sS'508342039898247168'
p1693
S'injured_or_dead_people'
p1694
sS'508340694818095105'
p1695
S'injured_or_dead_people'
p1696
sS'508343521632616448'
p1697
S'other_useful_information'
p1698
sS'508343110888595457'
p1699
S'missing_trapped_or_found_people'
p1700
sS'508345179271471104'
p1701
S'other_useful_information'
p1702
sS'508341941063258112'
p1703
S'missing_trapped_or_found_people'
p1704
sS'508342120189403137'
p1705
S'missing_trapped_or_found_people'
p1706
sS'508343412282490880'
p1707
S'missing_trapped_or_found_people'
p1708
sS'508342539347181568'
p1709
S'donation_needs_or_offers_or_volunteering_services'
p1710
sS'508334824105332736'
p1711
S'injured_or_dead_people'
p1712
sS'508338535745609728'
p1713
S'displaced_people_and_evacuations'
p1714
sS'508342516848934914'
p1715
S'other_useful_information'
p1716
sS'508340043065602048'
p1717
S'sympathy_and_emotional_support'
p1718
sS'508335975416606720'
p1719
S'other_useful_information'
p1720
sS'508341467144650752'
p1721
S'displaced_people_and_evacuations'
p1722
sS'508342202435522561'
p1723
S'other_useful_information'
p1724
sS'508341209580847104'
p1725
S'donation_needs_or_offers_or_volunteering_services'
p1726
sS'508342723972448257'
p1727
S'other_useful_information'
p1728
sS'508340567583899648'
p1729
S'missing_trapped_or_found_people'
p1730
sS'508338960779997184'
p1731
S'other_useful_information'
p1732
sS'508344081357873152'
p1733
S'donation_needs_or_offers_or_volunteering_services'
p1734
sS'508338169821949952'
p1735
S'injured_or_dead_people'
p1736
sS'508340322682687488'
p1737
S'other_useful_information'
p1738
sS'508333935454334976'
p1739
S'sympathy_and_emotional_support'
p1740
sS'508338852298104833'
p1741
S'sympathy_and_emotional_support'
p1742
sS'508340838603427841'
p1743
S'donation_needs_or_offers_or_volunteering_services'
p1744
sS'508335936070246401'
p1745
S'other_useful_information'
p1746
sS'508338873898782720'
p1747
S'donation_needs_or_offers_or_volunteering_services'
p1748
sS'508340130902319104'
p1749
S'donation_needs_or_offers_or_volunteering_services'
p1750
sS'508334470437810176'
p1751
S'other_useful_information'
p1752
sS'508336399020339200'
p1753
S'missing_trapped_or_found_people'
p1754
sS'508335238250905600'
p1755
S'donation_needs_or_offers_or_volunteering_services'
p1756
sS'508337562931716097'
p1757
S'other_useful_information'
p1758
sS'508336218846007296'
p1759
S'donation_needs_or_offers_or_volunteering_services'
p1760
sS'508336219256668161'
p1761
S'other_useful_information'
p1762
sS'508333071213400065'
p1763
S'donation_needs_or_offers_or_volunteering_services'
p1764
sS'508333027391717376'
p1765
S'missing_trapped_or_found_people'
p1766
sS'508342150967226368'
p1767
S'injured_or_dead_people'
p1768
sS'508338445748797440'
p1769
S'donation_needs_or_offers_or_volunteering_services'
p1770
sS'508345186997772288'
p1771
S'other_useful_information'
p1772
sS'508340218878259200'
p1773
S'other_useful_information'
p1774
sS'508334322081083393'
p1775
S'injured_or_dead_people'
p1776
sS'508342425866473473'
p1777
S'donation_needs_or_offers_or_volunteering_services'
p1778
sS'508338747222790144'
p1779
S'other_useful_information'
p1780
sS'508333331369701376'
p1781
S'injured_or_dead_people'
p1782
sS'508340243066400768'
p1783
S'other_useful_information'
p1784
sS'508333530791698432'
p1785
S'other_useful_information'
p1786
sS'508341404993855488'
p1787
S'other_useful_information'
p1788
sS'508337469688119296'
p1789
S'donation_needs_or_offers_or_volunteering_services'
p1790
sS'508341327906361344'
p1791
S'other_useful_information'
p1792
sS'508335067438272512'
p1793
S'donation_needs_or_offers_or_volunteering_services'
p1794
sS'508334387415379969'
p1795
S'other_useful_information'
p1796
sS'508345006500102144'
p1797
S'other_useful_information'
p1798
sS'508334363407159296'
p1799
S'donation_needs_or_offers_or_volunteering_services'
p1800
sS'508344867026522112'
p1801
S'donation_needs_or_offers_or_volunteering_services'
p1802
sS'508332834327904258'
p1803
S'other_useful_information'
p1804
sS'508341780786741248'
p1805
S'other_useful_information'
p1806
sS'508332342176677888'
p1807
S'injured_or_dead_people'
p1808
sS'508335593256808448'
p1809
S'other_useful_information'
p1810
sS'508341506151686144'
p1811
S'infrastructure_and_utilities_damage'
p1812
sS'508343404103598080'
p1813
S'injured_or_dead_people'
p1814
sS'508340373005942784'
p1815
S'other_useful_information'
p1816
sS'508342791555276800'
p1817
S'missing_trapped_or_found_people'
p1818
sS'508342087352197120'
p1819
S'donation_needs_or_offers_or_volunteering_services'
p1820
sS'508335778460483584'
p1821
S'other_useful_information'
p1822
sS'508342053126688768'
p1823
S'other_useful_information'
p1824
sS'508345027429289985'
p1825
S'injured_or_dead_people'
p1826
sS'508333591235809280'
p1827
S'injured_or_dead_people'
p1828
sS'508338004012716032'
p1829
S'displaced_people_and_evacuations'
p1830
sS'508340780012797952'
p1831
S'injured_or_dead_people'
p1832
sS'508338806857035776'
p1833
S'other_useful_information'
p1834
sS'508333100137725952'
p1835
S'missing_trapped_or_found_people'
p1836
sS'508344205836423168'
p1837
S'infrastructure_and_utilities_damage'
p1838
sS'508338574291238912'
p1839
S'injured_or_dead_people'
p1840
sS'508343078126895105'
p1841
S'other_useful_information'
p1842
sS'508336709525049344'
p1843
S'injured_or_dead_people'
p1844
sS'508333397216092160'
p1845
S'donation_needs_or_offers_or_volunteering_services'
p1846
sS'508333857423507456'
p1847
S'injured_or_dead_people'
p1848
sS'508339069408272384'
p1849
S'infrastructure_and_utilities_damage'
p1850
sS'508344904746278912'
p1851
S'injured_or_dead_people'
p1852
sS'508341681586851840'
p1853
S'injured_or_dead_people'
p1854
sS'508338269046571008'
p1855
S'missing_trapped_or_found_people'
p1856
sS'508339398325571584'
p1857
S'missing_trapped_or_found_people'
p1858
sS'508337158852067328'
p1859
S'other_useful_information'
p1860
sS'508334803444178944'
p1861
S'other_useful_information'
p1862
sS'508336924201734144'
p1863
S'donation_needs_or_offers_or_volunteering_services'
p1864
sS'508342648999272448'
p1865
S'injured_or_dead_people'
p1866
sS'508343308188663809'
p1867
S'other_useful_information'
p1868
sS'508336594529419264'
p1869
S'other_useful_information'
p1870
sS'508334816761114624'
p1871
S'displaced_people_and_evacuations'
p1872
sS'508332572988813312'
p1873
S'donation_needs_or_offers_or_volunteering_services'
p1874
sS'508339622422667264'
p1875
S'donation_needs_or_offers_or_volunteering_services'
p1876
sS'508343176956882944'
p1877
S'other_useful_information'
p1878
sS'508339425609547776'
p1879
S'missing_trapped_or_found_people'
p1880
sS'508332409847549953'
p1881
S'other_useful_information'
p1882
sS'508335860375240705'
p1883
S'other_useful_information'
p1884
sS'508336345886883840'
p1885
S'other_useful_information'
p1886
sS'508340444439146496'
p1887
S'other_useful_information'
p1888
sS'508343078868893697'
p1889
S'displaced_people_and_evacuations'
p1890
sS'508333488509288449'
p1891
S'other_useful_information'
p1892
sS'508339188383485952'
p1893
S'infrastructure_and_utilities_damage'
p1894
sS'508333521887170560'
p1895
S'other_useful_information'
p1896
sS'508345126842687488'
p1897
S'missing_trapped_or_found_people'
p1898
sS'508337895879352322'
p1899
S'sympathy_and_emotional_support'
p1900
sS'508336884658229248'
p1901
S'injured_or_dead_people'
p1902
sS'508345406871580672'
p1903
S'other_useful_information'
p1904
sS'508341336513081344'
p1905
S'injured_or_dead_people'
p1906
sS'508338790151094272'
p1907
S'caution_and_advice'
p1908
sS'508337573396484097'
p1909
S'donation_needs_or_offers_or_volunteering_services'
p1910
sS'508335183914094593'
p1911
S'donation_needs_or_offers_or_volunteering_services'
p1912
sS'508333301937868800'
p1913
S'missing_trapped_or_found_people'
p1914
sS'508336648438812673'
p1915
S'other_useful_information'
p1916
sS'508340349417181184'
p1917
S'other_useful_information'
p1918
sS'508339690441699328'
p1919
S'donation_needs_or_offers_or_volunteering_services'
p1920
sS'508340622457991168'
p1921
S'donation_needs_or_offers_or_volunteering_services'
p1922
sS'508336445430308864'
p1923
S'donation_needs_or_offers_or_volunteering_services'
p1924
sS'508340825487835136'
p1925
S'donation_needs_or_offers_or_volunteering_services'
p1926
sS'508340154012942336'
p1927
S'donation_needs_or_offers_or_volunteering_services'
p1928
sS'508334787690766337'
p1929
S'caution_and_advice'
p1930
sS'508333516283969536'
p1931
S'displaced_people_and_evacuations'
p1932
sS'508340401942429697'
p1933
S'displaced_people_and_evacuations'
p1934
sS'508338835281821696'
p1935
S'other_useful_information'
p1936
sS'508339063758536704'
p1937
S'donation_needs_or_offers_or_volunteering_services'
p1938
sS'508334464666058752'
p1939
S'injured_or_dead_people'
p1940
sS'508345227464417280'
p1941
S'injured_or_dead_people'
p1942
sS'508335513493700608'
p1943
S'injured_or_dead_people'
p1944
sS'508339234923491328'
p1945
S'donation_needs_or_offers_or_volunteering_services'
p1946
sS'508336185274421249'
p1947
S'donation_needs_or_offers_or_volunteering_services'
p1948
sS'508333192622141440'
p1949
S'other_useful_information'
p1950
sS'508345341453008896'
p1951
S'not_related_or_irrelevant'
p1952
sS'508332788152811520'
p1953
S'displaced_people_and_evacuations'
p1954
sS'508332595268947969'
p1955
S'other_useful_information'
p1956
sS'508344451647811584'
p1957
S'other_useful_information'
p1958
sS'508341030458900480'
p1959
S'sympathy_and_emotional_support'
p1960
sS'508336130937196544'
p1961
S'donation_needs_or_offers_or_volunteering_services'
p1962
sS'508339350523088896'
p1963
S'donation_needs_or_offers_or_volunteering_services'
p1964
sS'508339850161180672'
p1965
S'displaced_people_and_evacuations'
p1966
sS'508344527221166080'
p1967
S'injured_or_dead_people'
p1968
sS'508345235684876288'
p1969
S'other_useful_information'
p1970
sS'508335883314274304'
p1971
S'missing_trapped_or_found_people'
p1972
sS'508344170637824000'
p1973
S'caution_and_advice'
p1974
sS'508340991288705024'
p1975
S'other_useful_information'
p1976
sS'508341002810040320'
p1977
S'other_useful_information'
p1978
sS'508335119674146816'
p1979
S'donation_needs_or_offers_or_volunteering_services'
p1980
sS'508339713623986176'
p1981
S'other_useful_information'
p1982
sS'508332886995374080'
p1983
S'other_useful_information'
p1984
sS'508337510603579392'
p1985
S'other_useful_information'
p1986
sS'508337607495782400'
p1987
S'caution_and_advice'
p1988
sS'508344223595130880'
p1989
S'other_useful_information'
p1990
sS'508337361227247616'
p1991
S'donation_needs_or_offers_or_volunteering_services'
p1992
sS'508345380619448320'
p1993
S'sympathy_and_emotional_support'
p1994
sS'508342227458723840'
p1995
S'injured_or_dead_people'
p1996
sS'508342083808407552'
p1997
S'donation_needs_or_offers_or_volunteering_services'
p1998
sS'508339045982670848'
p1999
S'other_useful_information'
p2000
sS'508342069912674305'
p2001
S'other_useful_information'
p2002
sS'508337573932974080'
p2003
S'donation_needs_or_offers_or_volunteering_services'
p2004
sS'508338945965314048'
p2005
S'sympathy_and_emotional_support'
p2006
sS'508333591634640896'
p2007
S'injured_or_dead_people'
p2008
sS'508342463812358144'
p2009
S'infrastructure_and_utilities_damage'
p2010
sS'508337737058226176'
p2011
S'injured_or_dead_people'
p2012
sS'508343921848487936'
p2013
S'other_useful_information'
p2014
sS'508336240114933760'
p2015
S'infrastructure_and_utilities_damage'
p2016
sS'508337431876472832'
p2017
S'missing_trapped_or_found_people'
p2018
sS'508342617755885568'
p2019
S'other_useful_information'
p2020
sS'508340614010650624'
p2021
S'other_useful_information'
p2022
sS'508338624920698880'
p2023
S'other_useful_information'
p2024
sS'508336432079843328'
p2025
S'displaced_people_and_evacuations'
p2026
sS'508332815310520320'
p2027
S'other_useful_information'
p2028
sS'508335801579479040'
p2029
S'displaced_people_and_evacuations'
p2030
sS'508343723768311808'
p2031
S'other_useful_information'
p2032
sS'508335965547401216'
p2033
S'missing_trapped_or_found_people'
p2034
sS'508335520779231232'
p2035
S'other_useful_information'
p2036
sS'508332328004091904'
p2037
S'other_useful_information'
p2038
sS'508337105647321090'
p2039
S'other_useful_information'
p2040
sS'508335064497659905'
p2041
S'donation_needs_or_offers_or_volunteering_services'
p2042
sS'508335463724105728'
p2043
S'donation_needs_or_offers_or_volunteering_services'
p2044
sS'508337106234535936'
p2045
S'missing_trapped_or_found_people'
p2046
sS'508336171651710977'
p2047
S'sympathy_and_emotional_support'
p2048
sS'508334653803999232'
p2049
S'caution_and_advice'
p2050
sS'508334565438791680'
p2051
S'missing_trapped_or_found_people'
p2052
sS'508341476246315009'
p2053
S'other_useful_information'
p2054
sS'508339023782625280'
p2055
S'missing_trapped_or_found_people'
p2056
sS'508334229025853440'
p2057
S'displaced_people_and_evacuations'
p2058
sS'508332890338238465'
p2059
S'donation_needs_or_offers_or_volunteering_services'
p2060
sS'508333734865543169'
p2061
S'sympathy_and_emotional_support'
p2062
sS'508343600493502464'
p2063
S'other_useful_information'
p2064
sS'508334268905316352'
p2065
S'sympathy_and_emotional_support'
p2066
sS'508342274019717120'
p2067
S'not_related_or_irrelevant'
p2068
sS'508334293504884736'
p2069
S'injured_or_dead_people'
p2070
sS'508333749520834560'
p2071
S'injured_or_dead_people'
p2072
sS'508334902400405504'
p2073
S'other_useful_information'
p2074
sS'508335902733905920'
p2075
S'injured_or_dead_people'
p2076
sS'508343936440487936'
p2077
S'caution_and_advice'
p2078
sS'508334140123389952'
p2079
S'donation_needs_or_offers_or_volunteering_services'
p2080
sS'508338569853685761'
p2081
S'infrastructure_and_utilities_damage'
p2082
sS'508342519466184704'
p2083
S'donation_needs_or_offers_or_volunteering_services'
p2084
sS'508343983605813248'
p2085
S'other_useful_information'
p2086
sS'508334819030618113'
p2087
S'donation_needs_or_offers_or_volunteering_services'
p2088
sS'508344151222784000'
p2089
S'injured_or_dead_people'
p2090
sS'508344805559377920'
p2091
S'donation_needs_or_offers_or_volunteering_services'
p2092
sS'508333441457221632'
p2093
S'injured_or_dead_people'
p2094
sS'508342789021511680'
p2095
S'donation_needs_or_offers_or_volunteering_services'
p2096
sS'508344363907178496'
p2097
S'donation_needs_or_offers_or_volunteering_services'
p2098
sS'508343276085452800'
p2099
S'infrastructure_and_utilities_damage'
p2100
sS'508334794594209793'
p2101
S'other_useful_information'
p2102
sS'508332273280622592'
p2103
S'donation_needs_or_offers_or_volunteering_services'
p2104
sS'508334135531036672'
p2105
S'donation_needs_or_offers_or_volunteering_services'
p2106
sS'508338841032212480'
p2107
S'other_useful_information'
p2108
sS'508333386830577664'
p2109
S'other_useful_information'
p2110
sS'508336796799737857'
p2111
S'donation_needs_or_offers_or_volunteering_services'
p2112
sS'508343726813372417'
p2113
S'other_useful_information'
p2114
sS'508338882145189888'
p2115
S'other_useful_information'
p2116
sS'508334111170117634'
p2117
S'displaced_people_and_evacuations'
p2118
sS'508336557728624640'
p2119
S'other_useful_information'
p2120
sS'508334045185716224'
p2121
S'donation_needs_or_offers_or_volunteering_services'
p2122
sS'508340413464186880'
p2123
S'infrastructure_and_utilities_damage'
p2124
sS'508344970286080000'
p2125
S'other_useful_information'
p2126
sS'508341779775492096'
p2127
S'donation_needs_or_offers_or_volunteering_services'
p2128
sS'508332930700419072'
p2129
S'other_useful_information'
p2130
sS'508342935411494912'
p2131
S'missing_trapped_or_found_people'
p2132
sS'508333718885638144'
p2133
S'other_useful_information'
p2134
sS'508336387356377088'
p2135
S'other_useful_information'
p2136
sS'508341767297458176'
p2137
S'donation_needs_or_offers_or_volunteering_services'
p2138
sS'508335916943806464'
p2139
S'infrastructure_and_utilities_damage'
p2140
sS'508334923023785984'
p2141
S'injured_or_dead_people'
p2142
sS'508340590493569025'
p2143
S'donation_needs_or_offers_or_volunteering_services'
p2144
sS'508339467670011904'
p2145
S'other_useful_information'
p2146
sS'508339365672521728'
p2147
S'donation_needs_or_offers_or_volunteering_services'
p2148
sS'508337794465288192'
p2149
S'donation_needs_or_offers_or_volunteering_services'
p2150
sS'508345027509379072'
p2151
S'other_useful_information'
p2152
sS'508335241220464640'
p2153
S'donation_needs_or_offers_or_volunteering_services'
p2154
sS'508342458384920576'
p2155
S'injured_or_dead_people'
p2156
sS'508344565594460160'
p2157
S'other_useful_information'
p2158
sS'508334815767453696'
p2159
S'other_useful_information'
p2160
sS'508337892461006848'
p2161
S'donation_needs_or_offers_or_volunteering_services'
p2162
sS'508343969479008256'
p2163
S'donation_needs_or_offers_or_volunteering_services'
p2164
sS'508340809343987712'
p2165
S'injured_or_dead_people'
p2166
sS'508345134631911424'
p2167
S'not_related_or_irrelevant'
p2168
sS'508339941928345600'
p2169
S'sympathy_and_emotional_support'
p2170
sS'508340962494783488'
p2171
S'injured_or_dead_people'
p2172
sS'508340817849626624'
p2173
S'other_useful_information'
p2174
sS'508333940164550656'
p2175
S'injured_or_dead_people'
p2176
sS'508344526327787520'
p2177
S'other_useful_information'
p2178
sS'508344905559977984'
p2179
S'donation_needs_or_offers_or_volunteering_services'
p2180
sS'508334113841876992'
p2181
S'displaced_people_and_evacuations'
p2182
sS'508345155384913920'
p2183
S'other_useful_information'
p2184
sS'508336805377499137'
p2185
S'donation_needs_or_offers_or_volunteering_services'
p2186
sS'508342427632287744'
p2187
S'donation_needs_or_offers_or_volunteering_services'
p2188
sS'508340337954525184'
p2189
S'other_useful_information'
p2190
sS'508343958338953216'
p2191
S'injured_or_dead_people'
p2192
sS'508338327171252225'
p2193
S'donation_needs_or_offers_or_volunteering_services'
p2194
sS'508340441880600577'
p2195
S'other_useful_information'
p2196
sS'508336747353096192'
p2197
S'sympathy_and_emotional_support'
p2198
sS'508336845478821888'
p2199
S'injured_or_dead_people'
p2200
sS'508344519654666242'
p2201
S'caution_and_advice'
p2202
sS'508345091086618625'
p2203
S'other_useful_information'
p2204
sS'508339612709048320'
p2205
S'injured_or_dead_people'
p2206
sS'508343226777210880'
p2207
S'donation_needs_or_offers_or_volunteering_services'
p2208
sS'508341325171683328'
p2209
S'infrastructure_and_utilities_damage'
p2210
sS'508335225114329088'
p2211
S'donation_needs_or_offers_or_volunteering_services'
p2212
sS'508342728951083008'
p2213
S'donation_needs_or_offers_or_volunteering_services'
p2214
sS'508342749049802753'
p2215
S'donation_needs_or_offers_or_volunteering_services'
p2216
sS'508336721847943168'
p2217
S'other_useful_information'
p2218
sS'508334119282298880'
p2219
S'caution_and_advice'
p2220
sS'508341483506630656'
p2221
S'donation_needs_or_offers_or_volunteering_services'
p2222
sS'508335072508784640'
p2223
S'injured_or_dead_people'
p2224
sS'508335654674001920'
p2225
S'other_useful_information'
p2226
sS'508345276709363712'
p2227
S'not_related_or_irrelevant'
p2228
sS'508344954700058624'
p2229
S'displaced_people_and_evacuations'
p2230
sS'508341495376539648'
p2231
S'donation_needs_or_offers_or_volunteering_services'
p2232
sS'508335716934615040'
p2233
S'other_useful_information'
p2234
sS'508342259281313792'
p2235
S'infrastructure_and_utilities_damage'
p2236
sS'508343449306038272'
p2237
S'donation_needs_or_offers_or_volunteering_services'
p2238
sS'508334287578734592'
p2239
S'infrastructure_and_utilities_damage'
p2240
sS'508343499003936768'
p2241
S'caution_and_advice'
p2242
sS'508343851300311040'
p2243
S'infrastructure_and_utilities_damage'
p2244
sS'508336140458659840'
p2245
S'other_useful_information'
p2246
sS'508345349480513537'
p2247
S'injured_or_dead_people'
p2248
sS'508340549544599553'
p2249
S'other_useful_information'
p2250
sS'508336584211460096'
p2251
S'other_useful_information'
p2252
sS'508337359004258304'
p2253
S'other_useful_information'
p2254
sS'508338515848212480'
p2255
S'displaced_people_and_evacuations'
p2256
sS'508336236852150272'
p2257
S'missing_trapped_or_found_people'
p2258
sS'508332927349161984'
p2259
S'infrastructure_and_utilities_damage'
p2260
sS'508339385348005890'
p2261
S'caution_and_advice'
p2262
sS'508341487751294976'
p2263
S'displaced_people_and_evacuations'
p2264
sS'508333234434760704'
p2265
S'sympathy_and_emotional_support'
p2266
sS'508336485624733696'
p2267
S'sympathy_and_emotional_support'
p2268
sS'508344181992206337'
p2269
S'donation_needs_or_offers_or_volunteering_services'
p2270
sS'508333308216745984'
p2271
S'sympathy_and_emotional_support'
p2272
sS'508340650891554816'
p2273
S'other_useful_information'
p2274
sS'508343192781983744'
p2275
S'donation_needs_or_offers_or_volunteering_services'
p2276
sS'508335837033926657'
p2277
S'donation_needs_or_offers_or_volunteering_services'
p2278
sS'508342154670768128'
p2279
S'other_useful_information'
p2280
sS'508344377128022016'
p2281
S'injured_or_dead_people'
p2282
sS'508343286621171712'
p2283
S'not_related_or_irrelevant'
p2284
sS'508344673203945473'
p2285
S'missing_trapped_or_found_people'
p2286
sS'508332502600015872'
p2287
S'donation_needs_or_offers_or_volunteering_services'
p2288
sS'508343474148478976'
p2289
S'injured_or_dead_people'
p2290
sS'508342512449118208'
p2291
S'caution_and_advice'
p2292
sS'508344521642348544'
p2293
S'other_useful_information'
p2294
sS'508335033552486401'
p2295
S'other_useful_information'
p2296
sS'508342642552209408'
p2297
S'injured_or_dead_people'
p2298
sS'508336396029808640'
p2299
S'injured_or_dead_people'
p2300
sS'508340599552884736'
p2301
S'injured_or_dead_people'
p2302
sS'508337622725308416'
p2303
S'other_useful_information'
p2304
sS'508341016735539200'
p2305
S'donation_needs_or_offers_or_volunteering_services'
p2306
sS'508336783902670848'
p2307
S'donation_needs_or_offers_or_volunteering_services'
p2308
sS'508342609786327040'
p2309
S'injured_or_dead_people'
p2310
sS'508335798358245376'
p2311
S'displaced_people_and_evacuations'
p2312
sS'508342051092844544'
p2313
S'injured_or_dead_people'
p2314
sS'508340204160045056'
p2315
S'other_useful_information'
p2316
sS'508342384238014464'
p2317
S'other_useful_information'
p2318
sS'508338936385921025'
p2319
S'other_useful_information'
p2320
sS'508340192500277248'
p2321
S'sympathy_and_emotional_support'
p2322
sS'508336547448758272'
p2323
S'other_useful_information'
p2324
sS'508341454989975554'
p2325
S'caution_and_advice'
p2326
sS'508339970625376257'
p2327
S'caution_and_advice'
p2328
sS'508333923886067712'
p2329
S'injured_or_dead_people'
p2330
sS'508337407192993792'
p2331
S'missing_trapped_or_found_people'
p2332
sS'508339292259618816'
p2333
S'sympathy_and_emotional_support'
p2334
sS'508344794318635008'
p2335
S'displaced_people_and_evacuations'
p2336
sS'508342718863400960'
p2337
S'other_useful_information'
p2338
sS'508341600011833344'
p2339
S'injured_or_dead_people'
p2340
sS'508345086825226240'
p2341
S'donation_needs_or_offers_or_volunteering_services'
p2342
sS'508335581621788672'
p2343
S'donation_needs_or_offers_or_volunteering_services'
p2344
sS'508342753605201921'
p2345
S'injured_or_dead_people'
p2346
sS'508344448917319680'
p2347
S'sympathy_and_emotional_support'
p2348
sS'508333706143346688'
p2349
S'other_useful_information'
p2350
sS'508335830386360320'
p2351
S'other_useful_information'
p2352
sS'508335756637503488'
p2353
S'sympathy_and_emotional_support'
p2354
sS'508345243268579328'
p2355
S'injured_or_dead_people'
p2356
sS'508341501508583424'
p2357
S'donation_needs_or_offers_or_volunteering_services'
p2358
sS'508344505221644288'
p2359
S'injured_or_dead_people'
p2360
sS'508342340461682688'
p2361
S'other_useful_information'
p2362
sS'508338251095351296'
p2363
S'injured_or_dead_people'
p2364
sS'508333528950784000'
p2365
S'injured_or_dead_people'
p2366
sS'508343134133452800'
p2367
S'other_useful_information'
p2368
sS'508335400893812736'
p2369
S'donation_needs_or_offers_or_volunteering_services'
p2370
sS'508334230267772928'
p2371
S'other_useful_information'
p2372
sS'508339121320755200'
p2373
S'donation_needs_or_offers_or_volunteering_services'
p2374
sS'508333879715831808'
p2375
S'donation_needs_or_offers_or_volunteering_services'
p2376
sS'508342517599723520'
p2377
S'other_useful_information'
p2378
sS'508340351732416512'
p2379
S'other_useful_information'
p2380
sS'508341147924955136'
p2381
S'other_useful_information'
p2382
sS'508342165626290176'
p2383
S'other_useful_information'
p2384
sS'508342549711298560'
p2385
S'sympathy_and_emotional_support'
p2386
sS'508340741626925056'
p2387
S'caution_and_advice'
p2388
sS'508335056985661440'
p2389
S'sympathy_and_emotional_support'
p2390
sS'508336001597861891'
p2391
S'donation_needs_or_offers_or_volunteering_services'
p2392
sS'508341307354660864'
p2393
S'caution_and_advice'
p2394
sS'508341452842086400'
p2395
S'other_useful_information'
p2396
sS'508340313522720768'
p2397
S'donation_needs_or_offers_or_volunteering_services'
p2398
sS'508344296916148227'
p2399
S'donation_needs_or_offers_or_volunteering_services'
p2400
sS'508335562076332032'
p2401
S'other_useful_information'
p2402
sS'508342737352273920'
p2403
S'other_useful_information'
p2404
sS'508333192923721728'
p2405
S'other_useful_information'
p2406
sS'508336215506952192'
p2407
S'other_useful_information'
p2408
sS'508338960226332672'
p2409
S'donation_needs_or_offers_or_volunteering_services'
p2410
sS'508341577278705664'
p2411
S'sympathy_and_emotional_support'
p2412
sS'508336825438834688'
p2413
S'donation_needs_or_offers_or_volunteering_services'
p2414
sS'508339028383383552'
p2415
S'infrastructure_and_utilities_damage'
p2416
sS'508332653615927296'
p2417
S'injured_or_dead_people'
p2418
sS'508334717729382403'
p2419
S'donation_needs_or_offers_or_volunteering_services'
p2420
sS'508333105204051968'
p2421
S'donation_needs_or_offers_or_volunteering_services'
p2422
sS'508333241745432576'
p2423
S'other_useful_information'
p2424
sS'508340045061709824'
p2425
S'other_useful_information'
p2426
sS'508338970078355456'
p2427
S'donation_needs_or_offers_or_volunteering_services'
p2428
sS'508334496005881856'
p2429
S'other_useful_information'
p2430
sS'508344652974792704'
p2431
S'injured_or_dead_people'
p2432
sS'508341067406520320'
p2433
S'other_useful_information'
p2434
sS'508343546823184384'
p2435
S'injured_or_dead_people'
p2436
sS'508335622390431744'
p2437
S'donation_needs_or_offers_or_volunteering_services'
p2438
sS'508338588275060736'
p2439
S'donation_needs_or_offers_or_volunteering_services'
p2440
sS'508342860651831296'
p2441
S'other_useful_information'
p2442
sS'508332686763515905'
p2443
S'donation_needs_or_offers_or_volunteering_services'
p2444
sS'508343326387757056'
p2445
S'donation_needs_or_offers_or_volunteering_services'
p2446
sS'508336774297706496'
p2447
S'other_useful_information'
p2448
sS'508337763431616513'
p2449
S'donation_needs_or_offers_or_volunteering_services'
p2450
sS'508341003057508352'
p2451
S'other_useful_information'
p2452
sS'508334430457311232'
p2453
S'donation_needs_or_offers_or_volunteering_services'
p2454
sS'508342465007738880'
p2455
S'other_useful_information'
p2456
sS'508337270097989632'
p2457
S'other_useful_information'
p2458
sS'508343563261071360'
p2459
S'donation_needs_or_offers_or_volunteering_services'
p2460
sS'508337479360204800'
p2461
S'missing_trapped_or_found_people'
p2462
sS'508340785855492096'
p2463
S'donation_needs_or_offers_or_volunteering_services'
p2464
sS'508333618901426176'
p2465
S'injured_or_dead_people'
p2466
sS'508342958585044992'
p2467
S'donation_needs_or_offers_or_volunteering_services'
p2468
sS'508340143783018496'
p2469
S'other_useful_information'
p2470
sS'508341672971743232'
p2471
S'donation_needs_or_offers_or_volunteering_services'
p2472
sS'508343185790103553'
p2473
S'donation_needs_or_offers_or_volunteering_services'
p2474
sS'508345211588984832'
p2475
S'donation_needs_or_offers_or_volunteering_services'
p2476
sS'508339912119054336'
p2477
S'injured_or_dead_people'
p2478
sS'508334963024879616'
p2479
S'other_useful_information'
p2480
sS'508333784190578688'
p2481
S'donation_needs_or_offers_or_volunteering_services'
p2482
sS'508335557320003584'
p2483
S'donation_needs_or_offers_or_volunteering_services'
p2484
sS'508344466319888385'
p2485
S'other_useful_information'
p2486
sS'508340481848532992'
p2487
S'sympathy_and_emotional_support'
p2488
sS'508332623928639488'
p2489
S'missing_trapped_or_found_people'
p2490
sS'508340208979677184'
p2491
S'displaced_people_and_evacuations'
p2492
sS'508340046445813761'
p2493
S'caution_and_advice'
p2494
sS'508335457671733248'
p2495
S'sympathy_and_emotional_support'
p2496
sS'508338029455745024'
p2497
S'donation_needs_or_offers_or_volunteering_services'
p2498
sS'508340393461571584'
p2499
S'infrastructure_and_utilities_damage'
p2500
sS'508334838362165248'
p2501
S'infrastructure_and_utilities_damage'
p2502
sS'508341077376372736'
p2503
S'donation_needs_or_offers_or_volunteering_services'
p2504
sS'508333874599170048'
p2505
S'missing_trapped_or_found_people'
p2506
sS'508340037428064256'
p2507
S'injured_or_dead_people'
p2508
sS'508337344328372224'
p2509
S'donation_needs_or_offers_or_volunteering_services'
p2510
sS'508334978481287168'
p2511
S'other_useful_information'
p2512
sS'508336747563200512'
p2513
S'injured_or_dead_people'
p2514
sS'508332905035079680'
p2515
S'other_useful_information'
p2516
sS'508342653176393728'
p2517
S'other_useful_information'
p2518
sS'508335879736152065'
p2519
S'other_useful_information'
p2520
sS'508338078407467009'
p2521
S'other_useful_information'
p2522
sS'508339039347298304'
p2523
S'donation_needs_or_offers_or_volunteering_services'
p2524
sS'508341777016041472'
p2525
S'other_useful_information'
p2526
sS'508341039170478080'
p2527
S'injured_or_dead_people'
p2528
sS'508341490766999552'
p2529
S'donation_needs_or_offers_or_volunteering_services'
p2530
sS'508338084690161664'
p2531
S'injured_or_dead_people'
p2532
sS'508344394169061376'
p2533
S'missing_trapped_or_found_people'
p2534
sS'508341993710166017'
p2535
S'other_useful_information'
p2536
sS'508343902307622912'
p2537
S'other_useful_information'
p2538
sS'508343549935378433'
p2539
S'other_useful_information'
p2540
sS'508339480731078656'
p2541
S'injured_or_dead_people'
p2542
sS'508340603789135872'
p2543
S'other_useful_information'
p2544
sS'508334463692988417'
p2545
S'other_useful_information'
p2546
sS'508335196090138624'
p2547
S'donation_needs_or_offers_or_volunteering_services'
p2548
sS'508342275651686400'
p2549
S'missing_trapped_or_found_people'
p2550
sS'508335166054748160'
p2551
S'donation_needs_or_offers_or_volunteering_services'
p2552
sS'508335234752851968'
p2553
S'caution_and_advice'
p2554
sS'508340393075671040'
p2555
S'donation_needs_or_offers_or_volunteering_services'
p2556
sS'508344916204724224'
p2557
S'other_useful_information'
p2558
sS'508339184428670977'
p2559
S'sympathy_and_emotional_support'
p2560
sS'508341218065915904'
p2561
S'donation_needs_or_offers_or_volunteering_services'
p2562
sS'508341164106579968'
p2563
S'other_useful_information'
p2564
sS'508335188250984448'
p2565
S'displaced_people_and_evacuations'
p2566
sS'508336139317428224'
p2567
S'other_useful_information'
p2568
sS'508341553044021248'
p2569
S'other_useful_information'
p2570
sS'508340125093609472'
p2571
S'missing_trapped_or_found_people'
p2572
sS'508343541157097472'
p2573
S'other_useful_information'
p2574
sS'508338455785795585'
p2575
S'injured_or_dead_people'
p2576
sS'508340397392007168'
p2577
S'other_useful_information'
p2578
sS'508335652216131584'
p2579
S'donation_needs_or_offers_or_volunteering_services'
p2580
sS'508340375069523969'
p2581
S'other_useful_information'
p2582
sS'508333351355162624'
p2583
S'displaced_people_and_evacuations'
p2584
sS'508335101692755969'
p2585
S'donation_needs_or_offers_or_volunteering_services'
p2586
sS'508345166277935104'
p2587
S'donation_needs_or_offers_or_volunteering_services'
p2588
sS'508342058512547840'
p2589
S'caution_and_advice'
p2590
sS'508344010407419904'
p2591
S'donation_needs_or_offers_or_volunteering_services'
p2592
sS'508335865018318849'
p2593
S'infrastructure_and_utilities_damage'
p2594
sS'508342111188443136'
p2595
S'missing_trapped_or_found_people'
p2596
sS'508335476609404928'
p2597
S'injured_or_dead_people'
p2598
sS'508341174412013569'
p2599
S'donation_needs_or_offers_or_volunteering_services'
p2600
sS'508336923941670912'
p2601
S'injured_or_dead_people'
p2602
sS'508335958433878016'
p2603
S'missing_trapped_or_found_people'
p2604
sS'508335808009351170'
p2605
S'donation_needs_or_offers_or_volunteering_services'
p2606
sS'508333758932467712'
p2607
S'caution_and_advice'
p2608
sS'508336314220314624'
p2609
S'donation_needs_or_offers_or_volunteering_services'
p2610
sS'508338167531839488'
p2611
S'other_useful_information'
p2612
sS'508345401641295874'
p2613
S'other_useful_information'
p2614
sS'508341696464031744'
p2615
S'other_useful_information'
p2616
sS'508334807848599553'
p2617
S'other_useful_information'
p2618
sS'508340755879194624'
p2619
S'not_related_or_irrelevant'
p2620
sS'508342441750331392'
p2621
S'other_useful_information'
p2622
sS'508337972413214720'
p2623
S'other_useful_information'
p2624
sS'508332612855685120'
p2625
S'missing_trapped_or_found_people'
p2626
sS'508336826671562752'
p2627
S'infrastructure_and_utilities_damage'
p2628
sS'508337541460664320'
p2629
S'other_useful_information'
p2630
sS'508343407442280448'
p2631
S'donation_needs_or_offers_or_volunteering_services'
p2632
sS'508338472646496257'
p2633
S'injured_or_dead_people'
p2634
sS'508334797773475841'
p2635
S'injured_or_dead_people'
p2636
sS'508334828463611904'
p2637
S'donation_needs_or_offers_or_volunteering_services'
p2638
sS'508336794828804097'
p2639
S'donation_needs_or_offers_or_volunteering_services'
p2640
sS'508344813972774912'
p2641
S'sympathy_and_emotional_support'
p2642
sS'508341349465464832'
p2643
S'other_useful_information'
p2644
sS'508341039447683072'
p2645
S'other_useful_information'
p2646
sS'508333000745316352'
p2647
S'donation_needs_or_offers_or_volunteering_services'
p2648
sS'508336711781593088'
p2649
S'donation_needs_or_offers_or_volunteering_services'
p2650
sS'508336239305449472'
p2651
S'other_useful_information'
p2652
sS'508340510554345472'
p2653
S'missing_trapped_or_found_people'
p2654
sS'508333166403149824'
p2655
S'other_useful_information'
p2656
sS'508338171399000064'
p2657
S'other_useful_information'
p2658
sS'508342501158424576'
p2659
S'caution_and_advice'
p2660
sS'508336751568355328'
p2661
S'other_useful_information'
p2662
sS'508341271065534464'
p2663
S'sympathy_and_emotional_support'
p2664
sS'508338936150646786'
p2665
S'other_useful_information'
p2666
sS'508339869525884928'
p2667
S'donation_needs_or_offers_or_volunteering_services'
p2668
sS'508343100264042496'
p2669
S'donation_needs_or_offers_or_volunteering_services'
p2670
sS'508336295844655106'
p2671
S'infrastructure_and_utilities_damage'
p2672
sS'508334203596197888'
p2673
S'other_useful_information'
p2674
sS'508338425679069185'
p2675
S'donation_needs_or_offers_or_volunteering_services'
p2676
sS'508339977311105025'
p2677
S'injured_or_dead_people'
p2678
sS'508345381382414336'
p2679
S'other_useful_information'
p2680
sS'508334170200735744'
p2681
S'other_useful_information'
p2682
sS'508342550923853824'
p2683
S'donation_needs_or_offers_or_volunteering_services'
p2684
sS'508341965742952450'
p2685
S'donation_needs_or_offers_or_volunteering_services'
p2686
sS'508344320022155264'
p2687
S'other_useful_information'
p2688
sS'508341657470001152'
p2689
S'other_useful_information'
p2690
sS'508342108587970561'
p2691
S'other_useful_information'
p2692
sS'508332524200673281'
p2693
S'injured_or_dead_people'
p2694
sS'508340141283233792'
p2695
S'other_useful_information'
p2696
sS'508342817047859200'
p2697
S'injured_or_dead_people'
p2698
sS'508336902580494337'
p2699
S'missing_trapped_or_found_people'
p2700
sS'508339698855866368'
p2701
S'infrastructure_and_utilities_damage'
p2702
sS'508343293181046784'
p2703
S'displaced_people_and_evacuations'
p2704
sS'508343316791193600'
p2705
S'missing_trapped_or_found_people'
p2706
sS'508341724062568448'
p2707
S'injured_or_dead_people'
p2708
sS'508336014343933953'
p2709
S'other_useful_information'
p2710
sS'508338920497508352'
p2711
S'displaced_people_and_evacuations'
p2712
sS'508334406038454272'
p2713
S'other_useful_information'
p2714
sS'508335665088847872'
p2715
S'infrastructure_and_utilities_damage'
p2716
sS'508340614954749952'
p2717
S'donation_needs_or_offers_or_volunteering_services'
p2718
sS'508344276866985984'
p2719
S'injured_or_dead_people'
p2720
sS'508339347880292352'
p2721
S'other_useful_information'
p2722
sS'508336875908907008'
p2723
S'missing_trapped_or_found_people'
p2724
sS'508334302585577472'
p2725
S'donation_needs_or_offers_or_volunteering_services'
p2726
sS'508338658819440640'
p2727
S'donation_needs_or_offers_or_volunteering_services'
p2728
sS'508337859959341056'
p2729
S'donation_needs_or_offers_or_volunteering_services'
p2730
sS'508337361369833472'
p2731
S'sympathy_and_emotional_support'
p2732
sS'508342303899926529'
p2733
S'donation_needs_or_offers_or_volunteering_services'
p2734
sS'508344040031391744'
p2735
S'caution_and_advice'
p2736
sS'508343897999695872'
p2737
S'donation_needs_or_offers_or_volunteering_services'
p2738
sS'508332520103243776'
p2739
S'donation_needs_or_offers_or_volunteering_services'
p2740
sS'508334958205603840'
p2741
S'other_useful_information'
p2742
sS'508336495254458369'
p2743
S'donation_needs_or_offers_or_volunteering_services'
p2744
sS'508336817767084032'
p2745
S'other_useful_information'
p2746
sS'508344183984513024'
p2747
S'other_useful_information'
p2748
sS'508339400447492097'
p2749
S'other_useful_information'
p2750
sS'508345046018428928'
p2751
S'sympathy_and_emotional_support'
p2752
sS'508344294957019136'
p2753
S'caution_and_advice'
p2754
sS'508337862371463168'
p2755
S'injured_or_dead_people'
p2756
sS'508338624778088449'
p2757
S'missing_trapped_or_found_people'
p2758
sS'508343493010272257'
p2759
S'injured_or_dead_people'
p2760
sS'508337408002506753'
p2761
S'injured_or_dead_people'
p2762
sS'508339332340387840'
p2763
S'donation_needs_or_offers_or_volunteering_services'
p2764
sS'508339458450939904'
p2765
S'other_useful_information'
p2766
sS'508344790053027840'
p2767
S'donation_needs_or_offers_or_volunteering_services'
p2768
sS'508338601747161088'
p2769
S'other_useful_information'
p2770
sS'508336159584714752'
p2771
S'missing_trapped_or_found_people'
p2772
sS'508340094135066624'
p2773
S'other_useful_information'
p2774
sS'508333446876233728'
p2775
S'donation_needs_or_offers_or_volunteering_services'
p2776
sS'508337284476043265'
p2777
S'donation_needs_or_offers_or_volunteering_services'
p2778
sS'508339228124532736'
p2779
S'donation_needs_or_offers_or_volunteering_services'
p2780
sS'508341737463357440'
p2781
S'infrastructure_and_utilities_damage'
p2782
sS'508340295126106112'
p2783
S'infrastructure_and_utilities_damage'
p2784
sS'508333245784539136'
p2785
S'displaced_people_and_evacuations'
p2786
sS'508343949350563841'
p2787
S'other_useful_information'
p2788
sS'508332944432566272'
p2789
S'other_useful_information'
p2790
sS'508343952269799424'
p2791
S'displaced_people_and_evacuations'
p2792
sS'508338475184431104'
p2793
S'other_useful_information'
p2794
sS'508343158229323777'
p2795
S'donation_needs_or_offers_or_volunteering_services'
p2796
sS'508344619818835968'
p2797
S'displaced_people_and_evacuations'
p2798
sS'508337454764793856'
p2799
S'sympathy_and_emotional_support'
p2800
sS'508337674797608960'
p2801
S'other_useful_information'
p2802
sS'508332473583808512'
p2803
S'donation_needs_or_offers_or_volunteering_services'
p2804
sS'508333474621575168'
p2805
S'other_useful_information'
p2806
sS'508343163162198016'
p2807
S'other_useful_information'
p2808
sS'508343980040265729'
p2809
S'infrastructure_and_utilities_damage'
p2810
sS'508343927028875264'
p2811
S'other_useful_information'
p2812
sS'508342644007661568'
p2813
S'donation_needs_or_offers_or_volunteering_services'
p2814
sS'508337289278144513'
p2815
S'missing_trapped_or_found_people'
p2816
sS'508338488669143040'
p2817
S'sympathy_and_emotional_support'
p2818
sS'508340309315424256'
p2819
S'other_useful_information'
p2820
sS'508338397463580672'
p2821
S'other_useful_information'
p2822
sS'508336342020132864'
p2823
S'donation_needs_or_offers_or_volunteering_services'
p2824
sS'508333292072865792'
p2825
S'other_useful_information'
p2826
sS'508343973958520832'
p2827
S'other_useful_information'
p2828
sS'508339646116290560'
p2829
S'missing_trapped_or_found_people'
p2830
sS'508337948677263360'
p2831
S'donation_needs_or_offers_or_volunteering_services'
p2832
sS'508344096914952193'
p2833
S'caution_and_advice'
p2834
sS'508339676412125184'
p2835
S'displaced_people_and_evacuations'
p2836
sS'508334628068130816'
p2837
S'donation_needs_or_offers_or_volunteering_services'
p2838
sS'508332811359485953'
p2839
S'donation_needs_or_offers_or_volunteering_services'
p2840
sS'508345165614821376'
p2841
S'infrastructure_and_utilities_damage'
p2842
sS'508332198714294272'
p2843
S'donation_needs_or_offers_or_volunteering_services'
p2844
sS'508336762351927296'
p2845
S'other_useful_information'
p2846
sS'508342726622859264'
p2847
S'sympathy_and_emotional_support'
p2848
sS'508340330664849408'
p2849
S'infrastructure_and_utilities_damage'
p2850
sS'508335013247459328'
p2851
S'donation_needs_or_offers_or_volunteering_services'
p2852
sS'508339840598155265'
p2853
S'injured_or_dead_people'
p2854
sS'508341419980103681'
p2855
S'donation_needs_or_offers_or_volunteering_services'
p2856
sS'508344769085308928'
p2857
S'donation_needs_or_offers_or_volunteering_services'
p2858
sS'508335825516388352'
p2859
S'other_useful_information'
p2860
sS'508345056454262784'
p2861
S'injured_or_dead_people'
p2862
sS'508344069752229888'
p2863
S'donation_needs_or_offers_or_volunteering_services'
p2864
sS'508335901827538945'
p2865
S'donation_needs_or_offers_or_volunteering_services'
p2866
sS'508344550922805248'
p2867
S'other_useful_information'
p2868
sS'508338864457789440'
p2869
S'caution_and_advice'
p2870
sS'508343071818661888'
p2871
S'injured_or_dead_people'
p2872
sS'508341476602834944'
p2873
S'other_useful_information'
p2874
sS'508340139144138752'
p2875
S'other_useful_information'
p2876
sS'508333243696185344'
p2877
S'caution_and_advice'
p2878
sS'508341767058763776'
p2879
S'donation_needs_or_offers_or_volunteering_services'
p2880
sS'508340687658438657'
p2881
S'sympathy_and_emotional_support'
p2882
sS'508337950497599489'
p2883
S'donation_needs_or_offers_or_volunteering_services'
p2884
sS'508336161736364032'
p2885
S'injured_or_dead_people'
p2886
sS'508340969498886144'
p2887
S'donation_needs_or_offers_or_volunteering_services'
p2888
sS'508342889416765440'
p2889
S'donation_needs_or_offers_or_volunteering_services'
p2890
sS'508340782814617600'
p2891
S'sympathy_and_emotional_support'
p2892
sS'508336268850114560'
p2893
S'sympathy_and_emotional_support'
p2894
sS'508341871060320256'
p2895
S'displaced_people_and_evacuations'
p2896
sS'508339177587363840'
p2897
S'donation_needs_or_offers_or_volunteering_services'
p2898
sS'508335164909703168'
p2899
S'injured_or_dead_people'
p2900
sS'508332752916078592'
p2901
S'other_useful_information'
p2902
sS'508332396911923202'
p2903
S'missing_trapped_or_found_people'
p2904
sS'508343963149807616'
p2905
S'donation_needs_or_offers_or_volunteering_services'
p2906
sS'508339003427680256'
p2907
S'sympathy_and_emotional_support'
p2908
sS'508338747222810624'
p2909
S'displaced_people_and_evacuations'
p2910
sS'508344774529527808'
p2911
S'other_useful_information'
p2912
sS'508341237313994753'
p2913
S'donation_needs_or_offers_or_volunteering_services'
p2914
sS'508335937726599168'
p2915
S'other_useful_information'
p2916
sS'508338139711025152'
p2917
S'other_useful_information'
p2918
sS'508336639379136513'
p2919
S'injured_or_dead_people'
p2920
sS'508335194277810176'
p2921
S'other_useful_information'
p2922
sS'508338108631224320'
p2923
S'not_related_or_irrelevant'
p2924
sS'508339632267083776'
p2925
S'missing_trapped_or_found_people'
p2926
sS'508341525349015552'
p2927
S'donation_needs_or_offers_or_volunteering_services'
p2928
sS'508336929268826112'
p2929
S'sympathy_and_emotional_support'
p2930
sS'508337217199419392'
p2931
S'other_useful_information'
p2932
sS'508337280759521280'
p2933
S'donation_needs_or_offers_or_volunteering_services'
p2934
sS'508334102869979137'
p2935
S'donation_needs_or_offers_or_volunteering_services'
p2936
sS'508340946870996992'
p2937
S'caution_and_advice'
p2938
sS'508334503405056000'
p2939
S'donation_needs_or_offers_or_volunteering_services'
p2940
sS'508332372027125760'
p2941
S'sympathy_and_emotional_support'
p2942
sS'508345318463639553'
p2943
S'donation_needs_or_offers_or_volunteering_services'
p2944
sS'508335133343363072'
p2945
S'donation_needs_or_offers_or_volunteering_services'
p2946
sS'508332184613027840'
p2947
S'injured_or_dead_people'
p2948
sS'508333031602798592'
p2949
S'injured_or_dead_people'
p2950
sS'508341853620809728'
p2951
S'other_useful_information'
p2952
sS'508342128452583426'
p2953
S'donation_needs_or_offers_or_volunteering_services'
p2954
sS'508343897588641793'
p2955
S'other_useful_information'
p2956
sS'508337369398136832'
p2957
S'other_useful_information'
p2958
sS'508337398800216064'
p2959
S'other_useful_information'
p2960
sS'508338064901828608'
p2961
S'other_useful_information'
p2962
sS'508335819799953408'
p2963
S'infrastructure_and_utilities_damage'
p2964
sS'508343233248641026'
p2965
S'missing_trapped_or_found_people'
p2966
sS'508334183379263489'
p2967
S'infrastructure_and_utilities_damage'
p2968
sS'508341455488700416'
p2969
S'other_useful_information'
p2970
sS'508336937581969409'
p2971
S'donation_needs_or_offers_or_volunteering_services'
p2972
sS'508335965820436480'
p2973
S'injured_or_dead_people'
p2974
sS'508337098575728642'
p2975
S'other_useful_information'
p2976
sS'508343407417110528'
p2977
S'other_useful_information'
p2978
sS'508344417577472000'
p2979
S'missing_trapped_or_found_people'
p2980
sS'508337442806456321'
p2981
S'not_related_or_irrelevant'
p2982
sS'508336966094426112'
p2983
S'other_useful_information'
p2984
sS'508341211690590208'
p2985
S'sympathy_and_emotional_support'
p2986
sS'508334826164736000'
p2987
S'other_useful_information'
p2988
sS'508339621554839552'
p2989
S'donation_needs_or_offers_or_volunteering_services'
p2990
sS'508340028691337216'
p2991
S'other_useful_information'
p2992
sS'508341474480496640'
p2993
S'donation_needs_or_offers_or_volunteering_services'
p2994
sS'508338754143023104'
p2995
S'sympathy_and_emotional_support'
p2996
sS'508334400866897921'
p2997
S'other_useful_information'
p2998
sS'508337263173193728'
p2999
S'other_useful_information'
p3000
sS'508336702113337344'
p3001
S'sympathy_and_emotional_support'
p3002
sS'508341449100763136'
p3003
S'other_useful_information'
p3004
sS'508333794395701248'
p3005
S'other_useful_information'
p3006
sS'508344002828320768'
p3007
S'other_useful_information'
p3008
sS'508337620934328320'
p3009
S'donation_needs_or_offers_or_volunteering_services'
p3010
sS'508335344211599360'
p3011
S'sympathy_and_emotional_support'
p3012
sS'508342696725868546'
p3013
S'other_useful_information'
p3014
sS'508332579150254081'
p3015
S'injured_or_dead_people'
p3016
sS'508334439660019713'
p3017
S'other_useful_information'
p3018
sS'508337347982000130'
p3019
S'displaced_people_and_evacuations'
p3020
sS'508333421735604224'
p3021
S'injured_or_dead_people'
p3022
sS'508337584549142528'
p3023
S'injured_or_dead_people'
p3024
sS'508341872050601984'
p3025
S'other_useful_information'
p3026
sS'508337619248222209'
p3027
S'infrastructure_and_utilities_damage'
p3028
sS'508336770996379648'
p3029
S'injured_or_dead_people'
p3030
sS'508341392561930240'
p3031
S'sympathy_and_emotional_support'
p3032
sS'508333450169188353'
p3033
S'other_useful_information'
p3034
sS'508339928388739072'
p3035
S'other_useful_information'
p3036
sS'508334650490494976'
p3037
S'other_useful_information'
p3038
sS'508337417539969024'
p3039
S'sympathy_and_emotional_support'
p3040
sS'508336291550089216'
p3041
S'displaced_people_and_evacuations'
p3042
sS'508333666548723712'
p3043
S'missing_trapped_or_found_people'
p3044
sS'508340137906823168'
p3045
S'donation_needs_or_offers_or_volunteering_services'
p3046
sS'508344023426539522'
p3047
S'displaced_people_and_evacuations'
p3048
sS'508337078656978944'
p3049
S'missing_trapped_or_found_people'
p3050
sS'508336057017180161'
p3051
S'missing_trapped_or_found_people'
p3052
sS'508343576321748992'
p3053
S'donation_needs_or_offers_or_volunteering_services'
p3054
sS'508339197006974976'
p3055
S'sympathy_and_emotional_support'
p3056
sS'508334547411271680'
p3057
S'other_useful_information'
p3058
sS'508341796020056064'
p3059
S'donation_needs_or_offers_or_volunteering_services'
p3060
sS'508345362613276672'
p3061
S'injured_or_dead_people'
p3062
sS'508337214649278464'
p3063
S'other_useful_information'
p3064
sS'508343946922438656'
p3065
S'donation_needs_or_offers_or_volunteering_services'
p3066
sS'508334918821093376'
p3067
S'donation_needs_or_offers_or_volunteering_services'
p3068
sS'508340761457606657'
p3069
S'donation_needs_or_offers_or_volunteering_services'
p3070
sS'508334425118351360'
p3071
S'other_useful_information'
p3072
sS'508341087245590529'
p3073
S'donation_needs_or_offers_or_volunteering_services'
p3074
sS'508334174088859648'
p3075
S'donation_needs_or_offers_or_volunteering_services'
p3076
sS'508344879919816705'
p3077
S'infrastructure_and_utilities_damage'
p3078
sS'508339825565368320'
p3079
S'donation_needs_or_offers_or_volunteering_services'
p3080
sS'508332607675695104'
p3081
S'injured_or_dead_people'
p3082
sS'508332742879105025'
p3083
S'displaced_people_and_evacuations'
p3084
sS'508336042001190912'
p3085
S'injured_or_dead_people'
p3086
sS'508336425868091392'
p3087
S'infrastructure_and_utilities_damage'
p3088
sS'508337306747424768'
p3089
S'donation_needs_or_offers_or_volunteering_services'
p3090
sS'508335421260963840'
p3091
S'not_related_or_irrelevant'
p3092
sS'508334082250768384'
p3093
S'injured_or_dead_people'
p3094
sS'508344530324570112'
p3095
S'other_useful_information'
p3096
sS'508342245268131840'
p3097
S'injured_or_dead_people'
p3098
sS'508343310847467521'
p3099
S'donation_needs_or_offers_or_volunteering_services'
p3100
sS'508336393529999360'
p3101
S'missing_trapped_or_found_people'
p3102
sS'508335946408812544'
p3103
S'donation_needs_or_offers_or_volunteering_services'
p3104
sS'508341369371643907'
p3105
S'donation_needs_or_offers_or_volunteering_services'
p3106
sS'508334306184290304'
p3107
S'not_related_or_irrelevant'
p3108
sS'508340711516016640'
p3109
S'injured_or_dead_people'
p3110
sS'508340191673999361'
p3111
S'donation_needs_or_offers_or_volunteering_services'
p3112
sS'508344680418119681'
p3113
S'other_useful_information'
p3114
sS'508335917417766912'
p3115
S'injured_or_dead_people'
p3116
sS'508344215135608832'
p3117
S'other_useful_information'
p3118
sS'508336992414076928'
p3119
S'donation_needs_or_offers_or_volunteering_services'
p3120
sS'508344983704068097'
p3121
S'donation_needs_or_offers_or_volunteering_services'
p3122
sS'508337494673195008'
p3123
S'infrastructure_and_utilities_damage'
p3124
sS'508342549908451328'
p3125
S'other_useful_information'
p3126
sS'508337220202139648'
p3127
S'sympathy_and_emotional_support'
p3128
sS'508339274715258882'
p3129
S'donation_needs_or_offers_or_volunteering_services'
p3130
sS'508343960029241344'
p3131
S'displaced_people_and_evacuations'
p3132
sS'508342048039399424'
p3133
S'other_useful_information'
p3134
sS'508341264379813888'
p3135
S'donation_needs_or_offers_or_volunteering_services'
p3136
sS'508337675577745408'
p3137
S'donation_needs_or_offers_or_volunteering_services'
p3138
sS'508341507632685056'
p3139
S'other_useful_information'
p3140
sS'508342989827997696'
p3141
S'donation_needs_or_offers_or_volunteering_services'
p3142
sS'508345254177955841'
p3143
S'other_useful_information'
p3144
sS'508338717367357440'
p3145
S'infrastructure_and_utilities_damage'
p3146
sS'508332364867829760'
p3147
S'other_useful_information'
p3148
sS'508341711735902208'
p3149
S'infrastructure_and_utilities_damage'
p3150
sS'508336594730758144'
p3151
S'other_useful_information'
p3152
sS'508333749403009024'
p3153
S'other_useful_information'
p3154
sS'508337621991718912'
p3155
S'donation_needs_or_offers_or_volunteering_services'
p3156
sS'508344270814969857'
p3157
S'other_useful_information'
p3158
sS'508340722089480192'
p3159
S'sympathy_and_emotional_support'
p3160
sS'508337366994411520'
p3161
S'injured_or_dead_people'
p3162
sS'508334968402350080'
p3163
S'other_useful_information'
p3164
sS'508332715121201152'
p3165
S'other_useful_information'
p3166
sS'508345012758011904'
p3167
S'donation_needs_or_offers_or_volunteering_services'
p3168
sS'508339640256843776'
p3169
S'caution_and_advice'
p3170
sS'508341418306195456'
p3171
S'other_useful_information'
p3172
sS'508343947786076160'
p3173
S'other_useful_information'
p3174
sS'508341804110860288'
p3175
S'other_useful_information'
p3176
sS'508338197135233024'
p3177
S'displaced_people_and_evacuations'
p3178
sS'508332514180866048'
p3179
S'missing_trapped_or_found_people'
p3180
sS'508343817725300736'
p3181
S'sympathy_and_emotional_support'
p3182
sS'508337058335965184'
p3183
S'injured_or_dead_people'
p3184
sS'508335844969562112'
p3185
S'other_useful_information'
p3186
sS'508342639163232256'
p3187
S'other_useful_information'
p3188
sS'508344526402879488'
p3189
S'donation_needs_or_offers_or_volunteering_services'
p3190
sS'508334389299011584'
p3191
S'displaced_people_and_evacuations'
p3192
sS'508337957233623041'
p3193
S'other_useful_information'
p3194
sS'508336163577278464'
p3195
S'donation_needs_or_offers_or_volunteering_services'
p3196
sS'508337835099684864'
p3197
S'donation_needs_or_offers_or_volunteering_services'
p3198
sS'508334035030900736'
p3199
S'other_useful_information'
p3200
sS'508333840566599680'
p3201
S'displaced_people_and_evacuations'
p3202
sS'508340811260788736'
p3203
S'other_useful_information'
p3204
sS'508343075656069121'
p3205
S'donation_needs_or_offers_or_volunteering_services'
p3206
sS'508337619642904577'
p3207
S'other_useful_information'
p3208
sS'508332593470005248'
p3209
S'injured_or_dead_people'
p3210
sS'508339374254063616'
p3211
S'infrastructure_and_utilities_damage'
p3212
sS'508343682886406144'
p3213
S'donation_needs_or_offers_or_volunteering_services'
p3214
sS'508334930372624384'
p3215
S'sympathy_and_emotional_support'
p3216
sS'508344149892816897'
p3217
S'donation_needs_or_offers_or_volunteering_services'
p3218
sS'508332981232996354'
p3219
S'infrastructure_and_utilities_damage'
p3220
sS'508341432466558976'
p3221
S'donation_needs_or_offers_or_volunteering_services'
p3222
sS'508335778447892482'
p3223
S'other_useful_information'
p3224
sS'508336127284367360'
p3225
S'donation_needs_or_offers_or_volunteering_services'
p3226
sS'508340274079072256'
p3227
S'other_useful_information'
p3228
sS'508333356556517377'
p3229
S'other_useful_information'
p3230
sS'508341038139047936'
p3231
S'infrastructure_and_utilities_damage'
p3232
sS'508337617545342976'
p3233
S'donation_needs_or_offers_or_volunteering_services'
p3234
sS'508344723103154176'
p3235
S'injured_or_dead_people'
p3236
sS'508334156158230528'
p3237
S'other_useful_information'
p3238
sS'508334210004697088'
p3239
S'donation_needs_or_offers_or_volunteering_services'
p3240
sS'508344238162333699'
p3241
S'not_related_or_irrelevant'
p3242
sS'508344034457169920'
p3243
S'other_useful_information'
p3244
sS'508335322758119424'
p3245
S'other_useful_information'
p3246
sS'508338923525775360'
p3247
S'other_useful_information'
p3248
sS'508343696706637824'
p3249
S'donation_needs_or_offers_or_volunteering_services'
p3250
sS'508344307175399424'
p3251
S'other_useful_information'
p3252
sS'508344410732363776'
p3253
S'displaced_people_and_evacuations'
p3254
sS'508341481942167552'
p3255
S'other_useful_information'
p3256
sS'508343612107534336'
p3257
S'injured_or_dead_people'
p3258
sS'508337234248863744'
p3259
S'sympathy_and_emotional_support'
p3260
sS'508334523508338688'
p3261
S'not_related_or_irrelevant'
p3262
sS'508334451374702592'
p3263
S'missing_trapped_or_found_people'
p3264
sS'508336965851168768'
p3265
S'donation_needs_or_offers_or_volunteering_services'
p3266
sS'508345253565575168'
p3267
S'other_useful_information'
p3268
sS'508340143678181376'
p3269
S'donation_needs_or_offers_or_volunteering_services'
p3270
sS'508344564231720960'
p3271
S'other_useful_information'
p3272
sS'508344264921972737'
p3273
S'donation_needs_or_offers_or_volunteering_services'
p3274
sS'508342627142336513'
p3275
S'other_useful_information'
p3276
sS'508332154271461376'
p3277
S'injured_or_dead_people'
p3278
sS'508336545787424768'
p3279
S'injured_or_dead_people'
p3280
sS'508345204815196160'
p3281
S'sympathy_and_emotional_support'
p3282
sS'508345039513071616'
p3283
S'other_useful_information'
p3284
sS'508336958150418432'
p3285
S'donation_needs_or_offers_or_volunteering_services'
p3286
sS'508336783713525760'
p3287
S'other_useful_information'
p3288
sS'508345240449597440'
p3289
S'injured_or_dead_people'
p3290
sS'508333348129746945'
p3291
S'donation_needs_or_offers_or_volunteering_services'
p3292
sS'508338041283686400'
p3293
S'donation_needs_or_offers_or_volunteering_services'
p3294
sS'508341395979894784'
p3295
S'other_useful_information'
p3296
sS'508334991172849664'
p3297
S'other_useful_information'
p3298
sS'508336817196658688'
p3299
S'donation_needs_or_offers_or_volunteering_services'
p3300
sS'508334890270474240'
p3301
S'injured_or_dead_people'
p3302
sS'508343376421195776'
p3303
S'missing_trapped_or_found_people'
p3304
sS'508338883172368385'
p3305
S'other_useful_information'
p3306
sS'508342061234655232'
p3307
S'other_useful_information'
p3308
sS'508341493774315520'
p3309
S'donation_needs_or_offers_or_volunteering_services'
p3310
sS'508332247900901376'
p3311
S'sympathy_and_emotional_support'
p3312
sS'508334144254787584'
p3313
S'injured_or_dead_people'
p3314
sS'508342454278291457'
p3315
S'injured_or_dead_people'
p3316
sS'508345159717634048'
p3317
S'donation_needs_or_offers_or_volunteering_services'
p3318
sS'508342334249902080'
p3319
S'other_useful_information'
p3320
sS'508342025222365185'
p3321
S'sympathy_and_emotional_support'
p3322
sS'508340229783027712'
p3323
S'missing_trapped_or_found_people'
p3324
sS'508342641163911168'
p3325
S'donation_needs_or_offers_or_volunteering_services'
p3326
sS'508332276032487426'
p3327
S'sympathy_and_emotional_support'
p3328
sS'508334637069123584'
p3329
S'injured_or_dead_people'
p3330
sS'508341287947218944'
p3331
S'donation_needs_or_offers_or_volunteering_services'
p3332
sS'508334138869702656'
p3333
S'donation_needs_or_offers_or_volunteering_services'
p3334
sS'508338429172535296'
p3335
S'not_related_or_irrelevant'
p3336
sS'508337907497590784'
p3337
S'donation_needs_or_offers_or_volunteering_services'
p3338
sS'508339041696104449'
p3339
S'sympathy_and_emotional_support'
p3340
sS'508341064319909889'
p3341
S'donation_needs_or_offers_or_volunteering_services'
p3342
sS'508339564872622080'
p3343
S'injured_or_dead_people'
p3344
sS'508341130128142336'
p3345
S'other_useful_information'
p3346
sS'508342634608599040'
p3347
S'caution_and_advice'
p3348
sS'508341339717525504'
p3349
S'other_useful_information'
p3350
sS'508339529045250049'
p3351
S'donation_needs_or_offers_or_volunteering_services'
p3352
sS'508336830081560577'
p3353
S'other_useful_information'
p3354
sS'508341610396909568'
p3355
S'donation_needs_or_offers_or_volunteering_services'
p3356
sS'508334547813924864'
p3357
S'donation_needs_or_offers_or_volunteering_services'
p3358
sS'508335755828019200'
p3359
S'donation_needs_or_offers_or_volunteering_services'
p3360
sS'508334528947961856'
p3361
S'donation_needs_or_offers_or_volunteering_services'
p3362
sS'508341896482009088'
p3363
S'donation_needs_or_offers_or_volunteering_services'
p3364
sS'508344203043434496'
p3365
S'other_useful_information'
p3366
sS'508343878278062080'
p3367
S'donation_needs_or_offers_or_volunteering_services'
p3368
sS'508336232586543104'
p3369
S'other_useful_information'
p3370
sS'508337123284758528'
p3371
S'sympathy_and_emotional_support'
p3372
sS'508334582421524480'
p3373
S'other_useful_information'
p3374
sS'508341858510974976'
p3375
S'other_useful_information'
p3376
sS'508341300341792768'
p3377
S'injured_or_dead_people'
p3378
sS'508340789642924033'
p3379
S'injured_or_dead_people'
p3380
sS'508334971879030785'
p3381
S'other_useful_information'
p3382
sS'508332869345751042'
p3383
S'other_useful_information'
p3384
sS'508334853574504448'
p3385
S'caution_and_advice'
p3386
sS'508342013079474176'
p3387
S'donation_needs_or_offers_or_volunteering_services'
p3388
sS'508342354944598016'
p3389
S'other_useful_information'
p3390
sS'508341089623748608'
p3391
S'sympathy_and_emotional_support'
p3392
sS'508334742509727744'
p3393
S'other_useful_information'
p3394
sS'508339497092644864'
p3395
S'other_useful_information'
p3396
sS'508334826185703424'
p3397
S'other_useful_information'
p3398
sS'508332828396777472'
p3399
S'other_useful_information'
p3400
sS'508334517976059904'
p3401
S'donation_needs_or_offers_or_volunteering_services'
p3402
sS'508344500989616128'
p3403
S'other_useful_information'
p3404
sS'508333192156160001'
p3405
S'other_useful_information'
p3406
sS'508336399632707584'
p3407
S'other_useful_information'
p3408
sS'508339939491479552'
p3409
S'other_useful_information'
p3410
sS'508332890518614016'
p3411
S'donation_needs_or_offers_or_volunteering_services'
p3412
sS'508335193204088833'
p3413
S'other_useful_information'
p3414
sS'508334248278097921'
p3415
S'infrastructure_and_utilities_damage'
p3416
sS'508344582615363584'
p3417
S'donation_needs_or_offers_or_volunteering_services'
p3418
sS'508337221607632896'
p3419
S'injured_or_dead_people'
p3420
sS'508332291190689792'
p3421
S'donation_needs_or_offers_or_volunteering_services'
p3422
sS'508342027206270976'
p3423
S'other_useful_information'
p3424
sS'508335218038558720'
p3425
S'other_useful_information'
p3426
sS'508343984251342848'
p3427
S'not_related_or_irrelevant'
p3428
sS'508341883870142464'
p3429
S'other_useful_information'
p3430
sS'508339303437438976'
p3431
S'other_useful_information'
p3432
sS'508343091330555905'
p3433
S'donation_needs_or_offers_or_volunteering_services'
p3434
sS'508336379202633728'
p3435
S'sympathy_and_emotional_support'
p3436
sS'508339100378603520'
p3437
S'other_useful_information'
p3438
sS'508339194368761856'
p3439
S'other_useful_information'
p3440
sS'508337846391160833'
p3441
S'infrastructure_and_utilities_damage'
p3442
sS'508343880379424768'
p3443
S'donation_needs_or_offers_or_volunteering_services'
p3444
sS'508338331902410752'
p3445
S'other_useful_information'
p3446
sS'508338374252302336'
p3447
S'missing_trapped_or_found_people'
p3448
sS'508340137596821505'
p3449
S'injured_or_dead_people'
p3450
sS'508339125771325440'
p3451
S'donation_needs_or_offers_or_volunteering_services'
p3452
sS'508337246643449856'
p3453
S'injured_or_dead_people'
p3454
sS'508333775927791616'
p3455
S'other_useful_information'
p3456
sS'508335627667243009'
p3457
S'donation_needs_or_offers_or_volunteering_services'
p3458
sS'508339444794265600'
p3459
S'other_useful_information'
p3460
sS'508338488123486210'
p3461
S'injured_or_dead_people'
p3462
sS'508338668000382976'
p3463
S'donation_needs_or_offers_or_volunteering_services'
p3464
sS'508340659632099328'
p3465
S'donation_needs_or_offers_or_volunteering_services'
p3466
sS'508337005357326336'
p3467
S'donation_needs_or_offers_or_volunteering_services'
p3468
sS'508335774870536192'
p3469
S'injured_or_dead_people'
p3470
sS'508333848560939008'
p3471
S'other_useful_information'
p3472
sS'508336594869174272'
p3473
S'sympathy_and_emotional_support'
p3474
sS'508339492869386240'
p3475
S'other_useful_information'
p3476
sS'508342044394536960'
p3477
S'donation_needs_or_offers_or_volunteering_services'
p3478
sS'508337212589867009'
p3479
S'other_useful_information'
p3480
sS'508342265153335296'
p3481
S'other_useful_information'
p3482
sS'508344402532519936'
p3483
S'other_useful_information'
p3484
sS'508338231947976704'
p3485
S'other_useful_information'
p3486
sS'508340460629131264'
p3487
S'infrastructure_and_utilities_damage'
p3488
sS'508335798497071104'
p3489
S'donation_needs_or_offers_or_volunteering_services'
p3490
sS'508342908307517440'
p3491
S'other_useful_information'
p3492
sS'508336467844665344'
p3493
S'other_useful_information'
p3494
sS'508336540607848449'
p3495
S'donation_needs_or_offers_or_volunteering_services'
p3496
sS'508338113983557632'
p3497
S'donation_needs_or_offers_or_volunteering_services'
p3498
sS'508336804513083393'
p3499
S'caution_and_advice'
p3500
sS'508344178552885248'
p3501
S'other_useful_information'
p3502
sS'508340151056347136'
p3503
S'donation_needs_or_offers_or_volunteering_services'
p3504
sS'508344495289540608'
p3505
S'other_useful_information'
p3506
sS'508339714295095296'
p3507
S'donation_needs_or_offers_or_volunteering_services'
p3508
sS'508332659085303808'
p3509
S'sympathy_and_emotional_support'
p3510
sS'508344114514251776'
p3511
S'donation_needs_or_offers_or_volunteering_services'
p3512
sS'508335152783966208'
p3513
S'donation_needs_or_offers_or_volunteering_services'
p3514
sS'508341021944856576'
p3515
S'donation_needs_or_offers_or_volunteering_services'
p3516
sS'508340752775016448'
p3517
S'donation_needs_or_offers_or_volunteering_services'
p3518
sS'508340607946084352'
p3519
S'donation_needs_or_offers_or_volunteering_services'
p3520
sS'508334573558571008'
p3521
S'other_useful_information'
p3522
sS'508339559600775169'
p3523
S'other_useful_information'
p3524
sS'508341039187259392'
p3525
S'missing_trapped_or_found_people'
p3526
sS'508343333752557568'
p3527
S'donation_needs_or_offers_or_volunteering_services'
p3528
sS'508338032668581888'
p3529
S'injured_or_dead_people'
p3530
sS'508336811606048768'
p3531
S'sympathy_and_emotional_support'
p3532
sS'508339501572567040'
p3533
S'donation_needs_or_offers_or_volunteering_services'
p3534
sS'508335959302107136'
p3535
S'donation_needs_or_offers_or_volunteering_services'
p3536
sS'508340910091165696'
p3537
S'other_useful_information'
p3538
sS'508338368296779776'
p3539
S'not_related_or_irrelevant'
p3540
sS'508344675561111552'
p3541
S'displaced_people_and_evacuations'
p3542
sS'508339770125058048'
p3543
S'other_useful_information'
p3544
sS'508343424789905408'
p3545
S'displaced_people_and_evacuations'
p3546
sS'508344998564478976'
p3547
S'donation_needs_or_offers_or_volunteering_services'
p3548
sS'508337449492152320'
p3549
S'other_useful_information'
p3550
sS'508340435824025600'
p3551
S'other_useful_information'
p3552
sS'508333617031176192'
p3553
S'sympathy_and_emotional_support'
p3554
sS'508337404361842689'
p3555
S'donation_needs_or_offers_or_volunteering_services'
p3556
sS'508338712623603712'
p3557
S'infrastructure_and_utilities_damage'
p3558
sS'508342826711932928'
p3559
S'missing_trapped_or_found_people'
p3560
sS'508343534441988097'
p3561
S'donation_needs_or_offers_or_volunteering_services'
p3562
sS'508341400132648961'
p3563
S'injured_or_dead_people'
p3564
sS'508341648410288128'
p3565
S'other_useful_information'
p3566
sS'508337890913312768'
p3567
S'donation_needs_or_offers_or_volunteering_services'
p3568
sS'508342271939723264'
p3569
S'other_useful_information'
p3570
sS'508342573866307585'
p3571
S'other_useful_information'
p3572
sS'508332340817719296'
p3573
S'other_useful_information'
p3574
sS'508341349922258944'
p3575
S'other_useful_information'
p3576
sS'508334659051454464'
p3577
S'donation_needs_or_offers_or_volunteering_services'
p3578
sS'508334919064371200'
p3579
S'sympathy_and_emotional_support'
p3580
sS'508342849222737920'
p3581
S'infrastructure_and_utilities_damage'
p3582
sS'508345046606053376'
p3583
S'injured_or_dead_people'
p3584
sS'508336336013512704'
p3585
S'other_useful_information'
p3586
sS'508333392073883648'
p3587
S'other_useful_information'
p3588
sS'508342478856937472'
p3589
S'infrastructure_and_utilities_damage'
p3590
sS'508332371192467456'
p3591
S'sympathy_and_emotional_support'
p3592
sS'508344704002322432'
p3593
S'other_useful_information'
p3594
sS'508337712945168384'
p3595
S'injured_or_dead_people'
p3596
sS'508333257797017600'
p3597
S'other_useful_information'
p3598
sS'508345212293234688'
p3599
S'injured_or_dead_people'
p3600
sS'508338094710730752'
p3601
S'other_useful_information'
p3602
sS'508344116607217664'
p3603
S'other_useful_information'
p3604
sS'508343935408697344'
p3605
S'injured_or_dead_people'
p3606
sS'508341460828057601'
p3607
S'displaced_people_and_evacuations'
p3608
sS'508333755463766016'
p3609
S'displaced_people_and_evacuations'
p3610
sS'508341458059804672'
p3611
S'donation_needs_or_offers_or_volunteering_services'
p3612
sS'508342189428994048'
p3613
S'other_useful_information'
p3614
sS'508333342929199104'
p3615
S'other_useful_information'
p3616
sS'508339944809840641'
p3617
S'displaced_people_and_evacuations'
p3618
sS'508338792718401536'
p3619
S'donation_needs_or_offers_or_volunteering_services'
p3620
sS'508337498703941632'
p3621
S'donation_needs_or_offers_or_volunteering_services'
p3622
sS'508336248797163521'
p3623
S'other_useful_information'
p3624
sS'508333709062590464'
p3625
S'infrastructure_and_utilities_damage'
p3626
sS'508343529999843328'
p3627
S'donation_needs_or_offers_or_volunteering_services'
p3628
sS'508339744204271617'
p3629
S'other_useful_information'
p3630
sS'508336450752876544'
p3631
S'other_useful_information'
p3632
sS'508338877090635776'
p3633
S'injured_or_dead_people'
p3634
sS'508332370202591232'
p3635
S'other_useful_information'
p3636
sS'508339901759492097'
p3637
S'injured_or_dead_people'
p3638
sS'508342688136318976'
p3639
S'injured_or_dead_people'
p3640
sS'508340311710384128'
p3641
S'other_useful_information'
p3642
sS'508345354056892416'
p3643
S'other_useful_information'
p3644
sS'508343610635341824'
p3645
S'other_useful_information'
p3646
sS'508333958887518208'
p3647
S'donation_needs_or_offers_or_volunteering_services'
p3648
sS'508342472842674176'
p3649
S'donation_needs_or_offers_or_volunteering_services'
p3650
sS'508341923837648896'
p3651
S'other_useful_information'
p3652
sS'508344603041628160'
p3653
S'other_useful_information'
p3654
sS'508344365777825792'
p3655
S'donation_needs_or_offers_or_volunteering_services'
p3656
sS'508338155703898112'
p3657
S'other_useful_information'
p3658
sS'508344768892768256'
p3659
S'injured_or_dead_people'
p3660
sS'508333349111603201'
p3661
S'missing_trapped_or_found_people'
p3662
sS'508335555521052672'
p3663
S'injured_or_dead_people'
p3664
sS'508335052590448641'
p3665
S'other_useful_information'
p3666
sS'508339069336571905'
p3667
S'infrastructure_and_utilities_damage'
p3668
sS'508341460153139200'
p3669
S'donation_needs_or_offers_or_volunteering_services'
p3670
sS'508341450229035008'
p3671
S'displaced_people_and_evacuations'
p3672
sS'508342996538900480'
p3673
S'displaced_people_and_evacuations'
p3674
sS'508334961334550528'
p3675
S'donation_needs_or_offers_or_volunteering_services'
p3676
sS'508332969032175617'
p3677
S'injured_or_dead_people'
p3678
sS'508336594223255553'
p3679
S'other_useful_information'
p3680
sS'508336222688002048'
p3681
S'injured_or_dead_people'
p3682
sS'508335132647112704'
p3683
S'missing_trapped_or_found_people'
p3684
sS'508340449879150592'
p3685
S'sympathy_and_emotional_support'
p3686
sS'508338379969138688'
p3687
S'displaced_people_and_evacuations'
p3688
sS'508344035225133056'
p3689
S'sympathy_and_emotional_support'
p3690
sS'508337340775813120'
p3691
S'not_related_or_irrelevant'
p3692
sS'508344230595407872'
p3693
S'donation_needs_or_offers_or_volunteering_services'
p3694
sS'508334558585290754'
p3695
S'injured_or_dead_people'
p3696
sS'508337586809872384'
p3697
S'other_useful_information'
p3698
sS'508339368088850432'
p3699
S'donation_needs_or_offers_or_volunteering_services'
p3700
sS'508342723879788544'
p3701
S'missing_trapped_or_found_people'
p3702
sS'508340883843211264'
p3703
S'other_useful_information'
p3704
sS'508333725097025536'
p3705
S'injured_or_dead_people'
p3706
sS'508340779698233344'
p3707
S'donation_needs_or_offers_or_volunteering_services'
p3708
sS'508339144188493825'
p3709
S'displaced_people_and_evacuations'
p3710
sS'508337844163604480'
p3711
S'donation_needs_or_offers_or_volunteering_services'
p3712
sS'508341746820849664'
p3713
S'displaced_people_and_evacuations'
p3714
sS'508338084425900032'
p3715
S'sympathy_and_emotional_support'
p3716
sS'508343320402489344'
p3717
S'donation_needs_or_offers_or_volunteering_services'
p3718
sS'508335328558473216'
p3719
S'displaced_people_and_evacuations'
p3720
sS'508333768235438080'
p3721
S'donation_needs_or_offers_or_volunteering_services'
p3722
sS'508345415784472576'
p3723
S'other_useful_information'
p3724
sS'508338470499401728'
p3725
S'other_useful_information'
p3726
sS'508338154751799296'
p3727
S'sympathy_and_emotional_support'
p3728
sS'508341819223330816'
p3729
S'donation_needs_or_offers_or_volunteering_services'
p3730
sS'508338747323469824'
p3731
S'donation_needs_or_offers_or_volunteering_services'
p3732
sS'508343902575656960'
p3733
S'donation_needs_or_offers_or_volunteering_services'
p3734
sS'508332660662337536'
p3735
S'donation_needs_or_offers_or_volunteering_services'
p3736
sS'508343682311794688'
p3737
S'donation_needs_or_offers_or_volunteering_services'
p3738
sS'508342744918786048'
p3739
S'donation_needs_or_offers_or_volunteering_services'
p3740
sS'508344020834480128'
p3741
S'donation_needs_or_offers_or_volunteering_services'
p3742
sS'508336412811210752'
p3743
S'other_useful_information'
p3744
sS'508339334718566400'
p3745
S'sympathy_and_emotional_support'
p3746
sS'508340599401877504'
p3747
S'other_useful_information'
p3748
sS'508344941106302976'
p3749
S'donation_needs_or_offers_or_volunteering_services'
p3750
sS'508339336983490560'
p3751
S'other_useful_information'
p3752
sS'508336011097546753'
p3753
S'donation_needs_or_offers_or_volunteering_services'
p3754
sS'508345126884999168'
p3755
S'missing_trapped_or_found_people'
p3756
sS'508335874866548736'
p3757
S'injured_or_dead_people'
p3758
sS'508336128655908865'
p3759
S'missing_trapped_or_found_people'
p3760
sS'508341102550978560'
p3761
S'donation_needs_or_offers_or_volunteering_services'
p3762
sS'508339963969024000'
p3763
S'other_useful_information'
p3764
sS'508336011399929857'
p3765
S'other_useful_information'
p3766
sS'508334863469277185'
p3767
S'donation_needs_or_offers_or_volunteering_services'
p3768
sS'508344559475367936'
p3769
S'donation_needs_or_offers_or_volunteering_services'
p3770
sS'508339161435082753'
p3771
S'donation_needs_or_offers_or_volunteering_services'
p3772
sS'508335995323170819'
p3773
S'donation_needs_or_offers_or_volunteering_services'
p3774
sS'508335879694204928'
p3775
S'sympathy_and_emotional_support'
p3776
sS'508339601799258112'
p3777
S'other_useful_information'
p3778
sS'508338043091439616'
p3779
S'other_useful_information'
p3780
sS'508337483252125696'
p3781
S'injured_or_dead_people'
p3782
sS'508333617114669056'
p3783
S'injured_or_dead_people'
p3784
sS'508340268722962432'
p3785
S'other_useful_information'
p3786
sS'508332651527553024'
p3787
S'displaced_people_and_evacuations'
p3788
sS'508338942895071232'
p3789
S'other_useful_information'
p3790
sS'508335229476425728'
p3791
S'donation_needs_or_offers_or_volunteering_services'
p3792
sS'508334040198701056'
p3793
S'other_useful_information'
p3794
sS'508333278437208064'
p3795
S'other_useful_information'
p3796
sS'508337358765182977'
p3797
S'sympathy_and_emotional_support'
p3798
sS'508334334814593024'
p3799
S'sympathy_and_emotional_support'
p3800
sS'508333385203212288'
p3801
S'injured_or_dead_people'
p3802
sS'508333894693687296'
p3803
S'injured_or_dead_people'
p3804
sS'508344842217586688'
p3805
S'other_useful_information'
p3806
sS'508339311524057089'
p3807
S'donation_needs_or_offers_or_volunteering_services'
p3808
sS'508335657006022656'
p3809
S'injured_or_dead_people'
p3810
sS'508336500359307264'
p3811
S'other_useful_information'
p3812
sS'508340180990689280'
p3813
S'other_useful_information'
p3814
sS'508335730654187520'
p3815
S'other_useful_information'
p3816
sS'508335953820524544'
p3817
S'other_useful_information'
p3818
sS'508340081556328448'
p3819
S'displaced_people_and_evacuations'
p3820
sS'508335073872322560'
p3821
S'sympathy_and_emotional_support'
p3822
sS'508336216899874816'
p3823
S'infrastructure_and_utilities_damage'
p3824
sS'508344412166840320'
p3825
S'other_useful_information'
p3826
sS'508340368392613889'
p3827
S'donation_needs_or_offers_or_volunteering_services'
p3828
sS'508338914789457922'
p3829
S'donation_needs_or_offers_or_volunteering_services'
p3830
sS'508339825880354817'
p3831
S'caution_and_advice'
p3832
sS'508334271375753216'
p3833
S'injured_or_dead_people'
p3834
sS'508338428422135808'
p3835
S'donation_needs_or_offers_or_volunteering_services'
p3836
sS'508340809734041600'
p3837
S'caution_and_advice'
p3838
sS'508334953973940224'
p3839
S'other_useful_information'
p3840
sS'508338104668028928'
p3841
S'displaced_people_and_evacuations'
p3842
sS'508335286321831936'
p3843
S'other_useful_information'
p3844
sS'508344499329048576'
p3845
S'other_useful_information'
p3846
sS'508338624580943872'
p3847
S'other_useful_information'
p3848
sS'508332840682270720'
p3849
S'other_useful_information'
p3850
sS'508342697342402560'
p3851
S'injured_or_dead_people'
p3852
sS'508342659702718464'
p3853
S'other_useful_information'
p3854
sS'508332534464118784'
p3855
S'donation_needs_or_offers_or_volunteering_services'
p3856
sS'508339069433032704'
p3857
S'other_useful_information'
p3858
sS'508334154719559681'
p3859
S'donation_needs_or_offers_or_volunteering_services'
p3860
sS'508338658894966784'
p3861
S'other_useful_information'
p3862
sS'508339788177362945'
p3863
S'other_useful_information'
p3864
sS'508343965255737344'
p3865
S'other_useful_information'
p3866
sS'508340445164732418'
p3867
S'other_useful_information'
p3868
sS'508339326665506816'
p3869
S'missing_trapped_or_found_people'
p3870
sS'508335805677731840'
p3871
S'other_useful_information'
p3872
sS'508335567822942208'
p3873
S'injured_or_dead_people'
p3874
sS'508338585334865922'
p3875
S'other_useful_information'
p3876
sS'508341942607179776'
p3877
S'other_useful_information'
p3878
sS'508344650995081216'
p3879
S'missing_trapped_or_found_people'
p3880
sS'508334376661581824'
p3881
S'injured_or_dead_people'
p3882
sS'508334829666971648'
p3883
S'donation_needs_or_offers_or_volunteering_services'
p3884
sS'508343755993538560'
p3885
S'injured_or_dead_people'
p3886
sS'508342908408197120'
p3887
S'other_useful_information'
p3888
sS'508341471536107520'
p3889
S'missing_trapped_or_found_people'
p3890
sS'508343981768712192'
p3891
S'other_useful_information'
p3892
sS'508333086812409856'
p3893
S'infrastructure_and_utilities_damage'
p3894
sS'508340444925669376'
p3895
S'injured_or_dead_people'
p3896
sS'508336678675951616'
p3897
S'other_useful_information'
p3898
sS'508332676101984256'
p3899
S'other_useful_information'
p3900
sS'508342372095504385'
p3901
S'injured_or_dead_people'
p3902
sS'508344104011329536'
p3903
S'infrastructure_and_utilities_damage'
p3904
sS'508344306848264192'
p3905
S'donation_needs_or_offers_or_volunteering_services'
p3906
sS'508332561332846593'
p3907
S'missing_trapped_or_found_people'
p3908
sS'508335331460935680'
p3909
S'other_useful_information'
p3910
sS'508335247155814400'
p3911
S'missing_trapped_or_found_people'
p3912
sS'508345203024220160'
p3913
S'injured_or_dead_people'
p3914
sS'508340274385264641'
p3915
S'injured_or_dead_people'
p3916
sS'508341495389093888'
p3917
S'other_useful_information'
p3918
sS'508333191384416256'
p3919
S'donation_needs_or_offers_or_volunteering_services'
p3920
sS'508333261886472192'
p3921
S'injured_or_dead_people'
p3922
sS'508342135897092096'
p3923
S'donation_needs_or_offers_or_volunteering_services'
p3924
sS'508340639529205760'
p3925
S'other_useful_information'
p3926
sS'508337366755733508'
p3927
S'donation_needs_or_offers_or_volunteering_services'
p3928
sS'508335296182632448'
p3929
S'other_useful_information'
p3930
sS'508337687233691648'
p3931
S'other_useful_information'
p3932
sS'508341132930322433'
p3933
S'donation_needs_or_offers_or_volunteering_services'
p3934
sS'508335098500878336'
p3935
S'donation_needs_or_offers_or_volunteering_services'
p3936
sS'508335131967234048'
p3937
S'other_useful_information'
p3938
sS'508343564548325376'
p3939
S'missing_trapped_or_found_people'
p3940
sS'508337550441070592'
p3941
S'donation_needs_or_offers_or_volunteering_services'
p3942
sS'508340806533390337'
p3943
S'injured_or_dead_people'
p3944
sS'508338879452422145'
p3945
S'donation_needs_or_offers_or_volunteering_services'
p3946
sS'508343955738460163'
p3947
S'other_useful_information'
p3948
sS'508340425397006336'
p3949
S'displaced_people_and_evacuations'
p3950
sS'508343866014326784'
p3951
S'infrastructure_and_utilities_damage'
p3952
sS'508338568696049664'
p3953
S'donation_needs_or_offers_or_volunteering_services'
p3954
sS'508343502603051008'
p3955
S'other_useful_information'
p3956
sS'508337822005071872'
p3957
S'sympathy_and_emotional_support'
p3958
sS'508341347854843904'
p3959
S'other_useful_information'
p3960
sS'508337779609059328'
p3961
S'other_useful_information'
p3962
sS'508339157538594817'
p3963
S'other_useful_information'
p3964
sS'508339955760783360'
p3965
S'donation_needs_or_offers_or_volunteering_services'
p3966
sS'508342268063793152'
p3967
S'injured_or_dead_people'
p3968
sS'508332177608568832'
p3969
S'other_useful_information'
p3970
sS'508336964429684736'
p3971
S'injured_or_dead_people'
p3972
sS'508337764404699136'
p3973
S'other_useful_information'
p3974
sS'508334728752410624'
p3975
S'donation_needs_or_offers_or_volunteering_services'
p3976
sS'508342730653978625'
p3977
S'donation_needs_or_offers_or_volunteering_services'
p3978
sS'508343346134540288'
p3979
S'infrastructure_and_utilities_damage'
p3980
sS'508340141648519168'
p3981
S'donation_needs_or_offers_or_volunteering_services'
p3982
sS'508342934270251008'
p3983
S'other_useful_information'
p3984
sS'508340834450681856'
p3985
S'injured_or_dead_people'
p3986
sS'508337190095843328'
p3987
S'donation_needs_or_offers_or_volunteering_services'
p3988
sS'508341743247310848'
p3989
S'other_useful_information'
p3990
sS'508343780844769280'
p3991
S'other_useful_information'
p3992
sS'508336598216617984'
p3993
S'donation_needs_or_offers_or_volunteering_services'
p3994
sS'508333610035085313'
p3995
S'displaced_people_and_evacuations'
p3996
sS'508345108983730176'
p3997
S'donation_needs_or_offers_or_volunteering_services'
p3998
sS'508344310715408384'
p3999
S'donation_needs_or_offers_or_volunteering_services'
p4000
s.