(dp0
S'445269155327913984'
p1
S'Yes'
p2
sS'474094092717015040'
p3
S'Praying'
p4
sS'445261181347835904'
p5
S'No'
p6
sS'446076696736071680'
p7
S'No'
p8
sS'445257606521950209'
p9
S'No'
p10
sS'445232111516405760'
p11
S'No'
p12
sS'445232220404736001'
p13
S'No'
p14
sS'445264474900295680'
p15
S'Yes'
p16
sS'459113539936862209'
p17
S'Informative'
p18
sS'476511152080293888'
p19
S'Informative'
p20
sS'445268270376288256'
p21
S'Yes'
p22
sS'474170820428713984'
p23
S'Praying'
p24
sS'445265005886590977'
p25
S'Yes'
p26
sS'445126509305405440'
p27
S'Yes'
p28
sS'445262125070422016'
p29
S'No'
p30
sS'473440765255766016'
p31
S'Praying'
p32
sS'445126091514990592'
p33
S'Yes'
p34
sS'445258417700372481'
p35
S'No'
p36
sS'445259979285876737'
p37
S'No'
p38
sS'445127884424740865'
p39
S'No'
p40
sS'445260367951040514'
p41
S'No'
p42
sS'474168552585322497'
p43
S'Praying'
p44
sS'445258815106080768'
p45
S'No'
p46
sS'445260685782839296'
p47
S'No'
p48
sS'445259631531937792'
p49
S'No'
p50
sS'445258542967422977'
p51
S'No'
p52
sS'445262353240948736'
p53
S'No'
p54
sS'474176288924925952'
p55
S'Informative'
p56
sS'474175914482216960'
p57
S'Personal'
p58
sS'474113722294616064'
p59
S'Praying'
p60
sS'445259011823136768'
p61
S'No'
p62
sS'445233315352547329'
p63
S'Praying'
p64
sS'445259180543184896'
p65
S'No'
p66
sS'474117578101493760'
p67
S'Personal'
p68
sS'445262369313542144'
p69
S'No'
p70
sS'445259119734566912'
p71
S'No'
p72
sS'476534288049905664'
p73
S'Informative'
p74
sS'445260035162382336'
p75
S'No'
p76
sS'474175488634531840'
p77
S'Personal'
p78
sS'445260234181718016'
p79
S'No'
p80
sS'445258044860289024'
p81
S'No'
p82
sS'474078476459208704'
p83
S'Praying'
p84
sS'445260051310075904'
p85
S'No'
p86
sS'473443685997084672'
p87
S'Praying'
p88
sS'476548892423503874'
p89
S'Personal'
p90
sS'445261116038742017'
p91
S'No'
p92
sS'445233028135002112'
p93
S'Personal'
p94
sS'473379271755300864'
p95
S'Praying'
p96
sS'445912109340057601'
p97
S'No'
p98
sS'445232110345781248'
p99
S'No'
p100
sS'445258858743619584'
p101
S'Yes'
p102
sS'445128068860895232'
p103
S'No'
p104
sS'446249785519915008'
p105
S'No'
p106
sS'474173720563425280'
p107
S'Praying'
p108
sS'445233117972799489'
p109
S'Praying'
p110
sS'445232231364448256'
p111
S'No'
p112
sS'473454349105242112'
p113
S'Personal'
p114
sS'445269662956146688'
p115
S'Yes'
p116
sS'474112987838820353'
p117
S'Personal'
p118
sS'445268221542010880'
p119
S'Yes'
p120
sS'445887808964927488'
p121
S'No'
p122
sS'445261535623925761'
p123
S'No'
p124
sS'446177096948125696'
p125
S'No'
p126
sS'473451385363501056'
p127
S'Personal'
p128
sS'459199896323510272'
p129
S'No'
p130
sS'445261019267760129'
p131
S'No'
p132
sS'445258528987807744'
p133
S'No'
p134
sS'445257821915865088'
p135
S'No'
p136
sS'445262354427564033'
p137
S'No'
p138
sS'445232757225295872'
p139
S'Personal'
p140
sS'445233019721637888'
p141
S'Personal'
p142
sS'473435889071161346'
p143
S'Personal'
p144
sS'445260103156264960'
p145
S'No'
p146
sS'473452270500061184'
p147
S'Praying'
p148
sS'445232027499896833'
p149
S'No'
p150
sS'445258811893645312'
p151
S'Yes'
p152
sS'474156553126178816'
p153
S'Informative'
p154
sS'445233560220217344'
p155
S'Informative'
p156
sS'445260260102922240'
p157
S'Yes'
p158
sS'445125893170552833'
p159
S'Yes'
p160
sS'474078354937622528'
p161
S'Praying'
p162
sS'474174910462713856'
p163
S'Personal'
p164
sS'445259595649646592'
p165
S'Yes'
p166
sS'445265855211782145'
p167
S'Yes'
p168
sS'445258742771511296'
p169
S'No'
p170
sS'473415229951332353'
p171
S'Personal'
p172
sS'445257739292254208'
p173
S'No'
p174
sS'474059577772617729'
p175
S'Praying'
p176
sS'445232063080173568'
p177
S'No'
p178
sS'445233013765705728'
p179
S'Informative'
p180
sS'445262404361142272'
p181
S'No'
p182
sS'445126719402680320'
p183
S'Yes'
p184
sS'476609289822302208'
p185
S'Personal'
p186
sS'459201976400883712'
p187
S'No'
p188
sS'473442966582067200'
p189
S'Personal'
p190
sS'445258384627863552'
p191
S'No'
p192
sS'473425528955752449'
p193
S'Praying'
p194
sS'473381420400795648'
p195
S'Praying'
p196
sS'476512099338702848'
p197
S'Personal'
p198
sS'476550081026351104'
p199
S'Personal'
p200
sS'445127796466393088'
p201
S'No'
p202
sS'474161705266999296'
p203
S'Informative'
p204
sS'446010251964608513'
p205
S'No'
p206
sS'474170721107595264'
p207
S'Informative'
p208
sS'453030883075690496'
p209
S'No'
p210
sS'445258677377695744'
p211
S'No'
p212
sS'445261963765886977'
p213
S'No'
p214
sS'445261698556235776'
p215
S'No'
p216
sS'445232145414373376'
p217
S'No'
p218
sS'445259452954857472'
p219
S'Yes'
p220
sS'445261969193304064'
p221
S'No'
p222
sS'474171575021744128'
p223
S'Informative'
p224
sS'445260990150479872'
p225
S'No'
p226
sS'445260274753609731'
p227
S'No'
p228
sS'445261291100585984'
p229
S'No'
p230
sS'473430634258776065'
p231
S'Personal'
p232
sS'445260099473645568'
p233
S'No'
p234
sS'445260963743150080'
p235
S'No'
p236
sS'445260686298316800'
p237
S'No'
p238
sS'445128066054909952'
p239
S'No'
p240
sS'473424477984784385'
p241
S'Praying'
p242
sS'445865527110795264'
p243
S'No'
p244
sS'445257653649154049'
p245
S'No'
p246
sS'474094241635762176'
p247
S'Praying'
p248
sS'474164459812818945'
p249
S'Praying'
p250
sS'459116793273921538'
p251
S'Praying'
p252
sS'474164059949264896'
p253
S'Praying'
p254
sS'474108540362428416'
p255
S'Praying'
p256
sS'445261884858433536'
p257
S'No'
p258
sS'445259730798542848'
p259
S'No'
p260
sS'473430246755037184'
p261
S'Praying'
p262
sS'445259172221685760'
p263
S'No'
p264
sS'474165598365040641'
p265
S'Praying'
p266
sS'446212285183176704'
p267
S'Yes'
p268
s.