(dp0
S'580436595335131137'
p1
S'Physical landslide'
p2
sS'580610852543447041'
p3
S'Not physical landslide'
p4
sS'580248015677628416'
p5
S'Not physical landslide'
p6
sS'580391420990717952'
p7
S'Physical landslide'
p8
sS'580195241388597249'
p9
S'Physical landslide'
p10
sS'580325781752160256'
p11
S'Physical landslide'
p12
sS'580538800872505345'
p13
S'Not physical landslide'
p14
sS'580202972816261120'
p15
S'Physical landslide'
p16
sS'580358381057249280'
p17
S'Physical landslide'
p18
sS'580406805039357952'
p19
S'Physical landslide'
p20
sS'580633419958325248'
p21
S'Physical landslide'
p22
sS'580431845948526593'
p23
S'Physical landslide'
p24
sS'580964556672921601'
p25
S'Not physical landslide'
p26
sS'580909625945518080'
p27
S'Not physical landslide'
p28
sS'580213477261885441'
p29
S'Physical landslide'
p30
sS'580586495813283841'
p31
S'Physical landslide'
p32
sS'580535049684127745'
p33
S'Not physical landslide'
p34
sS'580397514626596864'
p35
S'Physical landslide'
p36
sS'580552519279124480'
p37
S'Physical landslide'
p38
sS'580952185040596992'
p39
S'Physical landslide'
p40
sS'580416305880285184'
p41
S'Physical landslide'
p42
sS'580580461170282496'
p43
S'Physical landslide'
p44
sS'580919604400226304'
p45
S'Physical landslide'
p46
sS'580237505540321281'
p47
S'Not physical landslide'
p48
sS'580902949569896448'
p49
S'Physical landslide'
p50
sS'580388267645865984'
p51
S'Physical landslide'
p52
sS'580206153352790016'
p53
S'Physical landslide'
p54
sS'580426223660175360'
p55
S'Not physical landslide'
p56
sS'581002384299556864'
p57
S'Physical landslide'
p58
sS'580251206565662720'
p59
S'Physical landslide'
p60
sS'582845634069204992'
p61
S'Physical landslide'
p62
sS'580430028716027904'
p63
S'Physical landslide'
p64
sS'580569476686581760'
p65
S'Physical landslide'
p66
sS'580927517671993344'
p67
S'Not physical landslide'
p68
sS'580562772146188288'
p69
S'Physical landslide'
p70
sS'580193980115087360'
p71
S'Physical landslide'
p72
sS'580189845106139137'
p73
S'Not physical landslide'
p74
sS'580397555315523584'
p75
S'Not physical landslide'
p76
sS'580217485456248833'
p77
S'Physical landslide'
p78
sS'580184398223421440'
p79
S'Physical landslide'
p80
sS'581002453660782593'
p81
S'Not physical landslide'
p82
sS'580365450036531202'
p83
S'Physical landslide'
p84
sS'580321740548624386'
p85
S'Not physical landslide'
p86
sS'580224974776061952'
p87
S'Physical landslide'
p88
sS'580214448591368192'
p89
S'Physical landslide'
p90
sS'580561860442877954'
p91
S'Physical landslide'
p92
sS'580182009760251904'
p93
S'Physical landslide'
p94
sS'580350299149324288'
p95
S'Physical landslide'
p96
sS'580920451804823552'
p97
S'Physical landslide'
p98
sS'580177846724771840'
p99
S'Physical landslide'
p100
sS'580596802912686080'
p101
S'Physical landslide'
p102
sS'580910524793245696'
p103
S'Not physical landslide'
p104
sS'580965817380134912'
p105
S'Physical landslide'
p106
sS'580306685459357697'
p107
S'Not physical landslide'
p108
sS'580440792424157184'
p109
S'Physical landslide'
p110
sS'580397380517928960'
p111
S'Physical landslide'
p112
sS'580970927871033344'
p113
S'Not physical landslide'
p114
sS'582820202036985856'
p115
S'Physical landslide'
p116
sS'580338452576780289'
p117
S'Physical landslide'
p118
sS'580935599676383232'
p119
S'Physical landslide'
p120
sS'580551798248865792'
p121
S'Not physical landslide'
p122
sS'580369454506381313'
p123
S'Physical landslide'
p124
sS'580343702603845632'
p125
S'Physical landslide'
p126
sS'580573590703181825'
p127
S'Not physical landslide'
p128
sS'580572172487364609'
p129
S'Not physical landslide'
p130
sS'580171998996889600'
p131
S'Physical landslide'
p132
sS'580378401602670592'
p133
S'Not physical landslide'
p134
sS'580365718589431808'
p135
S'Physical landslide'
p136
sS'580393611675738114'
p137
S'Physical landslide'
p138
sS'580259883976556544'
p139
S'Not physical landslide'
p140
sS'580988709119496193'
p141
S'Not physical landslide'
p142
sS'580598825695465472'
p143
S'Physical landslide'
p144
sS'580918203984957440'
p145
S'Physical landslide'
p146
sS'580409475724627970'
p147
S'Physical landslide'
p148
sS'580176906684772352'
p149
S'Physical landslide'
p150
sS'580536207534383104'
p151
S'Physical landslide'
p152
sS'580579892250714112'
p153
S'Not physical landslide'
p154
sS'580537577532473344'
p155
S'Physical landslide'
p156
sS'580378975366733824'
p157
S'Physical landslide'
p158
sS'580274854416531456'
p159
S'Physical landslide'
p160
sS'580192649036107776'
p161
S'Physical landslide'
p162
sS'580316444656812034'
p163
S'Not physical landslide'
p164
sS'580439042128379904'
p165
S'Physical landslide'
p166
sS'580397787256393730'
p167
S'Physical landslide'
p168
sS'580381850104889344'
p169
S'Physical landslide'
p170
sS'580295517059571712'
p171
S'Not physical landslide'
p172
sS'580280938954952704'
p173
S'Physical landslide'
p174
sS'580238842353094656'
p175
S'Physical landslide'
p176
sS'580291870691049472'
p177
S'Not physical landslide'
p178
sS'580606733703249920'
p179
S'Physical landslide'
p180
sS'580905440579575808'
p181
S'Not physical landslide'
p182
sS'580333451376721920'
p183
S'Physical landslide'
p184
sS'580979794768044034'
p185
S'Physical landslide'
p186
sS'580346141981691904'
p187
S'Physical landslide'
p188
sS'580324501558304769'
p189
S'Not physical landslide'
p190
sS'580226908996124672'
p191
S'Physical landslide'
p192
sS'582793881307099136'
p193
S'Physical landslide'
p194
sS'580419451931213825'
p195
S'Physical landslide'
p196
sS'580196636284047360'
p197
S'Physical landslide'
p198
sS'580348639643590656'
p199
S'Physical landslide'
p200
sS'580244647349501953'
p201
S'Physical landslide'
p202
sS'580940913582698497'
p203
S'Not physical landslide'
p204
sS'580413185699766272'
p205
S'Physical landslide'
p206
sS'581000301496307712'
p207
S'Not physical landslide'
p208
sS'582766557169745920'
p209
S'Physical landslide'
p210
sS'582754052276113408'
p211
S'Physical landslide'
p212
sS'580921045948895232'
p213
S'Physical landslide'
p214
sS'580235094222311424'
p215
S'Physical landslide'
p216
sS'580891441750286336'
p217
S'Physical landslide'
p218
sS'580565245795672064'
p219
S'Physical landslide'
p220
sS'580175786914762752'
p221
S'Physical landslide'
p222
sS'580325042468339712'
p223
S'Physical landslide'
p224
sS'580190370375471104'
p225
S'Physical landslide'
p226
sS'580355902957494272'
p227
S'Physical landslide'
p228
sS'580180065687855105'
p229
S'Physical landslide'
p230
sS'580231018440982528'
p231
S'Physical landslide'
p232
sS'580348594491924481'
p233
S'Not physical landslide'
p234
sS'580196338173939712'
p235
S'Physical landslide'
p236
sS'580580393402966016'
p237
S'Physical landslide'
p238
s.