(dp0
S'576450021274443776'
p1
S'Not related or irrelevant'
p2
sS'576533273918115840'
p3
S'Personal updates'
p4
sS'576492121206603777'
p5
S'Sympathy and emotional support'
p6
sS'576423994225614848'
p7
S'Caution and advice'
p8
sS'576347728961110016'
p9
S'Caution and advice'
p10
sS'576452303592505344'
p11
S'Other relevant information'
p12
sS'576440036989751296'
p13
S'Other relevant information'
p14
sS'576429619722772480'
p15
S'Other relevant information'
p16
sS'576445162001289216'
p17
S'Not related or irrelevant'
p18
sS'576476713791565824'
p19
S'Not related or irrelevant'
p20
sS'576352922419658752'
p21
S'Sympathy and emotional support'
p22
sS'576641145880489984'
p23
S'Infrastructure and utilities'
p24
sS'576526252749778944'
p25
S'Other relevant information'
p26
sS'577306376701014016'
p27
S'Other relevant information'
p28
sS'576429654187249664'
p29
S'Caution and advice'
p30
sS'576336570174689280'
p31
S'Sympathy and emotional support'
p32
sS'576328227607736320'
p33
S'Not related or irrelevant'
p34
sS'576328429576065024'
p35
S'Not related or irrelevant'
p36
sS'577323056894468096'
p37
S'Other relevant information'
p38
sS'576455753671811072'
p39
S'Not related or irrelevant'
p40
sS'576453126326239233'
p41
S'Other relevant information'
p42
sS'576422487849832448'
p43
S'Not related or irrelevant'
p44
sS'576451600589303808'
p45
S'Not related or irrelevant'
p46
sS'576343844427550720'
p47
S'Not related or irrelevant'
p48
sS'576432737298464768'
p49
S'Not related or irrelevant'
p50
sS'576589233378312192'
p51
S'Other relevant information'
p52
sS'576441546062446592'
p53
S'Other relevant information'
p54
sS'576460616321277952'
p55
S'Injured or dead people'
p56
sS'576448862186909696'
p57
S'Sympathy and emotional support'
p58
sS'576574884026847232'
p59
S'Other relevant information'
p60
sS'576329137805127680'
p61
S'Not related or irrelevant'
p62
sS'576555168239460352'
p63
S'Injured or dead people'
p64
sS'576443970630381568'
p65
S'Not related or irrelevant'
p66
sS'576457775494008832'
p67
S'Not related or irrelevant'
p68
sS'576348045371154432'
p69
S'Not related or irrelevant'
p70
sS'576441508166901761'
p71
S'Not related or irrelevant'
p72
sS'576595732322455552'
p73
S'Other relevant information'
p74
sS'576348760432775168'
p75
S'Not related or irrelevant'
p76
sS'576358462998724608'
p77
S'Sympathy and emotional support'
p78
sS'576330937924993024'
p79
S'Not related or irrelevant'
p80
sS'576363439888547841'
p81
S'Not related or irrelevant'
p82
sS'576352044082196480'
p83
S'Money'
p84
sS'576455663687229440'
p85
S'Not related or irrelevant'
p86
sS'576629440253296640'
p87
S'Money'
p88
sS'576466546748485634'
p89
S'Injured or dead people'
p90
sS'576494627424878592'
p91
S'Other relevant information'
p92
sS'576443089130102784'
p93
S'Infrastructure and utilities'
p94
sS'576435683268624384'
p95
S'Not related or irrelevant'
p96
sS'576425272188207104'
p97
S'Not related or irrelevant'
p98
sS'576363665068138498'
p99
S'Caution and advice'
p100
sS'576536963429376000'
p101
S'Infrastructure and utilities'
p102
sS'576359145173098496'
p103
S'Caution and advice'
p104
sS'576323219445035009'
p105
S'Sympathy and emotional support'
p106
sS'576444082295296000'
p107
S'Not related or irrelevant'
p108
sS'576560194580135936'
p109
S'Displaced people'
p110
sS'576339867702951936'
p111
S'Not related or irrelevant'
p112
sS'576533711946166272'
p113
S'Displaced people'
p114
sS'578573588782931969'
p115
S'"Missing'
p116
sS'576433968637218817'
p117
S'Not related or irrelevant'
p118
sS'576478152806957056'
p119
S'Other relevant information'
p120
sS'576458099885637632'
p121
S'Other relevant information'
p122
sS'576573999536189440'
p123
S'Sympathy and emotional support'
p124
sS'576489456351449088'
p125
S'Other relevant information'
p126
sS'576327226687246336'
p127
S'Not related or irrelevant'
p128
sS'576455221494300672'
p129
S'Not related or irrelevant'
p130
sS'576353522247159808'
p131
S'Caution and advice'
p132
sS'576499204136312833'
p133
S'Caution and advice'
p134
sS'576507800462827520'
p135
S'Not related or irrelevant'
p136
sS'576438092065841152'
p137
S'Not related or irrelevant'
p138
sS'575736803677761536'
p139
S'Caution and advice'
p140
sS'576490917856579584'
p141
S'Caution and advice'
p142
sS'576468775228219392'
p143
S'Infrastructure and utilities'
p144
sS'576458545903898625'
p145
S'Not related or irrelevant'
p146
sS'577362977210257408'
p147
S'Volunteer or professional services'
p148
sS'576363396406190080'
p149
S'Sympathy and emotional support'
p150
sS'576442725127573505'
p151
S'Not related or irrelevant'
p152
sS'576498459445891072'
p153
S'Not related or irrelevant'
p154
sS'576593526579798016'
p155
S'Injured or dead people'
p156
sS'576432568675016704'
p157
S'Not related or irrelevant'
p158
sS'576442604428001280'
p159
S'Other relevant information'
p160
sS'576441388176404482'
p161
S'Infrastructure and utilities'
p162
sS'576422116393938944'
p163
S'Caution and advice'
p164
sS'576591907528159233'
p165
S'Other relevant information'
p166
sS'576356443156307968'
p167
S'Personal updates'
p168
sS'576434882995453952'
p169
S'Caution and advice'
p170
sS'576463975082168320'
p171
S'Personal updates'
p172
sS'576458767723790336'
p173
S'Other relevant information'
p174
sS'576434134995853312'
p175
S'Not related or irrelevant'
p176
sS'576443136139915264'
p177
S'Not related or irrelevant'
p178
sS'576430496172924928'
p179
S'Caution and advice'
p180
sS'577317871669239808'
p181
S'Displaced people'
p182
sS'576344478459498496'
p183
S'Not related or irrelevant'
p184
sS'576328281324175360'
p185
S'Sympathy and emotional support'
p186
sS'576457674008752128'
p187
S'Not related or irrelevant'
p188
sS'576600239307669504'
p189
S'Other relevant information'
p190
sS'576448480912211968'
p191
S'Not related or irrelevant'
p192
sS'576421558761160705'
p193
S'Other relevant information'
p194
sS'576435340505841664'
p195
S'Not related or irrelevant'
p196
sS'576340057583411200'
p197
S'Not related or irrelevant'
p198
sS'576469128321585152'
p199
S'Caution and advice'
p200
sS'576442340665098240'
p201
S'Not related or irrelevant'
p202
sS'577325952838975489'
p203
S'Volunteer or professional services'
p204
sS'576461518407094272'
p205
S'Not related or irrelevant'
p206
sS'576581346035822592'
p207
S'Injured or dead people'
p208
sS'576364654709993472'
p209
S'Not related or irrelevant'
p210
sS'576322102548135936'
p211
S'Not related or irrelevant'
p212
sS'576456059734265856'
p213
S'Personal updates'
p214
sS'577367472161992704'
p215
S'Volunteer or professional services'
p216
sS'576424618853998592'
p217
S'Infrastructure and utilities'
p218
sS'576324757471232000'
p219
S'Infrastructure and utilities'
p220
sS'576343692736225280'
p221
S'Not related or irrelevant'
p222
sS'576342027182456832'
p223
S'Not related or irrelevant'
p224
sS'576328571620298752'
p225
S'Caution and advice'
p226
sS'576448723984715776'
p227
S'Not related or irrelevant'
p228
sS'576430666633498624'
p229
S'Other relevant information'
p230
sS'576461918602416128'
p231
S'Other relevant information'
p232
sS'576450526742601729'
p233
S'Other relevant information'
p234
sS'576433757315543040'
p235
S'Other relevant information'
p236
sS'576455407566192641'
p237
S'Other relevant information'
p238
sS'576452498531045376'
p239
S'Sympathy and emotional support'
p240
sS'576441416936779776'
p241
S'Not related or irrelevant'
p242
sS'576480809613332480'
p243
S'Sympathy and emotional support'
p244
sS'576453274523590656'
p245
S'Sympathy and emotional support'
p246
sS'576350021186142210'
p247
S'Sympathy and emotional support'
p248
sS'576427601188782081'
p249
S'Other relevant information'
p250
sS'576447765225439232'
p251
S'Sympathy and emotional support'
p252
sS'576461135618011136'
p253
S'Other relevant information'
p254
sS'576356299618672640'
p255
S'Not related or irrelevant'
p256
sS'577337545270243328'
p257
S'Other relevant information'
p258
sS'576440131810381826'
p259
S'Not related or irrelevant'
p260
sS'576342630860124161'
p261
S'Not related or irrelevant'
p262
sS'576349905524011009'
p263
S'Other relevant information'
p264
sS'576434559039860737'
p265
S'Other relevant information'
p266
sS'576434915178233856'
p267
S'Not related or irrelevant'
p268
sS'576449114793111552'
p269
S'Caution and advice'
p270
sS'576433585391067139'
p271
S'Infrastructure and utilities'
p272
sS'575736037986578433'
p273
S'Other relevant information'
p274
sS'576323042986475520'
p275
S'Sympathy and emotional support'
p276
sS'576432318283423744'
p277
S'Caution and advice'
p278
sS'577391979648135168'
p279
S'Infrastructure and utilities'
p280
sS'576426144049733632'
p281
S'Not related or irrelevant'
p282
sS'577335966546993152'
p283
S'Injured or dead people'
p284
sS'577365784118198272'
p285
S'Volunteer or professional services'
p286
sS'576450697710997504'
p287
S'Caution and advice'
p288
sS'576440764768632832'
p289
S'Not related or irrelevant'
p290
sS'576449056085569536'
p291
S'Sympathy and emotional support'
p292
sS'576441161096658944'
p293
S'Other relevant information'
p294
sS'576457415836741632'
p295
S'Not related or irrelevant'
p296
sS'576545168624623616'
p297
S'Infrastructure and utilities'
p298
sS'576481843945476096'
p299
S'Other relevant information'
p300
sS'576365175101468672'
p301
S'Caution and advice'
p302
sS'576343114463363072'
p303
S'Sympathy and emotional support'
p304
sS'576442148511309825'
p305
S'Not related or irrelevant'
p306
sS'576438369351135232'
p307
S'Other relevant information'
p308
sS'576446700467834880'
p309
S'Not related or irrelevant'
p310
sS'576365144961339392'
p311
S'Caution and advice'
p312
sS'577352151019728896'
p313
S'Sympathy and emotional support'
p314
sS'576449564569440257'
p315
S'Sympathy and emotional support'
p316
sS'576334008298115073'
p317
S'Other relevant information'
p318
sS'576544811877994496'
p319
S'Other relevant information'
p320
sS'576539711713501184'
p321
S'Other relevant information'
p322
sS'576436192717176832'
p323
S'Caution and advice'
p324
sS'576342510345158656'
p325
S'Caution and advice'
p326
sS'576452841935646721'
p327
S'Not related or irrelevant'
p328
sS'576434932433588224'
p329
S'Not related or irrelevant'
p330
sS'577385811827691520'
p331
S'Volunteer or professional services'
p332
sS'576579309743140865'
p333
S'Other relevant information'
p334
sS'576332394363379712'
p335
S'Not related or irrelevant'
p336
sS'576444791212376064'
p337
S'Personal updates'
p338
sS'576431771140620288'
p339
S'Caution and advice'
p340
sS'576582202911232000'
p341
S'Other relevant information'
p342
sS'576426347632988160'
p343
S'Not related or irrelevant'
p344
sS'576456603131506688'
p345
S'Not related or irrelevant'
p346
sS'576359856522821633'
p347
S'Caution and advice'
p348
sS'576508267964203008'
p349
S'Other relevant information'
p350
sS'576457772406951936'
p351
S'Not related or irrelevant'
p352
sS'576456061600833536'
p353
S'Other relevant information'
p354
sS'576361469115158528'
p355
S'Sympathy and emotional support'
p356
sS'576530438497247233'
p357
S'Other relevant information'
p358
sS'576322420002463744'
p359
S'Not related or irrelevant'
p360
sS'576364967093403648'
p361
S'Not related or irrelevant'
p362
sS'577294869997088768'
p363
S'Shelter and supplies'
p364
sS'577377613896900608'
p365
S'Displaced people'
p366
sS'576337082072727552'
p367
S'Caution and advice'
p368
sS'576489751756206081'
p369
S'Other relevant information'
p370
sS'576619380567453696'
p371
S'Personal updates'
p372
sS'576431401077075969'
p373
S'Not related or irrelevant'
p374
sS'576484803312242688'
p375
S'Personal updates'
p376
sS'576439091513823232'
p377
S'Not related or irrelevant'
p378
sS'576456230736130048'
p379
S'Injured or dead people'
p380
sS'577350899896471552'
p381
S'Displaced people'
p382
sS'576429969393496064'
p383
S'Not related or irrelevant'
p384
sS'577328753648390144'
p385
S'Displaced people'
p386
sS'576481056238485504'
p387
S'Other relevant information'
p388
sS'576501842445611008'
p389
S'Sympathy and emotional support'
p390
sS'577369849292189696'
p391
S'Infrastructure and utilities'
p392
sS'576467015591936001'
p393
S'Infrastructure and utilities'
p394
sS'576323529928388608'
p395
S'Personal updates'
p396
sS'576459307719507968'
p397
S'Other relevant information'
p398
sS'576353289903562752'
p399
S'Caution and advice'
p400
sS'576457756690886656'
p401
S'Not related or irrelevant'
p402
sS'576518871823302658'
p403
S'Personal updates'
p404
sS'576353502957428736'
p405
S'Caution and advice'
p406
sS'577370194412216320'
p407
S'Injured or dead people'
p408
sS'576425382343258112'
p409
S'Not related or irrelevant'
p410
sS'576440226018562048'
p411
S'Other relevant information'
p412
sS'576366241998319616'
p413
S'Caution and advice'
p414
sS'576333430620704768'
p415
S'Not related or irrelevant'
p416
sS'577346702824214528'
p417
S'Infrastructure and utilities'
p418
sS'576330243134210048'
p419
S'Other relevant information'
p420
sS'576366077116047360'
p421
S'Caution and advice'
p422
sS'576434721703460864'
p423
S'Not related or irrelevant'
p424
sS'576333099790790656'
p425
S'Not related or irrelevant'
p426
sS'577359401910079488'
p427
S'Volunteer or professional services'
p428
sS'576362132025032704'
p429
S'Sympathy and emotional support'
p430
sS'576508474420518912'
p431
S'Other relevant information'
p432
sS'576449439788724224'
p433
S'Not related or irrelevant'
p434
sS'576492074910007296'
p435
S'Sympathy and emotional support'
p436
sS'576345598397259776'
p437
S'Caution and advice'
p438
sS'576347885698195456'
p439
S'Not related or irrelevant'
p440
sS'576441849230991360'
p441
S'Displaced people'
p442
sS'576339118298365952'
p443
S'Caution and advice'
p444
sS'576447574996992000'
p445
S'Not related or irrelevant'
p446
sS'576561289469657088'
p447
S'Sympathy and emotional support'
p448
sS'576460258710683648'
p449
S'Sympathy and emotional support'
p450
sS'576617791484260352'
p451
S'Other relevant information'
p452
sS'576461729183461376'
p453
S'Not related or irrelevant'
p454
sS'576436888690565120'
p455
S'Not related or irrelevant'
p456
sS'576350072851451904'
p457
S'Caution and advice'
p458
sS'576427931930632192'
p459
S'Not related or irrelevant'
p460
sS'576596600065105921'
p461
S'Other relevant information'
p462
sS'576445725355040768'
p463
S'Other relevant information'
p464
sS'576345983300202496'
p465
S'Not related or irrelevant'
p466
sS'576455460297003008'
p467
S'Not related or irrelevant'
p468
sS'576431776349868032'
p469
S'Not related or irrelevant'
p470
sS'576421733344768000'
p471
S'Other relevant information'
p472
sS'576435579874877441'
p473
S'Volunteer or professional services'
p474
sS'576352627451101184'
p475
S'Not related or irrelevant'
p476
sS'577306994924609537'
p477
S'Displaced people'
p478
sS'576448494984171520'
p479
S'Not related or irrelevant'
p480
sS'576330278009901056'
p481
S'Caution and advice'
p482
sS'576456414412947457'
p483
S'Not related or irrelevant'
p484
sS'576329125234761728'
p485
S'Not related or irrelevant'
p486
sS'576437609221615617'
p487
S'Not related or irrelevant'
p488
sS'576363198317654016'
p489
S'Sympathy and emotional support'
p490
sS'576430166131519488'
p491
S'Other relevant information'
p492
sS'576451561334829056'
p493
S'Not related or irrelevant'
p494
sS'576421974332698624'
p495
S'Other relevant information'
p496
sS'576436690211868672'
p497
S'Other relevant information'
p498
sS'576430124377247744'
p499
S'Not related or irrelevant'
p500
sS'576454054446030849'
p501
S'Not related or irrelevant'
p502
sS'576421468227125249'
p503
S'Not related or irrelevant'
p504
sS'576352016462659584'
p505
S'Not related or irrelevant'
p506
sS'576367369410465792'
p507
S'Other relevant information'
p508
sS'576346624508579840'
p509
S'Caution and advice'
p510
sS'576452457682853888'
p511
S'Other relevant information'
p512
sS'576326676537221120'
p513
S'Caution and advice'
p514
sS'576456706865102848'
p515
S'Not related or irrelevant'
p516
sS'576332040460718080'
p517
S'Displaced people'
p518
sS'576529213257220096'
p519
S'Displaced people'
p520
sS'576463785839312896'
p521
S'Other relevant information'
p522
sS'576451360444428288'
p523
S'Not related or irrelevant'
p524
sS'576441887386652672'
p525
S'Other relevant information'
p526
sS'576327367645360128'
p527
S'Caution and advice'
p528
sS'576450438234382336'
p529
S'Not related or irrelevant'
p530
sS'576451879552471040'
p531
S'Other relevant information'
p532
sS'576330789899657216'
p533
S'Not related or irrelevant'
p534
sS'576347991612596224'
p535
S'Sympathy and emotional support'
p536
sS'576534047779786752'
p537
S'Injured or dead people'
p538
sS'576442003480670208'
p539
S'Not related or irrelevant'
p540
sS'576448545844137985'
p541
S'Not related or irrelevant'
p542
sS'576464888979202049'
p543
S'Sympathy and emotional support'
p544
sS'576351826422992896'
p545
S'Personal updates'
p546
sS'577329417438920704'
p547
S'Infrastructure and utilities'
p548
sS'576453790250860544'
p549
S'Other relevant information'
p550
sS'576496881301356544'
p551
S'Not related or irrelevant'
p552
sS'576431420752683008'
p553
S'Not related or irrelevant'
p554
sS'576430733079646208'
p555
S'Not related or irrelevant'
p556
sS'576633565569404928'
p557
S'Injured or dead people'
p558
sS'575736452413136897'
p559
S'Caution and advice'
p560
sS'576347489294417920'
p561
S'Sympathy and emotional support'
p562
sS'576431148508831744'
p563
S'Not related or irrelevant'
p564
sS'577372024407924736'
p565
S'Infrastructure and utilities'
p566
sS'576440572015206401'
p567
S'Caution and advice'
p568
sS'577294119241826304'
p569
S'Shelter and supplies'
p570
sS'576593444266708992'
p571
S'Other relevant information'
p572
sS'576438601619226625'
p573
S'Not related or irrelevant'
p574
sS'576431900207640576'
p575
S'Not related or irrelevant'
p576
sS'576425858430205952'
p577
S'Sympathy and emotional support'
p578
sS'576354757071233024'
p579
S'Caution and advice'
p580
sS'576454651119288322'
p581
S'Not related or irrelevant'
p582
sS'576445680937406465'
p583
S'Not related or irrelevant'
p584
sS'576452150999543808'
p585
S'Not related or irrelevant'
p586
sS'576457724088737794'
p587
S'Not related or irrelevant'
p588
sS'577375431554297856'
p589
S'Displaced people'
p590
sS'576460887688634368'
p591
S'Sympathy and emotional support'
p592
sS'576448523962589185'
p593
S'Not related or irrelevant'
p594
sS'576451465251844096'
p595
S'Not related or irrelevant'
p596
sS'576442687546658816'
p597
S'Not related or irrelevant'
p598
sS'576450288527110144'
p599
S'Other relevant information'
p600
sS'576434948263059456'
p601
S'Not related or irrelevant'
p602
sS'576463365771378689'
p603
S'Caution and advice'
p604
sS'576423650808741888'
p605
S'Other relevant information'
p606
sS'576422101617344512'
p607
S'Caution and advice'
p608
sS'576443417376378881'
p609
S'Not related or irrelevant'
p610
sS'576458578053185536'
p611
S'Not related or irrelevant'
p612
sS'576457273821827073'
p613
S'Other relevant information'
p614
sS'576442927230140416'
p615
S'Not related or irrelevant'
p616
sS'576427444846010368'
p617
S'Sympathy and emotional support'
p618
sS'576340056773955584'
p619
S'Not related or irrelevant'
p620
sS'576473190098157568'
p621
S'Other relevant information'
p622
sS'576463528170680321'
p623
S'Caution and advice'
p624
sS'576445089003749376'
p625
S'Injured or dead people'
p626
sS'576335718785527809'
p627
S'Not related or irrelevant'
p628
sS'576458467684323329'
p629
S'Not related or irrelevant'
p630
sS'576562053080547328'
p631
S'Injured or dead people'
p632
sS'576455206558380033'
p633
S'Not related or irrelevant'
p634
sS'576441778125025281'
p635
S'Other relevant information'
p636
sS'576446080017125376'
p637
S'Other relevant information'
p638
sS'576501065966870528'
p639
S'Other relevant information'
p640
sS'576352009722294272'
p641
S'Sympathy and emotional support'
p642
sS'576453526752215040'
p643
S'Other relevant information'
p644
sS'577320217870630912'
p645
S'Injured or dead people'
p646
sS'576354957915389952'
p647
S'Sympathy and emotional support'
p648
sS'576444195872874496'
p649
S'Not related or irrelevant'
p650
sS'576536354412056576'
p651
S'Displaced people'
p652
sS'576366648308862976'
p653
S'Caution and advice'
p654
sS'576491219037118464'
p655
S'Other relevant information'
p656
sS'576457771685560320'
p657
S'Not related or irrelevant'
p658
sS'576438604890689536'
p659
S'Not related or irrelevant'
p660
sS'576441760362041344'
p661
S'Not related or irrelevant'
p662
sS'576575147475271681'
p663
S'Other relevant information'
p664
sS'576428271862202368'
p665
S'Not related or irrelevant'
p666
sS'576457642047979520'
p667
S'Sympathy and emotional support'
p668
sS'576487629396525056'
p669
S'Other relevant information'
p670
sS'576446755631284224'
p671
S'Not related or irrelevant'
p672
sS'576440154941952000'
p673
S'Caution and advice'
p674
sS'576431684880625664'
p675
S'Not related or irrelevant'
p676
sS'576578405082099713'
p677
S'Other relevant information'
p678
sS'576473682102484992'
p679
S'Injured or dead people'
p680
sS'577360556392194048'
p681
S'Displaced people'
p682
sS'576341007366754304'
p683
S'Not related or irrelevant'
p684
sS'577323918106710016'
p685
S'Money'
p686
sS'576461794975178752'
p687
S'Injured or dead people'
p688
sS'576461017187745792'
p689
S'Other relevant information'
p690
sS'576451987413204992'
p691
S'Volunteer or professional services'
p692
sS'576621418256863232'
p693
S'Sympathy and emotional support'
p694
sS'576436175314911232'
p695
S'Not related or irrelevant'
p696
sS'576328425960521728'
p697
S'Not related or irrelevant'
p698
sS'576440139221581827'
p699
S'Infrastructure and utilities'
p700
sS'576444896829112322'
p701
S'Not related or irrelevant'
p702
sS'576479179513856001'
p703
S'Other relevant information'
p704
sS'577390180488871936'
p705
S'Sympathy and emotional support'
p706
sS'576543832973570048'
p707
S'Sympathy and emotional support'
p708
sS'576357182486228992'
p709
S'Caution and advice'
p710
sS'576421746988982272'
p711
S'Not related or irrelevant'
p712
sS'577372775360421889'
p713
S'Volunteer or professional services'
p714
sS'576433311297372160'
p715
S'Sympathy and emotional support'
p716
sS'576351003252916224'
p717
S'Caution and advice'
p718
sS'576342678662688768'
p719
S'Not related or irrelevant'
p720
sS'576362544811528192'
p721
S'Caution and advice'
p722
sS'576441577234673664'
p723
S'Other relevant information'
p724
sS'576453226955972608'
p725
S'Not related or irrelevant'
p726
sS'576483967727087616'
p727
S'Other relevant information'
p728
sS'576579233864163328'
p729
S'Other relevant information'
p730
sS'576353887889723392'
p731
S'Caution and advice'
p732
sS'576337672244981760'
p733
S'Other relevant information'
p734
sS'576432696139870208'
p735
S'Other relevant information'
p736
sS'576437978941165568'
p737
S'Other relevant information'
p738
sS'576422336397619201'
p739
S'Other relevant information'
p740
sS'576563004814155776'
p741
S'Other relevant information'
p742
sS'576446173893906434'
p743
S'Other relevant information'
p744
sS'576437314064240640'
p745
S'Not related or irrelevant'
p746
sS'576453985663475712'
p747
S'Injured or dead people'
p748
sS'576436289463025664'
p749
S'Not related or irrelevant'
p750
sS'576440615958814720'
p751
S'Not related or irrelevant'
p752
sS'576442326106652672'
p753
S'Other relevant information'
p754
sS'576362114937270272'
p755
S'Caution and advice'
p756
sS'576422707841097728'
p757
S'Not related or irrelevant'
p758
sS'576360468266151937'
p759
S'Caution and advice'
p760
sS'576459253361311744'
p761
S'Other relevant information'
p762
sS'576451715785879553'
p763
S'Other relevant information'
p764
sS'576446322515017728'
p765
S'Not related or irrelevant'
p766
sS'576453624047374336'
p767
S'Not related or irrelevant'
p768
sS'576326787652784128'
p769
S'Other relevant information'
p770
sS'576440929084706817'
p771
S'Not related or irrelevant'
p772
sS'576427136275206144'
p773
S'Other relevant information'
p774
sS'576449693825294337'
p775
S'Not related or irrelevant'
p776
sS'575736693820514304'
p777
S'Caution and advice'
p778
sS'576590954255224832'
p779
S'Injured or dead people'
p780
sS'576594238881812480'
p781
S'Other relevant information'
p782
sS'577307265268469760'
p783
S'Injured or dead people'
p784
sS'577393222378528768'
p785
S'Injured or dead people'
p786
sS'576354657477472256'
p787
S'Not related or irrelevant'
p788
sS'576346275450220544'
p789
S'Not related or irrelevant'
p790
sS'576451209592111104'
p791
S'Sympathy and emotional support'
p792
sS'577304574597292032'
p793
S'"Missing'
p794
sS'576524499752910848'
p795
S'Other relevant information'
p796
sS'576421740701573120'
p797
S'Other relevant information'
p798
sS'576558385073508352'
p799
S'Injured or dead people'
p800
sS'576449837639593984'
p801
S'Not related or irrelevant'
p802
sS'576434838506381312'
p803
S'Not related or irrelevant'
p804
sS'576537335564627968'
p805
S'Sympathy and emotional support'
p806
sS'576435029246676992'
p807
S'Displaced people'
p808
sS'576365433600638978'
p809
S'Caution and advice'
p810
sS'576431522678472705'
p811
S'Not related or irrelevant'
p812
sS'576499727216304128'
p813
S'Sympathy and emotional support'
p814
sS'576450461244489728'
p815
S'Not related or irrelevant'
p816
sS'576429486574469120'
p817
S'Other relevant information'
p818
sS'576491981431529473'
p819
S'Not related or irrelevant'
p820
sS'576421634090921984'
p821
S'Not related or irrelevant'
p822
sS'576518726050148352'
p823
S'Other relevant information'
p824
sS'577307088910585856'
p825
S'Displaced people'
p826
sS'576453515477843968'
p827
S'Not related or irrelevant'
p828
sS'576495987172098048'
p829
S'Sympathy and emotional support'
p830
sS'576531592585166848'
p831
S'Not related or irrelevant'
p832
sS'576351082286190593'
p833
S'Sympathy and emotional support'
p834
sS'576436749720633344'
p835
S'Not related or irrelevant'
p836
sS'576333245370904576'
p837
S'Not related or irrelevant'
p838
sS'576498901731020800'
p839
S'Other relevant information'
p840
sS'576458066822107136'
p841
S'Volunteer or professional services'
p842
sS'577391346064867328'
p843
S'Other relevant information'
p844
sS'576422072106283008'
p845
S'Not related or irrelevant'
p846
sS'576445214564331520'
p847
S'Not related or irrelevant'
p848
sS'576364659403522048'
p849
S'Caution and advice'
p850
sS'576438242993664001'
p851
S'Not related or irrelevant'
p852
sS'576550196877922305'
p853
S'Other relevant information'
p854
sS'576439600622731264'
p855
S'Not related or irrelevant'
p856
sS'576459860742660096'
p857
S'Not related or irrelevant'
p858
sS'576440955152166912'
p859
S'Sympathy and emotional support'
p860
sS'576442367558885376'
p861
S'Not related or irrelevant'
p862
sS'576575825593679872'
p863
S'Other relevant information'
p864
sS'578478445014863872'
p865
S'Other relevant information'
p866
sS'576645982907060224'
p867
S'Sympathy and emotional support'
p868
sS'576581972719337472'
p869
S'Sympathy and emotional support'
p870
sS'576441705857196033'
p871
S'Not related or irrelevant'
p872
sS'576447345283432448'
p873
S'Other relevant information'
p874
sS'576456920590090240'
p875
S'Not related or irrelevant'
p876
sS'576462951420395520'
p877
S'Other relevant information'
p878
sS'577323469471264768'
p879
S'Volunteer or professional services'
p880
sS'576358311618088960'
p881
S'Sympathy and emotional support'
p882
sS'576562100119580672'
p883
S'Caution and advice'
p884
sS'576558220799447040'
p885
S'Injured or dead people'
p886
sS'576331469775306752'
p887
S'Volunteer or professional services'
p888
sS'576554520982896640'
p889
S'Other relevant information'
p890
sS'576325219536625665'
p891
S'Sympathy and emotional support'
p892
sS'576421426627899392'
p893
S'Sympathy and emotional support'
p894
sS'577387035499048960'
p895
S'Shelter and supplies'
p896
sS'576498971830431745'
p897
S'Not related or irrelevant'
p898
sS'577380439817469953'
p899
S'Infrastructure and utilities'
p900
sS'576457948878282752'
p901
S'Not related or irrelevant'
p902
sS'576457532534738944'
p903
S'Not related or irrelevant'
p904
sS'576436633286774784'
p905
S'Not related or irrelevant'
p906
sS'576559726424502272'
p907
S'Other relevant information'
p908
sS'576454794916794369'
p909
S'Not related or irrelevant'
p910
sS'576438720003502080'
p911
S'Other relevant information'
p912
sS'576352337561849856'
p913
S'Personal updates'
p914
sS'576452670556364801'
p915
S'Not related or irrelevant'
p916
sS'576451696546680832'
p917
S'Not related or irrelevant'
p918
sS'576446777773150208'
p919
S'Not related or irrelevant'
p920
sS'576498938045444096'
p921
S'Sympathy and emotional support'
p922
sS'576344514610200576'
p923
S'Caution and advice'
p924
sS'576335781024808960'
p925
S'Sympathy and emotional support'
p926
sS'576447282498953217'
p927
S'Not related or irrelevant'
p928
sS'576446028368474112'
p929
S'Not related or irrelevant'
p930
sS'576349996229926912'
p931
S'Sympathy and emotional support'
p932
sS'576340146385121280'
p933
S'Not related or irrelevant'
p934
sS'576560012312649729'
p935
S'Not related or irrelevant'
p936
sS'577372497634549760'
p937
S'Infrastructure and utilities'
p938
sS'576440963545063425'
p939
S'Other relevant information'
p940
sS'576322735011471360'
p941
S'Not related or irrelevant'
p942
sS'576344661335281664'
p943
S'Sympathy and emotional support'
p944
sS'576435280644714496'
p945
S'Not related or irrelevant'
p946
sS'576439413888008192'
p947
S'Not related or irrelevant'
p948
sS'576345714390884352'
p949
S'Sympathy and emotional support'
p950
sS'576432415230402561'
p951
S'Not related or irrelevant'
p952
sS'576435251045511169'
p953
S'Caution and advice'
p954
sS'576436496145608704'
p955
S'Other relevant information'
p956
sS'576452002328219648'
p957
S'Other relevant information'
p958
sS'576453077374345216'
p959
S'Not related or irrelevant'
p960
sS'576490834083737600'
p961
S'Other relevant information'
p962
sS'576423752675684352'
p963
S'Not related or irrelevant'
p964
sS'576433323343478784'
p965
S'Not related or irrelevant'
p966
sS'576363861319819265'
p967
S'Caution and advice'
p968
sS'576426541883621377'
p969
S'Not related or irrelevant'
p970
sS'577362393472208896'
p971
S'Other relevant information'
p972
sS'576437680994537472'
p973
S'Other relevant information'
p974
sS'576434938142048256'
p975
S'Not related or irrelevant'
p976
sS'577350178618802176'
p977
S'Volunteer or professional services'
p978
sS'576352385456611328'
p979
S'Other relevant information'
p980
sS'577336060021207040'
p981
S'Volunteer or professional services'
p982
sS'576501735453151232'
p983
S'Personal updates'
p984
sS'576431380822765568'
p985
S'Not related or irrelevant'
p986
sS'576461953251602432'
p987
S'Not related or irrelevant'
p988
sS'576357239948066816'
p989
S'Sympathy and emotional support'
p990
sS'576428809983008768'
p991
S'Not related or irrelevant'
p992
sS'576324911922204672'
p993
S'Displaced people'
p994
sS'576525473628307457'
p995
S'Sympathy and emotional support'
p996
sS'576596637511876608'
p997
S'Other relevant information'
p998
sS'576348116103790592'
p999
S'Other relevant information'
p1000
sS'576481283179569152'
p1001
S'Other relevant information'
p1002
sS'576488909393117184'
p1003
S'Injured or dead people'
p1004
sS'576428649282310144'
p1005
S'Other relevant information'
p1006
sS'576538249134522368'
p1007
S'Injured or dead people'
p1008
sS'576446249739509761'
p1009
S'Not related or irrelevant'
p1010
sS'576439433009958912'
p1011
S'Not related or irrelevant'
p1012
sS'577376397817225216'
p1013
S'Volunteer or professional services'
p1014
sS'576456142072627200'
p1015
S'Other relevant information'
p1016
sS'576457536959832064'
p1017
S'Not related or irrelevant'
p1018
sS'576435071650938880'
p1019
S'Not related or irrelevant'
p1020
sS'576363090536718336'
p1021
S'Caution and advice'
p1022
sS'576474766347018240'
p1023
S'Other relevant information'
p1024
sS'576451466661101568'
p1025
S'Other relevant information'
p1026
sS'576423773974470656'
p1027
S'Other relevant information'
p1028
sS'576421907672760320'
p1029
S'Other relevant information'
p1030
sS'576443501220470784'
p1031
S'Other relevant information'
p1032
sS'576571756217024513'
p1033
S'Infrastructure and utilities'
p1034
sS'577378743661895680'
p1035
S'Sympathy and emotional support'
p1036
sS'576332801072439297'
p1037
S'Personal updates'
p1038
sS'576470602577526784'
p1039
S'Other relevant information'
p1040
sS'576439248833802240'
p1041
S'Caution and advice'
p1042
sS'576355505771253760'
p1043
S'Not related or irrelevant'
p1044
sS'576434808462671872'
p1045
S'Not related or irrelevant'
p1046
sS'576356091753185280'
p1047
S'Not related or irrelevant'
p1048
sS'576445235846356992'
p1049
S'Not related or irrelevant'
p1050
sS'576471492944334848'
p1051
S'Sympathy and emotional support'
p1052
sS'576352503089926145'
p1053
S'Sympathy and emotional support'
p1054
sS'576493816783331328'
p1055
S'Other relevant information'
p1056
sS'576429767873937408'
p1057
S'Caution and advice'
p1058
sS'576453591080308736'
p1059
S'Not related or irrelevant'
p1060
sS'576480161270484992'
p1061
S'Other relevant information'
p1062
sS'576425798791401473'
p1063
S'Caution and advice'
p1064
sS'576335650397380608'
p1065
S'Caution and advice'
p1066
sS'577369483209211904'
p1067
S'Shelter and supplies'
p1068
sS'576446279263203328'
p1069
S'Sympathy and emotional support'
p1070
sS'577326434752053248'
p1071
S'Infrastructure and utilities'
p1072
sS'576428649710166016'
p1073
S'Caution and advice'
p1074
sS'576345153520017408'
p1075
S'Not related or irrelevant'
p1076
sS'576354332553011200'
p1077
S'Sympathy and emotional support'
p1078
sS'576447294637129728'
p1079
S'Not related or irrelevant'
p1080
sS'576334938183634944'
p1081
S'Not related or irrelevant'
p1082
sS'576550923377360896'
p1083
S'Sympathy and emotional support'
p1084
sS'576337548403834880'
p1085
S'Not related or irrelevant'
p1086
sS'576445262006104065'
p1087
S'Not related or irrelevant'
p1088
sS'576494213166211072'
p1089
S'Other relevant information'
p1090
sS'576485678667554816'
p1091
S'Other relevant information'
p1092
sS'576587328761671680'
p1093
S'Personal updates'
p1094
sS'576339094147457024'
p1095
S'Not related or irrelevant'
p1096
sS'576322101486886912'
p1097
S'Not related or irrelevant'
p1098
sS'576323145537228800'
p1099
S'Not related or irrelevant'
p1100
sS'576448992969682944'
p1101
S'Not related or irrelevant'
p1102
sS'576620689395855361'
p1103
S'Money'
p1104
sS'576492020790751232'
p1105
S'Other relevant information'
p1106
sS'576439582897651712'
p1107
S'Not related or irrelevant'
p1108
sS'576443217325002753'
p1109
S'Not related or irrelevant'
p1110
sS'576355966876270593'
p1111
S'Not related or irrelevant'
p1112
sS'576479131178680320'
p1113
S'Other relevant information'
p1114
sS'576471091583049728'
p1115
S'Injured or dead people'
p1116
sS'576332956177817600'
p1117
S'Not related or irrelevant'
p1118
sS'576457938166001664'
p1119
S'Not related or irrelevant'
p1120
sS'576488021979230208'
p1121
S'Personal updates'
p1122
sS'576329516311818240'
p1123
S'Caution and advice'
p1124
sS'576441787004424192'
p1125
S'Caution and advice'
p1126
sS'576457753876684800'
p1127
S'Other relevant information'
p1128
sS'576521752869666816'
p1129
S'Sympathy and emotional support'
p1130
sS'576564100655874048'
p1131
S'Other relevant information'
p1132
sS'576452223686709248'
p1133
S'Money'
p1134
sS'577341449227804672'
p1135
S'Displaced people'
p1136
sS'576351374952235008'
p1137
S'Other relevant information'
p1138
sS'575736502006603776'
p1139
S'Caution and advice'
p1140
sS'576429099004080129'
p1141
S'Not related or irrelevant'
p1142
sS'576429807665225728'
p1143
S'Not related or irrelevant'
p1144
sS'576568873425731584'
p1145
S'Caution and advice'
p1146
sS'576507227340697600'
p1147
S'Other relevant information'
p1148
sS'576334480593461249'
p1149
S'Sympathy and emotional support'
p1150
sS'576430193348329473'
p1151
S'Not related or irrelevant'
p1152
sS'576487784120217600'
p1153
S'Sympathy and emotional support'
p1154
sS'576485052797693952'
p1155
S'Infrastructure and utilities'
p1156
sS'576459797270138880'
p1157
S'Other relevant information'
p1158
sS'577396878242885632'
p1159
S'Sympathy and emotional support'
p1160
sS'576356177933529088'
p1161
S'Not related or irrelevant'
p1162
sS'576559662398447616'
p1163
S'Not related or irrelevant'
p1164
sS'577379272530239488'
p1165
S'Volunteer or professional services'
p1166
sS'578469312328957952'
p1167
S'"Missing'
p1168
sS'576445746418819072'
p1169
S'Other relevant information'
p1170
sS'576440740953214976'
p1171
S'Not related or irrelevant'
p1172
sS'576584189434322944'
p1173
S'Not related or irrelevant'
p1174
sS'576344945780461568'
p1175
S'Caution and advice'
p1176
sS'576431923087745025'
p1177
S'Not related or irrelevant'
p1178
sS'576452432265265152'
p1179
S'Other relevant information'
p1180
sS'577402611655147520'
p1181
S'Other relevant information'
p1182
sS'576364946088296448'
p1183
S'Sympathy and emotional support'
p1184
sS'576422428085215232'
p1185
S'Not related or irrelevant'
p1186
sS'576456083599937536'
p1187
S'Not related or irrelevant'
p1188
sS'576451151790505984'
p1189
S'Not related or irrelevant'
p1190
sS'576433285124911104'
p1191
S'Not related or irrelevant'
p1192
sS'576441601909751809'
p1193
S'Not related or irrelevant'
p1194
sS'576511566905880576'
p1195
S'Sympathy and emotional support'
p1196
sS'576450068011597824'
p1197
S'Not related or irrelevant'
p1198
sS'577337350256218112'
p1199
S'Injured or dead people'
p1200
s.