(dp0
S'540030079548395520'
p1
S'donation_needs_or_offers_or_volunteering_services'
p2
sS'540020975232765952'
p3
S'not_related_or_irrelevant'
p4
sS'540029417519472640'
p5
S'donation_needs_or_offers_or_volunteering_services'
p6
sS'540029258492424193'
p7
S'infrastructure_and_utilities_damage'
p8
sS'540009915465494528'
p9
S'other_useful_information'
p10
sS'540011709239287809'
p11
S'caution_and_advice'
p12
sS'540036928339730432'
p13
S'infrastructure_and_utilities_damage'
p14
sS'540035761572040704'
p15
S'other_useful_information'
p16
sS'540034489872052224'
p17
S'displaced_people_and_evacuations'
p18
sS'540017519306612737'
p19
S'caution_and_advice'
p20
sS'540033782984609792'
p21
S'sympathy_and_emotional_support'
p22
sS'540031391358918656'
p23
S'other_useful_information'
p24
sS'540008449904365568'
p25
S'sympathy_and_emotional_support'
p26
sS'540042263544733696'
p27
S'sympathy_and_emotional_support'
p28
sS'540037844324995072'
p29
S'other_useful_information'
p30
sS'540027903509925888'
p31
S'other_useful_information'
p32
sS'540038610062295040'
p33
S'infrastructure_and_utilities_damage'
p34
sS'540038380633874432'
p35
S'other_useful_information'
p36
sS'540044178651361280'
p37
S'injured_or_dead_people'
p38
sS'540037234028601344'
p39
S'other_useful_information'
p40
sS'540027824380203009'
p41
S'other_useful_information'
p42
sS'540013817129086976'
p43
S'not_related_or_irrelevant'
p44
sS'540041448964366336'
p45
S'other_useful_information'
p46
sS'540038159707303936'
p47
S'caution_and_advice'
p48
sS'540038722058608640'
p49
S'other_useful_information'
p50
sS'540009424954216448'
p51
S'not_related_or_irrelevant'
p52
sS'540007404134756353'
p53
S'displaced_people_and_evacuations'
p54
sS'540023847366299648'
p55
S'not_related_or_irrelevant'
p56
sS'540025030382338049'
p57
S'sympathy_and_emotional_support'
p58
sS'540024443578245120'
p59
S'displaced_people_and_evacuations'
p60
sS'540008592980844544'
p61
S'injured_or_dead_people'
p62
sS'540038465123921920'
p63
S'other_useful_information'
p64
sS'540025150117122049'
p65
S'other_useful_information'
p66
sS'540015418237124608'
p67
S'not_related_or_irrelevant'
p68
sS'540021200043245571'
p69
S'caution_and_advice'
p70
sS'540041259008524288'
p71
S'other_useful_information'
p72
sS'540034418929192961'
p73
S'displaced_people_and_evacuations'
p74
sS'540046751001219072'
p75
S'other_useful_information'
p76
sS'540010663532179456'
p77
S'displaced_people_and_evacuations'
p78
sS'540006594335875072'
p79
S'displaced_people_and_evacuations'
p80
sS'540008691764699136'
p81
S'caution_and_advice'
p82
sS'540039976629465088'
p83
S'donation_needs_or_offers_or_volunteering_services'
p84
sS'540004523452792833'
p85
S'sympathy_and_emotional_support'
p86
sS'540034783732969472'
p87
S'not_related_or_irrelevant'
p88
sS'540044133453549568'
p89
S'not_related_or_irrelevant'
p90
sS'540008343377440769'
p91
S'other_useful_information'
p92
sS'540021680110706688'
p93
S'displaced_people_and_evacuations'
p94
sS'540040295644024832'
p95
S'other_useful_information'
p96
sS'540037000368119808'
p97
S'sympathy_and_emotional_support'
p98
sS'540030198021103616'
p99
S'other_useful_information'
p100
sS'540010805237129216'
p101
S'other_useful_information'
p102
sS'540026784197005312'
p103
S'other_useful_information'
p104
sS'540026896688226304'
p105
S'caution_and_advice'
p106
sS'540033984286052352'
p107
S'sympathy_and_emotional_support'
p108
sS'540046493135036416'
p109
S'other_useful_information'
p110
sS'540040345363697664'
p111
S'other_useful_information'
p112
sS'540037800565800961'
p113
S'donation_needs_or_offers_or_volunteering_services'
p114
sS'540041264784101376'
p115
S'other_useful_information'
p116
sS'540004650737364992'
p117
S'other_useful_information'
p118
sS'540019035031613440'
p119
S'sympathy_and_emotional_support'
p120
sS'540027966965559296'
p121
S'other_useful_information'
p122
sS'540041947839492096'
p123
S'not_related_or_irrelevant'
p124
sS'540036528215322624'
p125
S'injured_or_dead_people'
p126
sS'540023583037091840'
p127
S'not_related_or_irrelevant'
p128
sS'540041233981530112'
p129
S'caution_and_advice'
p130
sS'540005742942490624'
p131
S'other_useful_information'
p132
sS'540037236780068864'
p133
S'sympathy_and_emotional_support'
p134
sS'540017749691346945'
p135
S'other_useful_information'
p136
sS'540035817385631744'
p137
S'caution_and_advice'
p138
sS'540043718519455744'
p139
S'caution_and_advice'
p140
sS'540033737958764545'
p141
S'caution_and_advice'
p142
sS'540039824057442304'
p143
S'not_related_or_irrelevant'
p144
sS'540032012598255616'
p145
S'caution_and_advice'
p146
sS'540024414805704704'
p147
S'not_related_or_irrelevant'
p148
sS'540038148445597696'
p149
S'not_related_or_irrelevant'
p150
sS'540030705334366209'
p151
S'displaced_people_and_evacuations'
p152
sS'540020373257859072'
p153
S'caution_and_advice'
p154
sS'540041537799741440'
p155
S'other_useful_information'
p156
sS'540043210429857793'
p157
S'other_useful_information'
p158
sS'540038756363812864'
p159
S'displaced_people_and_evacuations'
p160
sS'540005035254370305'
p161
S'other_useful_information'
p162
sS'540028844388798464'
p163
S'sympathy_and_emotional_support'
p164
sS'540021916631711745'
p165
S'caution_and_advice'
p166
sS'540043529813114881'
p167
S'sympathy_and_emotional_support'
p168
sS'540024128582221824'
p169
S'donation_needs_or_offers_or_volunteering_services'
p170
sS'540036095224737792'
p171
S'displaced_people_and_evacuations'
p172
sS'540026984626003968'
p173
S'other_useful_information'
p174
sS'540037492473593857'
p175
S'sympathy_and_emotional_support'
p176
sS'540009336022765568'
p177
S'other_useful_information'
p178
sS'540029680200339456'
p179
S'displaced_people_and_evacuations'
p180
sS'540029821128962048'
p181
S'not_related_or_irrelevant'
p182
sS'540032727446089728'
p183
S'other_useful_information'
p184
sS'540007293228564480'
p185
S'caution_and_advice'
p186
sS'540061935010476032'
p187
S'infrastructure_and_utilities_damage'
p188
sS'540010755894943744'
p189
S'not_related_or_irrelevant'
p190
sS'540007367727775744'
p191
S'caution_and_advice'
p192
sS'540006869666787328'
p193
S'sympathy_and_emotional_support'
p194
sS'540027717438017537'
p195
S'sympathy_and_emotional_support'
p196
sS'540037680730767360'
p197
S'other_useful_information'
p198
sS'540045733689180160'
p199
S'sympathy_and_emotional_support'
p200
sS'540036552559063040'
p201
S'caution_and_advice'
p202
sS'540025514702798848'
p203
S'other_useful_information'
p204
sS'540035801933828096'
p205
S'other_useful_information'
p206
sS'540028332662730752'
p207
S'other_useful_information'
p208
sS'540007556463071232'
p209
S'other_useful_information'
p210
sS'540046601834614784'
p211
S'sympathy_and_emotional_support'
p212
sS'540040375327404032'
p213
S'injured_or_dead_people'
p214
sS'540019463530086400'
p215
S'caution_and_advice'
p216
sS'540028496622272513'
p217
S'other_useful_information'
p218
sS'540023739853709312'
p219
S'caution_and_advice'
p220
sS'540046557874098176'
p221
S'displaced_people_and_evacuations'
p222
sS'540036752505700352'
p223
S'not_related_or_irrelevant'
p224
sS'540023111727726592'
p225
S'donation_needs_or_offers_or_volunteering_services'
p226
sS'540021125850214400'
p227
S'other_useful_information'
p228
sS'540029767311835136'
p229
S'other_useful_information'
p230
sS'540026072788508673'
p231
S'other_useful_information'
p232
sS'540036147464773632'
p233
S'other_useful_information'
p234
sS'540034707451559936'
p235
S'other_useful_information'
p236
sS'540027453897330688'
p237
S'other_useful_information'
p238
sS'540037728788688897'
p239
S'other_useful_information'
p240
sS'540027323194425344'
p241
S'other_useful_information'
p242
sS'540038612645974016'
p243
S'other_useful_information'
p244
sS'540023954543771649'
p245
S'other_useful_information'
p246
sS'540026084972957696'
p247
S'caution_and_advice'
p248
sS'540023405840326656'
p249
S'other_useful_information'
p250
sS'540011174364839938'
p251
S'other_useful_information'
p252
sS'540015370988314624'
p253
S'other_useful_information'
p254
sS'540029996702498816'
p255
S'sympathy_and_emotional_support'
p256
sS'540011480410624000'
p257
S'injured_or_dead_people'
p258
sS'540035759407788033'
p259
S'other_useful_information'
p260
sS'540012030137098240'
p261
S'sympathy_and_emotional_support'
p262
sS'540027777970216961'
p263
S'sympathy_and_emotional_support'
p264
sS'540046054280794112'
p265
S'sympathy_and_emotional_support'
p266
sS'540034342798385152'
p267
S'displaced_people_and_evacuations'
p268
sS'540037481962287105'
p269
S'displaced_people_and_evacuations'
p270
sS'540006468859097088'
p271
S'caution_and_advice'
p272
sS'540030431442120704'
p273
S'infrastructure_and_utilities_damage'
p274
sS'540038335373131776'
p275
S'other_useful_information'
p276
sS'540027746303225858'
p277
S'other_useful_information'
p278
sS'540008163454763008'
p279
S'not_related_or_irrelevant'
p280
sS'540029137495154689'
p281
S'caution_and_advice'
p282
sS'540047801053216768'
p283
S'donation_needs_or_offers_or_volunteering_services'
p284
sS'540006510311792643'
p285
S'other_useful_information'
p286
sS'540032941003247617'
p287
S'not_related_or_irrelevant'
p288
sS'540033932629012480'
p289
S'infrastructure_and_utilities_damage'
p290
sS'540009079813316608'
p291
S'caution_and_advice'
p292
sS'540020504371818496'
p293
S'other_useful_information'
p294
sS'540037041971412992'
p295
S'other_useful_information'
p296
sS'540038116476989440'
p297
S'not_related_or_irrelevant'
p298
sS'540036126329692161'
p299
S'injured_or_dead_people'
p300
sS'540027298200555520'
p301
S'sympathy_and_emotional_support'
p302
sS'540024941760897024'
p303
S'other_useful_information'
p304
sS'540034910195417088'
p305
S'caution_and_advice'
p306
sS'540041560843247616'
p307
S'other_useful_information'
p308
sS'540021476225589248'
p309
S'other_useful_information'
p310
sS'540043604010352640'
p311
S'sympathy_and_emotional_support'
p312
sS'540031990804660225'
p313
S'caution_and_advice'
p314
sS'540023606470668288'
p315
S'other_useful_information'
p316
sS'540047917663268864'
p317
S'caution_and_advice'
p318
sS'540023231978020864'
p319
S'not_related_or_irrelevant'
p320
sS'540032120630939649'
p321
S'sympathy_and_emotional_support'
p322
sS'540040910940028928'
p323
S'other_useful_information'
p324
sS'540036472045174784'
p325
S'caution_and_advice'
p326
sS'540047332554067968'
p327
S'other_useful_information'
p328
sS'540031052161368064'
p329
S'other_useful_information'
p330
sS'540023050507264000'
p331
S'other_useful_information'
p332
sS'540024635102732288'
p333
S'displaced_people_and_evacuations'
p334
sS'540036727599947776'
p335
S'displaced_people_and_evacuations'
p336
sS'540043334727634944'
p337
S'other_useful_information'
p338
sS'540043675821031425'
p339
S'caution_and_advice'
p340
sS'540041108835692545'
p341
S'other_useful_information'
p342
sS'540043159053414401'
p343
S'sympathy_and_emotional_support'
p344
sS'540045438229823490'
p345
S'displaced_people_and_evacuations'
p346
sS'540047820548349952'
p347
S'other_useful_information'
p348
sS'540019536989151232'
p349
S'sympathy_and_emotional_support'
p350
sS'540005717004910592'
p351
S'caution_and_advice'
p352
sS'540038975516200960'
p353
S'caution_and_advice'
p354
sS'540027102943129600'
p355
S'injured_or_dead_people'
p356
sS'540012265827614720'
p357
S'donation_needs_or_offers_or_volunteering_services'
p358
sS'540030953905614849'
p359
S'other_useful_information'
p360
sS'540036526516600832'
p361
S'caution_and_advice'
p362
sS'540005917535010817'
p363
S'other_useful_information'
p364
sS'540025393458057216'
p365
S'donation_needs_or_offers_or_volunteering_services'
p366
sS'540043900199518208'
p367
S'other_useful_information'
p368
sS'540032499569938432'
p369
S'donation_needs_or_offers_or_volunteering_services'
p370
sS'540006105762385920'
p371
S'not_related_or_irrelevant'
p372
sS'540039097512132608'
p373
S'caution_and_advice'
p374
sS'540031536586694657'
p375
S'infrastructure_and_utilities_damage'
p376
sS'540006518125371394'
p377
S'not_related_or_irrelevant'
p378
sS'540042736447938560'
p379
S'not_related_or_irrelevant'
p380
sS'540025313041068032'
p381
S'caution_and_advice'
p382
sS'540037902890463233'
p383
S'caution_and_advice'
p384
sS'540017162077741057'
p385
S'sympathy_and_emotional_support'
p386
sS'540045218993549312'
p387
S'infrastructure_and_utilities_damage'
p388
sS'540010934337417217'
p389
S'displaced_people_and_evacuations'
p390
sS'540022412109037568'
p391
S'donation_needs_or_offers_or_volunteering_services'
p392
sS'540033030685872128'
p393
S'caution_and_advice'
p394
sS'540047489043152896'
p395
S'caution_and_advice'
p396
sS'540046491641851904'
p397
S'displaced_people_and_evacuations'
p398
sS'540010426537213953'
p399
S'other_useful_information'
p400
sS'540027342421123072'
p401
S'other_useful_information'
p402
sS'540041054703988736'
p403
S'other_useful_information'
p404
sS'540047286252740609'
p405
S'caution_and_advice'
p406
sS'540026194184253440'
p407
S'other_useful_information'
p408
sS'540024118717202432'
p409
S'not_related_or_irrelevant'
p410
sS'540042307257372672'
p411
S'caution_and_advice'
p412
sS'540013887815290880'
p413
S'other_useful_information'
p414
sS'540028364581396480'
p415
S'sympathy_and_emotional_support'
p416
sS'540043718267396097'
p417
S'donation_needs_or_offers_or_volunteering_services'
p418
sS'540020753848999937'
p419
S'other_useful_information'
p420
sS'540033997728788481'
p421
S'sympathy_and_emotional_support'
p422
sS'540031755127115776'
p423
S'not_related_or_irrelevant'
p424
sS'540041889076879360'
p425
S'displaced_people_and_evacuations'
p426
sS'540042459875508225'
p427
S'sympathy_and_emotional_support'
p428
sS'540019872345120768'
p429
S'caution_and_advice'
p430
sS'540017756976865280'
p431
S'donation_needs_or_offers_or_volunteering_services'
p432
sS'540028635483107328'
p433
S'other_useful_information'
p434
sS'540008631735828482'
p435
S'donation_needs_or_offers_or_volunteering_services'
p436
sS'540025906832502784'
p437
S'other_useful_information'
p438
sS'540034861231128576'
p439
S'other_useful_information'
p440
sS'540022739197632512'
p441
S'displaced_people_and_evacuations'
p442
sS'540016093629140993'
p443
S'donation_needs_or_offers_or_volunteering_services'
p444
sS'540033698285244416'
p445
S'other_useful_information'
p446
sS'540036527158353920'
p447
S'caution_and_advice'
p448
sS'540026874672328704'
p449
S'infrastructure_and_utilities_damage'
p450
sS'540040483913752577'
p451
S'caution_and_advice'
p452
sS'540034147196993537'
p453
S'donation_needs_or_offers_or_volunteering_services'
p454
sS'540029793459130368'
p455
S'other_useful_information'
p456
sS'540008222791176193'
p457
S'sympathy_and_emotional_support'
p458
sS'540014653389017088'
p459
S'displaced_people_and_evacuations'
p460
sS'540041439791427585'
p461
S'other_useful_information'
p462
sS'540027453716971520'
p463
S'caution_and_advice'
p464
sS'540009909597638656'
p465
S'caution_and_advice'
p466
sS'540040783756554241'
p467
S'sympathy_and_emotional_support'
p468
sS'540036891219726337'
p469
S'sympathy_and_emotional_support'
p470
sS'540034470980513792'
p471
S'caution_and_advice'
p472
sS'540030633712844800'
p473
S'other_useful_information'
p474
sS'540009013375557633'
p475
S'caution_and_advice'
p476
sS'540030150356643840'
p477
S'displaced_people_and_evacuations'
p478
sS'540028613442031616'
p479
S'other_useful_information'
p480
sS'540029732839256064'
p481
S'other_useful_information'
p482
sS'540015089001066499'
p483
S'other_useful_information'
p484
sS'540044675324084224'
p485
S'infrastructure_and_utilities_damage'
p486
sS'540014550494367744'
p487
S'infrastructure_and_utilities_damage'
p488
sS'540043223746347008'
p489
S'other_useful_information'
p490
sS'540036245208829952'
p491
S'other_useful_information'
p492
sS'540043009832656898'
p493
S'other_useful_information'
p494
sS'540028077615505408'
p495
S'other_useful_information'
p496
sS'540038063280246786'
p497
S'other_useful_information'
p498
sS'540006591206920193'
p499
S'caution_and_advice'
p500
sS'540013812091334656'
p501
S'donation_needs_or_offers_or_volunteering_services'
p502
sS'540047566390308864'
p503
S'other_useful_information'
p504
sS'540009971581464576'
p505
S'not_related_or_irrelevant'
p506
sS'540025694705553408'
p507
S'caution_and_advice'
p508
sS'540029241534840832'
p509
S'not_related_or_irrelevant'
p510
sS'540038591628337153'
p511
S'caution_and_advice'
p512
sS'540019761254367234'
p513
S'injured_or_dead_people'
p514
sS'540027650123640833'
p515
S'other_useful_information'
p516
sS'540044558168379392'
p517
S'caution_and_advice'
p518
sS'540036885200920576'
p519
S'other_useful_information'
p520
sS'540011708991823872'
p521
S'caution_and_advice'
p522
sS'540025954706677760'
p523
S'other_useful_information'
p524
sS'540022136459390976'
p525
S'other_useful_information'
p526
sS'540027984053170177'
p527
S'infrastructure_and_utilities_damage'
p528
sS'540005758276882433'
p529
S'sympathy_and_emotional_support'
p530
sS'540016693179711488'
p531
S'other_useful_information'
p532
sS'540030802625441792'
p533
S'infrastructure_and_utilities_damage'
p534
sS'540044884045201408'
p535
S'other_useful_information'
p536
sS'540024724286222336'
p537
S'other_useful_information'
p538
sS'540012623127797761'
p539
S'donation_needs_or_offers_or_volunteering_services'
p540
sS'540009576041431040'
p541
S'not_related_or_irrelevant'
p542
sS'540014550423048192'
p543
S'other_useful_information'
p544
sS'540026897371889665'
p545
S'injured_or_dead_people'
p546
sS'540034788061495298'
p547
S'injured_or_dead_people'
p548
sS'540033847434678272'
p549
S'caution_and_advice'
p550
sS'540039741333200896'
p551
S'sympathy_and_emotional_support'
p552
sS'540006836858920960'
p553
S'other_useful_information'
p554
sS'540021294922997760'
p555
S'caution_and_advice'
p556
sS'540046559983837184'
p557
S'donation_needs_or_offers_or_volunteering_services'
p558
sS'540041932949291008'
p559
S'sympathy_and_emotional_support'
p560
sS'540029852632354816'
p561
S'other_useful_information'
p562
sS'540048204348137473'
p563
S'other_useful_information'
p564
sS'540036992952578048'
p565
S'sympathy_and_emotional_support'
p566
sS'540020255628591105'
p567
S'other_useful_information'
p568
sS'540025310901972992'
p569
S'not_related_or_irrelevant'
p570
sS'540030155427561472'
p571
S'other_useful_information'
p572
sS'540040141252071424'
p573
S'injured_or_dead_people'
p574
sS'540040807567208448'
p575
S'not_related_or_irrelevant'
p576
sS'540021810071228416'
p577
S'other_useful_information'
p578
sS'540015019836977152'
p579
S'not_related_or_irrelevant'
p580
sS'540033803008221184'
p581
S'caution_and_advice'
p582
sS'540007327760265216'
p583
S'caution_and_advice'
p584
sS'540017672847491072'
p585
S'displaced_people_and_evacuations'
p586
sS'540026654220120064'
p587
S'caution_and_advice'
p588
sS'540047457145876481'
p589
S'caution_and_advice'
p590
sS'540045733424943105'
p591
S'other_useful_information'
p592
sS'540031842720964609'
p593
S'other_useful_information'
p594
sS'540028156304826368'
p595
S'donation_needs_or_offers_or_volunteering_services'
p596
sS'540006599100596224'
p597
S'sympathy_and_emotional_support'
p598
sS'540120780869103617'
p599
S'missing_trapped_or_found_people'
p600
sS'540013458646114306'
p601
S'not_related_or_irrelevant'
p602
sS'540040269886783488'
p603
S'other_useful_information'
p604
sS'540030273446895616'
p605
S'sympathy_and_emotional_support'
p606
sS'540019242616094721'
p607
S'caution_and_advice'
p608
sS'540036897456660480'
p609
S'other_useful_information'
p610
sS'540032871118176257'
p611
S'sympathy_and_emotional_support'
p612
sS'540034546075697152'
p613
S'other_useful_information'
p614
sS'540038146579103744'
p615
S'not_related_or_irrelevant'
p616
sS'540004553832529920'
p617
S'injured_or_dead_people'
p618
sS'540018642264797184'
p619
S'sympathy_and_emotional_support'
p620
sS'540005784587735040'
p621
S'not_related_or_irrelevant'
p622
sS'540048216570339329'
p623
S'other_useful_information'
p624
sS'540009564448374785'
p625
S'other_useful_information'
p626
sS'540022345587363840'
p627
S'caution_and_advice'
p628
sS'540023778164494337'
p629
S'other_useful_information'
p630
sS'540024820788776960'
p631
S'caution_and_advice'
p632
sS'540034615608872960'
p633
S'caution_and_advice'
p634
sS'540026577233268736'
p635
S'sympathy_and_emotional_support'
p636
sS'540019366935277569'
p637
S'displaced_people_and_evacuations'
p638
sS'540013806261268482'
p639
S'not_related_or_irrelevant'
p640
sS'540037548089700353'
p641
S'sympathy_and_emotional_support'
p642
sS'540040718924779520'
p643
S'donation_needs_or_offers_or_volunteering_services'
p644
sS'540038653481742336'
p645
S'other_useful_information'
p646
sS'540040167835594752'
p647
S'other_useful_information'
p648
sS'540030902789611522'
p649
S'infrastructure_and_utilities_damage'
p650
sS'540017445457522688'
p651
S'infrastructure_and_utilities_damage'
p652
sS'540028020036083712'
p653
S'other_useful_information'
p654
sS'540037221084979200'
p655
S'other_useful_information'
p656
sS'540020891955249152'
p657
S'other_useful_information'
p658
sS'540032282166190080'
p659
S'sympathy_and_emotional_support'
p660
sS'540003786811793408'
p661
S'other_useful_information'
p662
sS'540041676945776641'
p663
S'other_useful_information'
p664
sS'540046777613697024'
p665
S'other_useful_information'
p666
sS'540035825086365697'
p667
S'other_useful_information'
p668
sS'540020620298579968'
p669
S'other_useful_information'
p670
sS'540029454777450496'
p671
S'other_useful_information'
p672
sS'540037266488324096'
p673
S'caution_and_advice'
p674
sS'540032438232023041'
p675
S'donation_needs_or_offers_or_volunteering_services'
p676
sS'540021544399826944'
p677
S'not_related_or_irrelevant'
p678
sS'540007697370730496'
p679
S'caution_and_advice'
p680
sS'540025765199237120'
p681
S'donation_needs_or_offers_or_volunteering_services'
p682
sS'540033988371697664'
p683
S'other_useful_information'
p684
sS'540018769557323776'
p685
S'infrastructure_and_utilities_damage'
p686
sS'540030825589272576'
p687
S'other_useful_information'
p688
sS'540026557612306432'
p689
S'caution_and_advice'
p690
sS'540036237994635264'
p691
S'other_useful_information'
p692
sS'540023594277814272'
p693
S'not_related_or_irrelevant'
p694
sS'540030706408120320'
p695
S'other_useful_information'
p696
sS'540016324559122433'
p697
S'other_useful_information'
p698
sS'540027039328124929'
p699
S'injured_or_dead_people'
p700
sS'540006772186955777'
p701
S'infrastructure_and_utilities_damage'
p702
sS'540029969171091456'
p703
S'other_useful_information'
p704
sS'540032412684537856'
p705
S'missing_trapped_or_found_people'
p706
sS'540041218957119488'
p707
S'other_useful_information'
p708
sS'540011175560638464'
p709
S'not_related_or_irrelevant'
p710
sS'540028225741545472'
p711
S'sympathy_and_emotional_support'
p712
sS'540017245888331777'
p713
S'donation_needs_or_offers_or_volunteering_services'
p714
sS'540027207259664385'
p715
S'other_useful_information'
p716
sS'540038145308229632'
p717
S'not_related_or_irrelevant'
p718
sS'540043115222941697'
p719
S'other_useful_information'
p720
sS'540005464767877120'
p721
S'caution_and_advice'
p722
sS'540038217006080000'
p723
S'caution_and_advice'
p724
sS'540039570893438976'
p725
S'donation_needs_or_offers_or_volunteering_services'
p726
sS'540033447801024512'
p727
S'infrastructure_and_utilities_damage'
p728
sS'540041194026184706'
p729
S'sympathy_and_emotional_support'
p730
sS'540042486014808064'
p731
S'other_useful_information'
p732
sS'540005679202066432'
p733
S'sympathy_and_emotional_support'
p734
sS'540032636723286016'
p735
S'other_useful_information'
p736
sS'540028366833729537'
p737
S'caution_and_advice'
p738
sS'540011602675007488'
p739
S'other_useful_information'
p740
sS'540033882360279040'
p741
S'sympathy_and_emotional_support'
p742
sS'540017614689284096'
p743
S'sympathy_and_emotional_support'
p744
sS'540039505999175681'
p745
S'infrastructure_and_utilities_damage'
p746
sS'540016259568373762'
p747
S'other_useful_information'
p748
sS'540034448901685248'
p749
S'other_useful_information'
p750
sS'540024397893869569'
p751
S'missing_trapped_or_found_people'
p752
sS'540033133903888384'
p753
S'not_related_or_irrelevant'
p754
sS'540004462031421440'
p755
S'caution_and_advice'
p756
sS'540029003009376256'
p757
S'infrastructure_and_utilities_damage'
p758
sS'540040335439585280'
p759
S'caution_and_advice'
p760
sS'540033738013290496'
p761
S'infrastructure_and_utilities_damage'
p762
sS'540018657825284097'
p763
S'caution_and_advice'
p764
sS'540025767380283392'
p765
S'injured_or_dead_people'
p766
sS'540028875678306304'
p767
S'caution_and_advice'
p768
sS'540035780517703680'
p769
S'other_useful_information'
p770
sS'540032282161995776'
p771
S'donation_needs_or_offers_or_volunteering_services'
p772
sS'540036140045066240'
p773
S'other_useful_information'
p774
sS'540027072522248193'
p775
S'caution_and_advice'
p776
sS'540037569472237568'
p777
S'infrastructure_and_utilities_damage'
p778
sS'540034201311928320'
p779
S'other_useful_information'
p780
sS'540011136901341184'
p781
S'other_useful_information'
p782
sS'540021013816549376'
p783
S'other_useful_information'
p784
sS'540040258105008128'
p785
S'displaced_people_and_evacuations'
p786
sS'540036054397779968'
p787
S'displaced_people_and_evacuations'
p788
sS'540023552926158848'
p789
S'injured_or_dead_people'
p790
sS'540035835991564288'
p791
S'displaced_people_and_evacuations'
p792
sS'540017752765767680'
p793
S'not_related_or_irrelevant'
p794
sS'540043512691949569'
p795
S'sympathy_and_emotional_support'
p796
sS'540031899788271616'
p797
S'other_useful_information'
p798
sS'540031694485463040'
p799
S'sympathy_and_emotional_support'
p800
sS'540024986354712576'
p801
S'other_useful_information'
p802
sS'540039599062781953'
p803
S'infrastructure_and_utilities_damage'
p804
sS'540023758967148544'
p805
S'sympathy_and_emotional_support'
p806
sS'540040814836338689'
p807
S'caution_and_advice'
p808
sS'540037141862961152'
p809
S'not_related_or_irrelevant'
p810
sS'540026189260546048'
p811
S'other_useful_information'
p812
sS'540012850677153793'
p813
S'caution_and_advice'
p814
sS'540026028668637184'
p815
S'injured_or_dead_people'
p816
sS'540010041193926656'
p817
S'displaced_people_and_evacuations'
p818
sS'540010627876798464'
p819
S'other_useful_information'
p820
sS'540030470491078657'
p821
S'other_useful_information'
p822
sS'540031957749346304'
p823
S'caution_and_advice'
p824
sS'540031461122768896'
p825
S'sympathy_and_emotional_support'
p826
sS'540028060641132544'
p827
S'displaced_people_and_evacuations'
p828
sS'540030690566627328'
p829
S'caution_and_advice'
p830
sS'540037111823339520'
p831
S'not_related_or_irrelevant'
p832
sS'540028595993710592'
p833
S'caution_and_advice'
p834
sS'540012158458023936'
p835
S'other_useful_information'
p836
sS'540021464427028480'
p837
S'other_useful_information'
p838
sS'540026346731098112'
p839
S'other_useful_information'
p840
sS'540022421789478912'
p841
S'other_useful_information'
p842
sS'540037486395670528'
p843
S'not_related_or_irrelevant'
p844
sS'540016261334581248'
p845
S'sympathy_and_emotional_support'
p846
sS'540029506258354176'
p847
S'other_useful_information'
p848
sS'540015721019752448'
p849
S'sympathy_and_emotional_support'
p850
sS'540020291918131200'
p851
S'not_related_or_irrelevant'
p852
sS'540043561597562880'
p853
S'sympathy_and_emotional_support'
p854
sS'540043202107936768'
p855
S'other_useful_information'
p856
sS'540022779098046464'
p857
S'other_useful_information'
p858
sS'540020308036435968'
p859
S'sympathy_and_emotional_support'
p860
sS'540037215728852992'
p861
S'not_related_or_irrelevant'
p862
sS'540028387780083712'
p863
S'sympathy_and_emotional_support'
p864
sS'540037191276044288'
p865
S'sympathy_and_emotional_support'
p866
sS'540043778237558784'
p867
S'sympathy_and_emotional_support'
p868
sS'540023528272429056'
p869
S'caution_and_advice'
p870
sS'540031073431076864'
p871
S'other_useful_information'
p872
sS'540037498722721792'
p873
S'other_useful_information'
p874
sS'540030138860064768'
p875
S'other_useful_information'
p876
sS'540033436707078144'
p877
S'sympathy_and_emotional_support'
p878
sS'540021820171505664'
p879
S'sympathy_and_emotional_support'
p880
sS'540026962530406400'
p881
S'displaced_people_and_evacuations'
p882
sS'540042528326963200'
p883
S'displaced_people_and_evacuations'
p884
sS'540045370857107456'
p885
S'other_useful_information'
p886
sS'540030794534621184'
p887
S'other_useful_information'
p888
sS'540028575051550720'
p889
S'sympathy_and_emotional_support'
p890
sS'540037946024263680'
p891
S'caution_and_advice'
p892
sS'540025804122382336'
p893
S'not_related_or_irrelevant'
p894
sS'540038114891542528'
p895
S'sympathy_and_emotional_support'
p896
sS'540048157183188992'
p897
S'displaced_people_and_evacuations'
p898
sS'540017500428464128'
p899
S'infrastructure_and_utilities_damage'
p900
sS'540017659161501696'
p901
S'other_useful_information'
p902
sS'540019093114335232'
p903
S'injured_or_dead_people'
p904
sS'540040261653372928'
p905
S'infrastructure_and_utilities_damage'
p906
sS'540044396612169730'
p907
S'sympathy_and_emotional_support'
p908
sS'540040984726228992'
p909
S'other_useful_information'
p910
sS'540040795256922112'
p911
S'sympathy_and_emotional_support'
p912
sS'540038045148274688'
p913
S'other_useful_information'
p914
sS'540043454256930816'
p915
S'sympathy_and_emotional_support'
p916
sS'540032683301023744'
p917
S'displaced_people_and_evacuations'
p918
sS'540017245561188352'
p919
S'not_related_or_irrelevant'
p920
sS'540017842377072640'
p921
S'sympathy_and_emotional_support'
p922
sS'540034854289547264'
p923
S'donation_needs_or_offers_or_volunteering_services'
p924
sS'540025104189497347'
p925
S'caution_and_advice'
p926
sS'540037900503490560'
p927
S'other_useful_information'
p928
sS'540030260398391298'
p929
S'not_related_or_irrelevant'
p930
sS'540044119611957248'
p931
S'caution_and_advice'
p932
sS'540032120622567424'
p933
S'sympathy_and_emotional_support'
p934
sS'540025710425800704'
p935
S'caution_and_advice'
p936
sS'540006180991406081'
p937
S'infrastructure_and_utilities_damage'
p938
sS'540025204366266368'
p939
S'donation_needs_or_offers_or_volunteering_services'
p940
sS'540012069542580224'
p941
S'caution_and_advice'
p942
sS'540038296521285632'
p943
S'sympathy_and_emotional_support'
p944
sS'540016719960350721'
p945
S'sympathy_and_emotional_support'
p946
sS'540038345565691904'
p947
S'infrastructure_and_utilities_damage'
p948
sS'540037791648714752'
p949
S'sympathy_and_emotional_support'
p950
sS'540037263837519872'
p951
S'caution_and_advice'
p952
sS'540047703208513536'
p953
S'caution_and_advice'
p954
sS'540021984705277952'
p955
S'caution_and_advice'
p956
sS'540033992846630912'
p957
S'not_related_or_irrelevant'
p958
sS'540041960380067840'
p959
S'not_related_or_irrelevant'
p960
sS'540026745928171520'
p961
S'not_related_or_irrelevant'
p962
sS'540021065812946944'
p963
S'caution_and_advice'
p964
sS'540029253832552448'
p965
S'caution_and_advice'
p966
sS'540027757468463105'
p967
S'caution_and_advice'
p968
sS'540014038353055744'
p969
S'caution_and_advice'
p970
sS'540042520743276544'
p971
S'sympathy_and_emotional_support'
p972
sS'540007401626144768'
p973
S'not_related_or_irrelevant'
p974
sS'540047833341370369'
p975
S'sympathy_and_emotional_support'
p976
sS'540018536564129792'
p977
S'not_related_or_irrelevant'
p978
sS'540045379387936768'
p979
S'other_useful_information'
p980
sS'540020004414959616'
p981
S'other_useful_information'
p982
sS'540019648641519617'
p983
S'sympathy_and_emotional_support'
p984
sS'540025604410585088'
p985
S'other_useful_information'
p986
sS'540032827039821825'
p987
S'sympathy_and_emotional_support'
p988
sS'540042748397502465'
p989
S'not_related_or_irrelevant'
p990
sS'540042854698348544'
p991
S'other_useful_information'
p992
sS'540005154871717890'
p993
S'sympathy_and_emotional_support'
p994
sS'540029057820135424'
p995
S'other_useful_information'
p996
sS'540025051873939458'
p997
S'other_useful_information'
p998
sS'540039155732860928'
p999
S'injured_or_dead_people'
p1000
sS'540038638101626880'
p1001
S'not_related_or_irrelevant'
p1002
sS'540030511666585601'
p1003
S'other_useful_information'
p1004
sS'540034194454220800'
p1005
S'other_useful_information'
p1006
sS'540023433216528384'
p1007
S'other_useful_information'
p1008
sS'540012209858822145'
p1009
S'sympathy_and_emotional_support'
p1010
sS'540012209858822144'
p1011
S'other_useful_information'
p1012
sS'540029168340045825'
p1013
S'other_useful_information'
p1014
sS'540041553389965312'
p1015
S'sympathy_and_emotional_support'
p1016
sS'540029686055587840'
p1017
S'injured_or_dead_people'
p1018
sS'540031263050973184'
p1019
S'caution_and_advice'
p1020
sS'540041521853001728'
p1021
S'not_related_or_irrelevant'
p1022
sS'540032731162214400'
p1023
S'other_useful_information'
p1024
sS'540017146701832192'
p1025
S'other_useful_information'
p1026
sS'540043223691845632'
p1027
S'infrastructure_and_utilities_damage'
p1028
sS'540027513456447488'
p1029
S'other_useful_information'
p1030
sS'540036007660228608'
p1031
S'donation_needs_or_offers_or_volunteering_services'
p1032
sS'540033060889448448'
p1033
S'sympathy_and_emotional_support'
p1034
sS'540022773309906944'
p1035
S'donation_needs_or_offers_or_volunteering_services'
p1036
sS'540044069854932992'
p1037
S'other_useful_information'
p1038
sS'540008607836696577'
p1039
S'other_useful_information'
p1040
sS'540029753344806913'
p1041
S'other_useful_information'
p1042
sS'540007549139828737'
p1043
S'other_useful_information'
p1044
sS'540028527186178049'
p1045
S'displaced_people_and_evacuations'
p1046
sS'540044589856342016'
p1047
S'caution_and_advice'
p1048
sS'540042489764147201'
p1049
S'caution_and_advice'
p1050
sS'540022776103333888'
p1051
S'other_useful_information'
p1052
sS'540021731700645888'
p1053
S'other_useful_information'
p1054
sS'540038214342283264'
p1055
S'sympathy_and_emotional_support'
p1056
sS'540003980076527619'
p1057
S'not_related_or_irrelevant'
p1058
sS'540048191358373888'
p1059
S'other_useful_information'
p1060
sS'540029454794240000'
p1061
S'caution_and_advice'
p1062
sS'540029085775183872'
p1063
S'other_useful_information'
p1064
sS'540027403167629312'
p1065
S'other_useful_information'
p1066
sS'540006464085979136'
p1067
S'caution_and_advice'
p1068
sS'540007722863689730'
p1069
S'other_useful_information'
p1070
sS'540046085306077184'
p1071
S'other_useful_information'
p1072
sS'540008671757869057'
p1073
S'sympathy_and_emotional_support'
p1074
sS'540028430452916224'
p1075
S'caution_and_advice'
p1076
sS'540028182473109504'
p1077
S'other_useful_information'
p1078
sS'540030568570695680'
p1079
S'displaced_people_and_evacuations'
p1080
sS'540011405093519361'
p1081
S'displaced_people_and_evacuations'
p1082
sS'540021934877327360'
p1083
S'sympathy_and_emotional_support'
p1084
sS'540005053122093056'
p1085
S'sympathy_and_emotional_support'
p1086
sS'540044757993791488'
p1087
S'not_related_or_irrelevant'
p1088
sS'540025333458542592'
p1089
S'donation_needs_or_offers_or_volunteering_services'
p1090
sS'540031593142693888'
p1091
S'caution_and_advice'
p1092
sS'540032282187153409'
p1093
S'donation_needs_or_offers_or_volunteering_services'
p1094
sS'540020145557471232'
p1095
S'other_useful_information'
p1096
sS'540011728373686272'
p1097
S'sympathy_and_emotional_support'
p1098
sS'540045228237807616'
p1099
S'other_useful_information'
p1100
sS'540020081171120128'
p1101
S'caution_and_advice'
p1102
sS'540022510058631168'
p1103
S'sympathy_and_emotional_support'
p1104
sS'540035183743750144'
p1105
S'other_useful_information'
p1106
sS'540007250962567168'
p1107
S'other_useful_information'
p1108
sS'540040708279652353'
p1109
S'other_useful_information'
p1110
sS'540007555620012033'
p1111
S'other_useful_information'
p1112
sS'540030560215650305'
p1113
S'other_useful_information'
p1114
sS'540047274349309952'
p1115
S'not_related_or_irrelevant'
p1116
sS'540047634182832128'
p1117
S'not_related_or_irrelevant'
p1118
sS'540006361908539392'
p1119
S'other_useful_information'
p1120
sS'540013809025310720'
p1121
S'donation_needs_or_offers_or_volunteering_services'
p1122
sS'540006208472883200'
p1123
S'other_useful_information'
p1124
sS'540031593151070208'
p1125
S'other_useful_information'
p1126
sS'540029644909858816'
p1127
S'sympathy_and_emotional_support'
p1128
sS'540010464034304001'
p1129
S'sympathy_and_emotional_support'
p1130
sS'540018741015085057'
p1131
S'other_useful_information'
p1132
sS'540007293941579776'
p1133
S'sympathy_and_emotional_support'
p1134
sS'540032618037665792'
p1135
S'caution_and_advice'
p1136
sS'540010395298037760'
p1137
S'caution_and_advice'
p1138
sS'540028565207527426'
p1139
S'other_useful_information'
p1140
sS'540006145457684481'
p1141
S'other_useful_information'
p1142
sS'540021527027015681'
p1143
S'sympathy_and_emotional_support'
p1144
sS'540035136260026368'
p1145
S'caution_and_advice'
p1146
sS'540010151843868672'
p1147
S'caution_and_advice'
p1148
sS'540039027127504897'
p1149
S'other_useful_information'
p1150
sS'540009193491955712'
p1151
S'other_useful_information'
p1152
sS'540008578807889921'
p1153
S'sympathy_and_emotional_support'
p1154
sS'540022877588688896'
p1155
S'sympathy_and_emotional_support'
p1156
sS'540005291484397568'
p1157
S'caution_and_advice'
p1158
sS'540042870204280832'
p1159
S'sympathy_and_emotional_support'
p1160
sS'540020323081805824'
p1161
S'sympathy_and_emotional_support'
p1162
sS'540020370150268929'
p1163
S'donation_needs_or_offers_or_volunteering_services'
p1164
sS'540037610237067264'
p1165
S'not_related_or_irrelevant'
p1166
sS'540057369472806912'
p1167
S'injured_or_dead_people'
p1168
sS'540018356766515200'
p1169
S'not_related_or_irrelevant'
p1170
sS'540016489835671552'
p1171
S'other_useful_information'
p1172
sS'540043385990414336'
p1173
S'other_useful_information'
p1174
sS'540043478806577152'
p1175
S'not_related_or_irrelevant'
p1176
sS'540080616566714368'
p1177
S'displaced_people_and_evacuations'
p1178
sS'540035228857683968'
p1179
S'other_useful_information'
p1180
sS'540036581000622080'
p1181
S'not_related_or_irrelevant'
p1182
sS'540034499057156098'
p1183
S'sympathy_and_emotional_support'
p1184
sS'540035392372633600'
p1185
S'caution_and_advice'
p1186
sS'540029863290105856'
p1187
S'injured_or_dead_people'
p1188
sS'540016109726867456'
p1189
S'other_useful_information'
p1190
sS'540026719583735808'
p1191
S'sympathy_and_emotional_support'
p1192
sS'540008189639417856'
p1193
S'other_useful_information'
p1194
sS'540012215097491457'
p1195
S'caution_and_advice'
p1196
sS'540005538948337666'
p1197
S'caution_and_advice'
p1198
sS'540027918294863872'
p1199
S'displaced_people_and_evacuations'
p1200
sS'540033222378135552'
p1201
S'other_useful_information'
p1202
sS'540008225689456640'
p1203
S'caution_and_advice'
p1204
sS'540008140889018368'
p1205
S'other_useful_information'
p1206
sS'540031212069216256'
p1207
S'not_related_or_irrelevant'
p1208
sS'540038519398203392'
p1209
S'donation_needs_or_offers_or_volunteering_services'
p1210
sS'540030331085021185'
p1211
S'not_related_or_irrelevant'
p1212
sS'540047832859017216'
p1213
S'not_related_or_irrelevant'
p1214
sS'540021459406438401'
p1215
S'other_useful_information'
p1216
sS'540045273373093888'
p1217
S'sympathy_and_emotional_support'
p1218
sS'540018263116500992'
p1219
S'not_related_or_irrelevant'
p1220
sS'540040761966731264'
p1221
S'not_related_or_irrelevant'
p1222
sS'540023089140994048'
p1223
S'donation_needs_or_offers_or_volunteering_services'
p1224
sS'540045660263698432'
p1225
S'other_useful_information'
p1226
sS'540025825177784320'
p1227
S'caution_and_advice'
p1228
sS'540009379638935552'
p1229
S'other_useful_information'
p1230
sS'540005627204874240'
p1231
S'displaced_people_and_evacuations'
p1232
sS'540032877576978432'
p1233
S'injured_or_dead_people'
p1234
sS'540021065582264321'
p1235
S'other_useful_information'
p1236
sS'540022686303264768'
p1237
S'other_useful_information'
p1238
sS'540006285023133696'
p1239
S'other_useful_information'
p1240
sS'540016639652032512'
p1241
S'caution_and_advice'
p1242
sS'540040682669232129'
p1243
S'infrastructure_and_utilities_damage'
p1244
sS'540036730754457600'
p1245
S'sympathy_and_emotional_support'
p1246
sS'540020682197716992'
p1247
S'caution_and_advice'
p1248
sS'540029351035539456'
p1249
S'other_useful_information'
p1250
sS'540009353319698432'
p1251
S'other_useful_information'
p1252
sS'540022388037935104'
p1253
S'sympathy_and_emotional_support'
p1254
sS'540036284576583680'
p1255
S'not_related_or_irrelevant'
p1256
sS'540042394767732736'
p1257
S'other_useful_information'
p1258
sS'540011371832680448'
p1259
S'sympathy_and_emotional_support'
p1260
sS'540028738025443328'
p1261
S'sympathy_and_emotional_support'
p1262
sS'540016786876284929'
p1263
S'other_useful_information'
p1264
sS'540033596140945408'
p1265
S'caution_and_advice'
p1266
sS'540041340055470081'
p1267
S'sympathy_and_emotional_support'
p1268
sS'540022872979144704'
p1269
S'other_useful_information'
p1270
sS'540039256153268224'
p1271
S'sympathy_and_emotional_support'
p1272
sS'540012203194482688'
p1273
S'sympathy_and_emotional_support'
p1274
sS'540038268914397184'
p1275
S'sympathy_and_emotional_support'
p1276
sS'540006015073144832'
p1277
S'displaced_people_and_evacuations'
p1278
sS'540025831133675521'
p1279
S'other_useful_information'
p1280
sS'540045595969589248'
p1281
S'not_related_or_irrelevant'
p1282
sS'540041272770035714'
p1283
S'other_useful_information'
p1284
sS'540042552850644992'
p1285
S'displaced_people_and_evacuations'
p1286
sS'540031704329506817'
p1287
S'injured_or_dead_people'
p1288
sS'540034814204596224'
p1289
S'caution_and_advice'
p1290
sS'540020774002651136'
p1291
S'displaced_people_and_evacuations'
p1292
sS'540020845809135616'
p1293
S'sympathy_and_emotional_support'
p1294
sS'540024178678591489'
p1295
S'not_related_or_irrelevant'
p1296
sS'540012961382031360'
p1297
S'sympathy_and_emotional_support'
p1298
sS'540006348818087937'
p1299
S'sympathy_and_emotional_support'
p1300
sS'540006911438233601'
p1301
S'other_useful_information'
p1302
sS'540017142024773632'
p1303
S'other_useful_information'
p1304
sS'540029851881570305'
p1305
S'caution_and_advice'
p1306
sS'540044421920616448'
p1307
S'other_useful_information'
p1308
sS'540033365840113664'
p1309
S'other_useful_information'
p1310
sS'540010786278891520'
p1311
S'not_related_or_irrelevant'
p1312
sS'540032696781520896'
p1313
S'other_useful_information'
p1314
sS'540041973340438529'
p1315
S'displaced_people_and_evacuations'
p1316
sS'540017412398002176'
p1317
S'other_useful_information'
p1318
sS'540018856354267137'
p1319
S'displaced_people_and_evacuations'
p1320
sS'540034063570960384'
p1321
S'other_useful_information'
p1322
sS'540025326751854592'
p1323
S'not_related_or_irrelevant'
p1324
sS'540020826024587264'
p1325
S'caution_and_advice'
p1326
sS'540030981076316160'
p1327
S'other_useful_information'
p1328
sS'540027328269529088'
p1329
S'displaced_people_and_evacuations'
p1330
sS'540017659774271488'
p1331
S'displaced_people_and_evacuations'
p1332
sS'540025877048745985'
p1333
S'other_useful_information'
p1334
sS'540023791879872513'
p1335
S'caution_and_advice'
p1336
sS'540027025331716096'
p1337
S'donation_needs_or_offers_or_volunteering_services'
p1338
sS'540004462933204992'
p1339
S'caution_and_advice'
p1340
sS'540030654818181120'
p1341
S'donation_needs_or_offers_or_volunteering_services'
p1342
sS'540039470670548992'
p1343
S'other_useful_information'
p1344
sS'540026490658648064'
p1345
S'not_related_or_irrelevant'
p1346
sS'540025070660632577'
p1347
S'other_useful_information'
p1348
sS'540038158289600512'
p1349
S'donation_needs_or_offers_or_volunteering_services'
p1350
sS'540018827036471296'
p1351
S'displaced_people_and_evacuations'
p1352
sS'540009320247599104'
p1353
S'other_useful_information'
p1354
sS'540035726235025408'
p1355
S'caution_and_advice'
p1356
sS'540036499744378880'
p1357
S'sympathy_and_emotional_support'
p1358
sS'540039494561316864'
p1359
S'other_useful_information'
p1360
sS'540015303246508032'
p1361
S'other_useful_information'
p1362
sS'540038614860574721'
p1363
S'not_related_or_irrelevant'
p1364
sS'540021290812571648'
p1365
S'not_related_or_irrelevant'
p1366
sS'540044380128567296'
p1367
S'not_related_or_irrelevant'
p1368
sS'540033581439938560'
p1369
S'displaced_people_and_evacuations'
p1370
sS'540035904631357440'
p1371
S'donation_needs_or_offers_or_volunteering_services'
p1372
sS'540034474524684288'
p1373
S'injured_or_dead_people'
p1374
sS'540026518781444097'
p1375
S'injured_or_dead_people'
p1376
sS'540030530440265728'
p1377
S'other_useful_information'
p1378
sS'540016594962092032'
p1379
S'sympathy_and_emotional_support'
p1380
sS'540038034146603008'
p1381
S'caution_and_advice'
p1382
sS'540027863768915968'
p1383
S'caution_and_advice'
p1384
sS'540028149564596225'
p1385
S'other_useful_information'
p1386
sS'540038130833698816'
p1387
S'infrastructure_and_utilities_damage'
p1388
sS'540025008173490176'
p1389
S'other_useful_information'
p1390
sS'540036605210140672'
p1391
S'caution_and_advice'
p1392
sS'540011694156562433'
p1393
S'sympathy_and_emotional_support'
p1394
sS'540033782015741952'
p1395
S'not_related_or_irrelevant'
p1396
sS'540006747742539776'
p1397
S'caution_and_advice'
p1398
sS'540035552314396672'
p1399
S'not_related_or_irrelevant'
p1400
sS'540036636461916162'
p1401
S'donation_needs_or_offers_or_volunteering_services'
p1402
sS'540021495938822144'
p1403
S'caution_and_advice'
p1404
sS'540044540267085825'
p1405
S'other_useful_information'
p1406
sS'540006837437726720'
p1407
S'caution_and_advice'
p1408
sS'540047082061836288'
p1409
S'donation_needs_or_offers_or_volunteering_services'
p1410
sS'540028224474853376'
p1411
S'not_related_or_irrelevant'
p1412
sS'540032489679773696'
p1413
S'donation_needs_or_offers_or_volunteering_services'
p1414
sS'540017563829157888'
p1415
S'other_useful_information'
p1416
sS'540035227523895296'
p1417
S'sympathy_and_emotional_support'
p1418
sS'540029262934196224'
p1419
S'caution_and_advice'
p1420
sS'540035135857364992'
p1421
S'other_useful_information'
p1422
sS'540029569156141056'
p1423
S'not_related_or_irrelevant'
p1424
sS'540018700980867072'
p1425
S'other_useful_information'
p1426
sS'540040163728965632'
p1427
S'not_related_or_irrelevant'
p1428
sS'540012349667549185'
p1429
S'not_related_or_irrelevant'
p1430
sS'540034854289555456'
p1431
S'infrastructure_and_utilities_damage'
p1432
sS'540034854289555457'
p1433
S'sympathy_and_emotional_support'
p1434
sS'540027379108691968'
p1435
S'other_useful_information'
p1436
sS'540033532689534977'
p1437
S'other_useful_information'
p1438
sS'540015119497842688'
p1439
S'other_useful_information'
p1440
sS'540041661791756289'
p1441
S'not_related_or_irrelevant'
p1442
sS'540010520632242177'
p1443
S'donation_needs_or_offers_or_volunteering_services'
p1444
sS'540005626383192064'
p1445
S'not_related_or_irrelevant'
p1446
sS'540037102025457665'
p1447
S'not_related_or_irrelevant'
p1448
sS'540044790050476033'
p1449
S'not_related_or_irrelevant'
p1450
sS'540025873278054400'
p1451
S'other_useful_information'
p1452
sS'540041140741746688'
p1453
S'infrastructure_and_utilities_damage'
p1454
sS'540035362647601152'
p1455
S'displaced_people_and_evacuations'
p1456
sS'540036278046056448'
p1457
S'donation_needs_or_offers_or_volunteering_services'
p1458
sS'540029393196683264'
p1459
S'caution_and_advice'
p1460
sS'540045413181452288'
p1461
S'other_useful_information'
p1462
sS'540037599826821123'
p1463
S'sympathy_and_emotional_support'
p1464
sS'540011037450592257'
p1465
S'injured_or_dead_people'
p1466
sS'540036876879405056'
p1467
S'caution_and_advice'
p1468
sS'540008550093705216'
p1469
S'sympathy_and_emotional_support'
p1470
sS'540046216558424064'
p1471
S'caution_and_advice'
p1472
sS'540047760334913536'
p1473
S'displaced_people_and_evacuations'
p1474
sS'540011379256594432'
p1475
S'caution_and_advice'
p1476
sS'540028278916915200'
p1477
S'caution_and_advice'
p1478
sS'540012480622125056'
p1479
S'other_useful_information'
p1480
sS'540012593373396995'
p1481
S'other_useful_information'
p1482
sS'540006925065523200'
p1483
S'not_related_or_irrelevant'
p1484
sS'540036755445911552'
p1485
S'injured_or_dead_people'
p1486
sS'540024089616719872'
p1487
S'other_useful_information'
p1488
sS'540007227885498368'
p1489
S'sympathy_and_emotional_support'
p1490
sS'540010970924347394'
p1491
S'other_useful_information'
p1492
sS'540043594845802497'
p1493
S'infrastructure_and_utilities_damage'
p1494
sS'540022506170482688'
p1495
S'other_useful_information'
p1496
sS'540006162721038336'
p1497
S'displaced_people_and_evacuations'
p1498
sS'540010875097063424'
p1499
S'sympathy_and_emotional_support'
p1500
sS'540013820958093312'
p1501
S'caution_and_advice'
p1502
sS'540009369706852352'
p1503
S'sympathy_and_emotional_support'
p1504
sS'540013126427475968'
p1505
S'other_useful_information'
p1506
sS'540033488766787584'
p1507
S'not_related_or_irrelevant'
p1508
sS'540019585919901697'
p1509
S'caution_and_advice'
p1510
sS'540008365129478144'
p1511
S'not_related_or_irrelevant'
p1512
sS'540028484609773568'
p1513
S'other_useful_information'
p1514
sS'540038260223782914'
p1515
S'other_useful_information'
p1516
sS'540024032532250624'
p1517
S'caution_and_advice'
p1518
sS'540006125479804928'
p1519
S'sympathy_and_emotional_support'
p1520
sS'540035853116899328'
p1521
S'caution_and_advice'
p1522
sS'540034778699821056'
p1523
S'other_useful_information'
p1524
sS'540007771698376705'
p1525
S'injured_or_dead_people'
p1526
sS'540023059949056000'
p1527
S'injured_or_dead_people'
p1528
sS'540010537028157441'
p1529
S'sympathy_and_emotional_support'
p1530
sS'540042944968155136'
p1531
S'other_useful_information'
p1532
sS'540016514082947072'
p1533
S'caution_and_advice'
p1534
sS'540037294497882112'
p1535
S'displaced_people_and_evacuations'
p1536
sS'540026288052772864'
p1537
S'other_useful_information'
p1538
sS'540030836276350976'
p1539
S'other_useful_information'
p1540
sS'540028345182744579'
p1541
S'caution_and_advice'
p1542
sS'540040549172908032'
p1543
S'not_related_or_irrelevant'
p1544
sS'540047601022689280'
p1545
S'caution_and_advice'
p1546
sS'540018494725570560'
p1547
S'caution_and_advice'
p1548
sS'540034455939727360'
p1549
S'missing_trapped_or_found_people'
p1550
sS'540007067465957376'
p1551
S'other_useful_information'
p1552
sS'540041495727050752'
p1553
S'sympathy_and_emotional_support'
p1554
sS'540047892371623936'
p1555
S'not_related_or_irrelevant'
p1556
sS'540040257228402689'
p1557
S'other_useful_information'
p1558
sS'540025513457090562'
p1559
S'displaced_people_and_evacuations'
p1560
sS'540045731969503233'
p1561
S'donation_needs_or_offers_or_volunteering_services'
p1562
sS'540017409730441217'
p1563
S'donation_needs_or_offers_or_volunteering_services'
p1564
sS'540007508044038144'
p1565
S'other_useful_information'
p1566
sS'540032815354486784'
p1567
S'donation_needs_or_offers_or_volunteering_services'
p1568
sS'540020902230913025'
p1569
S'other_useful_information'
p1570
sS'540008486151532545'
p1571
S'other_useful_information'
p1572
sS'540007393510584320'
p1573
S'injured_or_dead_people'
p1574
sS'540013759159205888'
p1575
S'sympathy_and_emotional_support'
p1576
sS'540031750714298368'
p1577
S'caution_and_advice'
p1578
sS'540025014439776256'
p1579
S'not_related_or_irrelevant'
p1580
sS'540040141968924672'
p1581
S'other_useful_information'
p1582
sS'540037474341625856'
p1583
S'other_useful_information'
p1584
sS'540011857235279874'
p1585
S'not_related_or_irrelevant'
p1586
sS'540037108086214657'
p1587
S'infrastructure_and_utilities_damage'
p1588
sS'540033209988173825'
p1589
S'donation_needs_or_offers_or_volunteering_services'
p1590
sS'540031291714830337'
p1591
S'donation_needs_or_offers_or_volunteering_services'
p1592
sS'540037396507537408'
p1593
S'donation_needs_or_offers_or_volunteering_services'
p1594
sS'540043811016028160'
p1595
S'other_useful_information'
p1596
sS'540030648019210240'
p1597
S'not_related_or_irrelevant'
p1598
sS'540033590512205824'
p1599
S'other_useful_information'
p1600
sS'540036819228717056'
p1601
S'sympathy_and_emotional_support'
p1602
sS'540027220392046592'
p1603
S'other_useful_information'
p1604
sS'540044008295133184'
p1605
S'infrastructure_and_utilities_damage'
p1606
sS'540028306653855744'
p1607
S'infrastructure_and_utilities_damage'
p1608
sS'540030706416484352'
p1609
S'other_useful_information'
p1610
sS'540026062701203456'
p1611
S'other_useful_information'
p1612
sS'540020328831799297'
p1613
S'other_useful_information'
p1614
sS'540013237723738112'
p1615
S'not_related_or_irrelevant'
p1616
sS'540017724185788416'
p1617
S'other_useful_information'
p1618
sS'540037612132515840'
p1619
S'caution_and_advice'
p1620
sS'540044729216290816'
p1621
S'injured_or_dead_people'
p1622
sS'540012519994040321'
p1623
S'other_useful_information'
p1624
sS'540025289665806336'
p1625
S'donation_needs_or_offers_or_volunteering_services'
p1626
sS'540008728280305665'
p1627
S'other_useful_information'
p1628
sS'540025419743760384'
p1629
S'other_useful_information'
p1630
sS'540028478666457088'
p1631
S'caution_and_advice'
p1632
sS'540004575227301889'
p1633
S'other_useful_information'
p1634
sS'540033730417393665'
p1635
S'sympathy_and_emotional_support'
p1636
sS'540034407365898241'
p1637
S'sympathy_and_emotional_support'
p1638
sS'540031859603021824'
p1639
S'other_useful_information'
p1640
sS'540015973751742464'
p1641
S'sympathy_and_emotional_support'
p1642
sS'540006146749517824'
p1643
S'not_related_or_irrelevant'
p1644
sS'540027175198420992'
p1645
S'other_useful_information'
p1646
sS'540016423632781312'
p1647
S'other_useful_information'
p1648
sS'540012613816418306'
p1649
S'infrastructure_and_utilities_damage'
p1650
sS'540019701640724480'
p1651
S'caution_and_advice'
p1652
sS'540024822038671360'
p1653
S'not_related_or_irrelevant'
p1654
sS'540006132572372993'
p1655
S'sympathy_and_emotional_support'
p1656
sS'540042871290605568'
p1657
S'sympathy_and_emotional_support'
p1658
sS'540048006678990848'
p1659
S'caution_and_advice'
p1660
sS'540035371187175425'
p1661
S'infrastructure_and_utilities_damage'
p1662
sS'540034768579354625'
p1663
S'caution_and_advice'
p1664
sS'540031613279559680'
p1665
S'other_useful_information'
p1666
sS'540040970876624897'
p1667
S'caution_and_advice'
p1668
sS'540027816599760897'
p1669
S'displaced_people_and_evacuations'
p1670
sS'540030952115044352'
p1671
S'other_useful_information'
p1672
sS'540036850216214529'
p1673
S'donation_needs_or_offers_or_volunteering_services'
p1674
sS'540033947556511744'
p1675
S'infrastructure_and_utilities_damage'
p1676
sS'540007967085453312'
p1677
S'other_useful_information'
p1678
sS'540036160957870080'
p1679
S'not_related_or_irrelevant'
p1680
sS'540047665384677377'
p1681
S'displaced_people_and_evacuations'
p1682
sS'540005956218679296'
p1683
S'displaced_people_and_evacuations'
p1684
sS'540025657397628928'
p1685
S'caution_and_advice'
p1686
sS'540010423559286784'
p1687
S'other_useful_information'
p1688
sS'540029664920489984'
p1689
S'other_useful_information'
p1690
sS'540036864053215232'
p1691
S'not_related_or_irrelevant'
p1692
sS'540039544729395201'
p1693
S'other_useful_information'
p1694
sS'540031285276999680'
p1695
S'sympathy_and_emotional_support'
p1696
sS'540037273996517377'
p1697
S'sympathy_and_emotional_support'
p1698
sS'540036747019575296'
p1699
S'caution_and_advice'
p1700
sS'540042504994050048'
p1701
S'other_useful_information'
p1702
sS'540019514918699009'
p1703
S'other_useful_information'
p1704
sS'540034205665595392'
p1705
S'other_useful_information'
p1706
sS'540017600588046336'
p1707
S'not_related_or_irrelevant'
p1708
sS'540028559528456192'
p1709
S'sympathy_and_emotional_support'
p1710
sS'540011327448555521'
p1711
S'other_useful_information'
p1712
sS'540014593641578496'
p1713
S'not_related_or_irrelevant'
p1714
sS'540034831250624512'
p1715
S'not_related_or_irrelevant'
p1716
sS'540024180071464961'
p1717
S'other_useful_information'
p1718
sS'540008053937295361'
p1719
S'infrastructure_and_utilities_damage'
p1720
sS'540026770175447040'
p1721
S'other_useful_information'
p1722
sS'540016955986411521'
p1723
S'infrastructure_and_utilities_damage'
p1724
sS'540037290546835456'
p1725
S'sympathy_and_emotional_support'
p1726
sS'540007905454342144'
p1727
S'other_useful_information'
p1728
sS'540038519301754880'
p1729
S'sympathy_and_emotional_support'
p1730
sS'540025791707234306'
p1731
S'other_useful_information'
p1732
sS'540033452645441536'
p1733
S'not_related_or_irrelevant'
p1734
sS'540029601099964417'
p1735
S'other_useful_information'
p1736
sS'540004375112843264'
p1737
S'not_related_or_irrelevant'
p1738
sS'540020692780351488'
p1739
S'not_related_or_irrelevant'
p1740
sS'540036721904066563'
p1741
S'not_related_or_irrelevant'
p1742
sS'540010906692759553'
p1743
S'caution_and_advice'
p1744
sS'540045572208459777'
p1745
S'other_useful_information'
p1746
sS'540023646509469696'
p1747
S'caution_and_advice'
p1748
sS'540028932872232960'
p1749
S'caution_and_advice'
p1750
sS'540037632076431361'
p1751
S'sympathy_and_emotional_support'
p1752
sS'540013832845152258'
p1753
S'not_related_or_irrelevant'
p1754
sS'540006741820207104'
p1755
S'not_related_or_irrelevant'
p1756
sS'540047048750284800'
p1757
S'sympathy_and_emotional_support'
p1758
sS'540037793603268608'
p1759
S'not_related_or_irrelevant'
p1760
sS'540038616349552640'
p1761
S'caution_and_advice'
p1762
sS'540045244876599296'
p1763
S'other_useful_information'
p1764
sS'540020177702621184'
p1765
S'displaced_people_and_evacuations'
p1766
sS'540029276729274369'
p1767
S'other_useful_information'
p1768
sS'540035134255140864'
p1769
S'not_related_or_irrelevant'
p1770
sS'540027345394884608'
p1771
S'other_useful_information'
p1772
sS'540020983290007552'
p1773
S'other_useful_information'
p1774
sS'540033875888840704'
p1775
S'caution_and_advice'
p1776
sS'540027687788507137'
p1777
S'caution_and_advice'
p1778
sS'540045235569827840'
p1779
S'displaced_people_and_evacuations'
p1780
sS'540044966261579777'
p1781
S'displaced_people_and_evacuations'
p1782
sS'540028813380300800'
p1783
S'injured_or_dead_people'
p1784
sS'540042360336302080'
p1785
S'donation_needs_or_offers_or_volunteering_services'
p1786
sS'540038612025217024'
p1787
S'other_useful_information'
p1788
sS'540012064891088898'
p1789
S'other_useful_information'
p1790
sS'540047297413787648'
p1791
S'other_useful_information'
p1792
sS'540042398479290368'
p1793
S'injured_or_dead_people'
p1794
sS'540023648795377665'
p1795
S'other_useful_information'
p1796
sS'540009744996769793'
p1797
S'other_useful_information'
p1798
sS'540047521964240896'
p1799
S'not_related_or_irrelevant'
p1800
sS'540011715476205569'
p1801
S'other_useful_information'
p1802
sS'540026543649460224'
p1803
S'sympathy_and_emotional_support'
p1804
sS'540026079839145986'
p1805
S'sympathy_and_emotional_support'
p1806
sS'540023263447891968'
p1807
S'displaced_people_and_evacuations'
p1808
sS'540015628862881793'
p1809
S'caution_and_advice'
p1810
sS'540030669187854336'
p1811
S'donation_needs_or_offers_or_volunteering_services'
p1812
sS'540044368610992128'
p1813
S'sympathy_and_emotional_support'
p1814
sS'540006524047720449'
p1815
S'sympathy_and_emotional_support'
p1816
sS'540024335222992896'
p1817
S'sympathy_and_emotional_support'
p1818
sS'540041162187210752'
p1819
S'sympathy_and_emotional_support'
p1820
sS'540036765927866370'
p1821
S'sympathy_and_emotional_support'
p1822
sS'540022481353179136'
p1823
S'not_related_or_irrelevant'
p1824
sS'540031650785021952'
p1825
S'other_useful_information'
p1826
sS'540009082116009984'
p1827
S'other_useful_information'
p1828
sS'540013738477105152'
p1829
S'other_useful_information'
p1830
sS'540012247058108416'
p1831
S'other_useful_information'
p1832
sS'540022832906788864'
p1833
S'other_useful_information'
p1834
sS'540034060307820545'
p1835
S'displaced_people_and_evacuations'
p1836
sS'540006931360776192'
p1837
S'other_useful_information'
p1838
sS'540030977297633280'
p1839
S'caution_and_advice'
p1840
sS'540028086670991361'
p1841
S'caution_and_advice'
p1842
sS'540047948910845953'
p1843
S'displaced_people_and_evacuations'
p1844
sS'540012549605822465'
p1845
S'sympathy_and_emotional_support'
p1846
sS'540036207061630976'
p1847
S'other_useful_information'
p1848
sS'540035212139560960'
p1849
S'not_related_or_irrelevant'
p1850
sS'540010160651894784'
p1851
S'other_useful_information'
p1852
sS'540031687208357888'
p1853
S'caution_and_advice'
p1854
sS'540036804192129025'
p1855
S'other_useful_information'
p1856
sS'540007906532286465'
p1857
S'displaced_people_and_evacuations'
p1858
sS'540006667513896960'
p1859
S'other_useful_information'
p1860
sS'540042516918046720'
p1861
S'other_useful_information'
p1862
sS'540041917723971584'
p1863
S'sympathy_and_emotional_support'
p1864
sS'540011888583532544'
p1865
S'donation_needs_or_offers_or_volunteering_services'
p1866
sS'540021890555723777'
p1867
S'other_useful_information'
p1868
sS'540034516484501504'
p1869
S'other_useful_information'
p1870
sS'540029285667323906'
p1871
S'caution_and_advice'
p1872
sS'540033219395977217'
p1873
S'caution_and_advice'
p1874
sS'540004133265104897'
p1875
S'other_useful_information'
p1876
sS'540036268642414592'
p1877
S'injured_or_dead_people'
p1878
sS'540011407862145024'
p1879
S'caution_and_advice'
p1880
sS'540036283783864320'
p1881
S'displaced_people_and_evacuations'
p1882
sS'540022786178035712'
p1883
S'injured_or_dead_people'
p1884
sS'540035154874359808'
p1885
S'sympathy_and_emotional_support'
p1886
sS'540023955273158656'
p1887
S'sympathy_and_emotional_support'
p1888
sS'540019466063450114'
p1889
S'other_useful_information'
p1890
sS'540022068151345153'
p1891
S'caution_and_advice'
p1892
sS'540026047438135297'
p1893
S'not_related_or_irrelevant'
p1894
sS'540035751467966465'
p1895
S'caution_and_advice'
p1896
sS'540048064514244608'
p1897
S'sympathy_and_emotional_support'
p1898
sS'540028095852343297'
p1899
S'other_useful_information'
p1900
sS'540033946084323329'
p1901
S'sympathy_and_emotional_support'
p1902
sS'540026811657093120'
p1903
S'other_useful_information'
p1904
sS'540031523836018688'
p1905
S'caution_and_advice'
p1906
sS'540012148865658880'
p1907
S'sympathy_and_emotional_support'
p1908
sS'540039153505673217'
p1909
S'displaced_people_and_evacuations'
p1910
sS'540040891423932416'
p1911
S'other_useful_information'
p1912
sS'540041906718117888'
p1913
S'displaced_people_and_evacuations'
p1914
sS'540036293137162240'
p1915
S'sympathy_and_emotional_support'
p1916
sS'540040851242889216'
p1917
S'donation_needs_or_offers_or_volunteering_services'
p1918
sS'540016102378455040'
p1919
S'injured_or_dead_people'
p1920
sS'540027606901329920'
p1921
S'other_useful_information'
p1922
sS'540017631948853248'
p1923
S'sympathy_and_emotional_support'
p1924
sS'540006725118476288'
p1925
S'donation_needs_or_offers_or_volunteering_services'
p1926
sS'540022561912795136'
p1927
S'other_useful_information'
p1928
sS'540044713680580610'
p1929
S'sympathy_and_emotional_support'
p1930
sS'540026112969953280'
p1931
S'infrastructure_and_utilities_damage'
p1932
sS'540042540657803264'
p1933
S'other_useful_information'
p1934
sS'540025202697314305'
p1935
S'not_related_or_irrelevant'
p1936
sS'540029279535263744'
p1937
S'sympathy_and_emotional_support'
p1938
sS'540009149069672448'
p1939
S'other_useful_information'
p1940
sS'540036431507230720'
p1941
S'sympathy_and_emotional_support'
p1942
sS'540028389524922368'
p1943
S'other_useful_information'
p1944
sS'540013511443619842'
p1945
S'caution_and_advice'
p1946
sS'540022017999663104'
p1947
S'donation_needs_or_offers_or_volunteering_services'
p1948
sS'540041907972222977'
p1949
S'other_useful_information'
p1950
sS'540029797636640768'
p1951
S'sympathy_and_emotional_support'
p1952
sS'540035321484673024'
p1953
S'sympathy_and_emotional_support'
p1954
sS'540018904819437568'
p1955
S'missing_trapped_or_found_people'
p1956
sS'540024170914918400'
p1957
S'caution_and_advice'
p1958
sS'540048206449475584'
p1959
S'other_useful_information'
p1960
sS'540019281136586752'
p1961
S'displaced_people_and_evacuations'
p1962
sS'540010965593772033'
p1963
S'displaced_people_and_evacuations'
p1964
sS'540004869331881984'
p1965
S'caution_and_advice'
p1966
sS'540027245880823808'
p1967
S'caution_and_advice'
p1968
sS'540025055204618242'
p1969
S'missing_trapped_or_found_people'
p1970
sS'540034952507559937'
p1971
S'sympathy_and_emotional_support'
p1972
sS'540024195246092288'
p1973
S'other_useful_information'
p1974
sS'540042382264500224'
p1975
S'caution_and_advice'
p1976
sS'540035922394218496'
p1977
S'caution_and_advice'
p1978
sS'540012081055940609'
p1979
S'caution_and_advice'
p1980
sS'540026215474941952'
p1981
S'other_useful_information'
p1982
sS'540028101028089856'
p1983
S'other_useful_information'
p1984
sS'540029169124380673'
p1985
S'infrastructure_and_utilities_damage'
p1986
sS'540009453299302401'
p1987
S'caution_and_advice'
p1988
sS'540040628789194752'
p1989
S'sympathy_and_emotional_support'
p1990
sS'540010448456650752'
p1991
S'donation_needs_or_offers_or_volunteering_services'
p1992
sS'540037377939349504'
p1993
S'displaced_people_and_evacuations'
p1994
sS'540021751380316160'
p1995
S'other_useful_information'
p1996
sS'540026344541679616'
p1997
S'injured_or_dead_people'
p1998
sS'540021288287232000'
p1999
S'caution_and_advice'
p2000
sS'540026954741600257'
p2001
S'caution_and_advice'
p2002
sS'540027493277634560'
p2003
S'other_useful_information'
p2004
sS'540027007871254528'
p2005
S'caution_and_advice'
p2006
sS'540024384249798656'
p2007
S'caution_and_advice'
p2008
sS'540028550527451138'
p2009
S'not_related_or_irrelevant'
p2010
sS'540037505932746752'
p2011
S'sympathy_and_emotional_support'
p2012
sS'540036000387330048'
p2013
S'sympathy_and_emotional_support'
p2014
sS'540044267763150850'
p2015
S'caution_and_advice'
p2016
sS'540028780484362240'
p2017
S'caution_and_advice'
p2018
sS'540011199476137986'
p2019
S'sympathy_and_emotional_support'
p2020
sS'540010620376985600'
p2021
S'sympathy_and_emotional_support'
p2022
sS'540012014974676993'
p2023
S'other_useful_information'
p2024
sS'540011992933625856'
p2025
S'not_related_or_irrelevant'
p2026
sS'540018518238822400'
p2027
S'displaced_people_and_evacuations'
p2028
sS'540034786333454337'
p2029
S'not_related_or_irrelevant'
p2030
sS'540042369798664192'
p2031
S'sympathy_and_emotional_support'
p2032
sS'540031755605262336'
p2033
S'other_useful_information'
p2034
sS'540046572159897600'
p2035
S'donation_needs_or_offers_or_volunteering_services'
p2036
sS'540025952756310016'
p2037
S'caution_and_advice'
p2038
sS'540029026539040768'
p2039
S'other_useful_information'
p2040
sS'540007999214202881'
p2041
S'other_useful_information'
p2042
sS'540024884156329984'
p2043
S'other_useful_information'
p2044
sS'540010784130998272'
p2045
S'other_useful_information'
p2046
sS'540028031772155904'
p2047
S'infrastructure_and_utilities_damage'
p2048
sS'540026944054497280'
p2049
S'caution_and_advice'
p2050
sS'540031831853125632'
p2051
S'other_useful_information'
p2052
sS'540038061547986944'
p2053
S'not_related_or_irrelevant'
p2054
sS'540044376756346880'
p2055
S'other_useful_information'
p2056
sS'540010259943657472'
p2057
S'injured_or_dead_people'
p2058
sS'540026923598897152'
p2059
S'displaced_people_and_evacuations'
p2060
sS'540035316044660739'
p2061
S'caution_and_advice'
p2062
sS'540026006657327104'
p2063
S'other_useful_information'
p2064
sS'540031656082436096'
p2065
S'caution_and_advice'
p2066
sS'540025060900102144'
p2067
S'infrastructure_and_utilities_damage'
p2068
sS'540012042342514689'
p2069
S'other_useful_information'
p2070
sS'540011277678956544'
p2071
S'infrastructure_and_utilities_damage'
p2072
sS'540014546451046400'
p2073
S'other_useful_information'
p2074
sS'540019448199913472'
p2075
S'other_useful_information'
p2076
sS'540026995262754816'
p2077
S'donation_needs_or_offers_or_volunteering_services'
p2078
sS'540007494588719104'
p2079
S'caution_and_advice'
p2080
sS'540034039734751232'
p2081
S'infrastructure_and_utilities_damage'
p2082
sS'540029724945166336'
p2083
S'other_useful_information'
p2084
sS'540026298689548288'
p2085
S'other_useful_information'
p2086
sS'540043202078584833'
p2087
S'other_useful_information'
p2088
sS'540010985398874112'
p2089
S'sympathy_and_emotional_support'
p2090
sS'540008195482083328'
p2091
S'injured_or_dead_people'
p2092
sS'540013065626873856'
p2093
S'other_useful_information'
p2094
sS'540009914023038976'
p2095
S'caution_and_advice'
p2096
sS'540038106053767168'
p2097
S'infrastructure_and_utilities_damage'
p2098
sS'540021703842095104'
p2099
S'other_useful_information'
p2100
sS'540026471310295040'
p2101
S'other_useful_information'
p2102
sS'540047566252302337'
p2103
S'other_useful_information'
p2104
sS'540010117874192384'
p2105
S'other_useful_information'
p2106
sS'540024048244097025'
p2107
S'other_useful_information'
p2108
sS'540004277863731200'
p2109
S'sympathy_and_emotional_support'
p2110
sS'540043814875201537'
p2111
S'not_related_or_irrelevant'
p2112
sS'540015247587692544'
p2113
S'caution_and_advice'
p2114
sS'540038206968696832'
p2115
S'caution_and_advice'
p2116
sS'540021838164664323'
p2117
S'sympathy_and_emotional_support'
p2118
sS'540005184252829696'
p2119
S'not_related_or_irrelevant'
p2120
sS'540005581373710336'
p2121
S'other_useful_information'
p2122
sS'540011596366352384'
p2123
S'other_useful_information'
p2124
sS'540033397406838785'
p2125
S'displaced_people_and_evacuations'
p2126
sS'540032727450255360'
p2127
S'displaced_people_and_evacuations'
p2128
sS'540035505258110976'
p2129
S'sympathy_and_emotional_support'
p2130
sS'540045743088992256'
p2131
S'other_useful_information'
p2132
sS'540037108543807488'
p2133
S'caution_and_advice'
p2134
sS'540022532045148160'
p2135
S'not_related_or_irrelevant'
p2136
sS'540035213955305473'
p2137
S'caution_and_advice'
p2138
sS'540026396865593344'
p2139
S'sympathy_and_emotional_support'
p2140
sS'540029721464287232'
p2141
S'other_useful_information'
p2142
sS'540031518089818112'
p2143
S'other_useful_information'
p2144
sS'540032061692579841'
p2145
S'not_related_or_irrelevant'
p2146
sS'540036779479285760'
p2147
S'caution_and_advice'
p2148
sS'540037732438147072'
p2149
S'other_useful_information'
p2150
sS'540034205887897600'
p2151
S'caution_and_advice'
p2152
sS'540037523590742018'
p2153
S'other_useful_information'
p2154
sS'540041946891169794'
p2155
S'caution_and_advice'
p2156
sS'540088179194617856'
p2157
S'other_useful_information'
p2158
sS'540031922840166400'
p2159
S'donation_needs_or_offers_or_volunteering_services'
p2160
sS'540045870234734592'
p2161
S'displaced_people_and_evacuations'
p2162
sS'540037350257348609'
p2163
S'donation_needs_or_offers_or_volunteering_services'
p2164
sS'540020898317627393'
p2165
S'other_useful_information'
p2166
sS'540034786635833344'
p2167
S'displaced_people_and_evacuations'
p2168
sS'540040816459526145'
p2169
S'caution_and_advice'
p2170
sS'540011687701512194'
p2171
S'other_useful_information'
p2172
sS'540040436824276992'
p2173
S'sympathy_and_emotional_support'
p2174
sS'540011473846558721'
p2175
S'other_useful_information'
p2176
sS'540005780372467712'
p2177
S'not_related_or_irrelevant'
p2178
sS'540026135946342400'
p2179
S'sympathy_and_emotional_support'
p2180
sS'540037097998934016'
p2181
S'infrastructure_and_utilities_damage'
p2182
sS'540035214907432960'
p2183
S'other_useful_information'
p2184
sS'540020780231188481'
p2185
S'caution_and_advice'
p2186
sS'540037737328287744'
p2187
S'sympathy_and_emotional_support'
p2188
sS'540006558361325569'
p2189
S'other_useful_information'
p2190
sS'540022938196402176'
p2191
S'not_related_or_irrelevant'
p2192
sS'540020836124487680'
p2193
S'other_useful_information'
p2194
sS'540040276736090113'
p2195
S'other_useful_information'
p2196
sS'540032702573867008'
p2197
S'other_useful_information'
p2198
sS'540025319713812480'
p2199
S'other_useful_information'
p2200
sS'540035540767477760'
p2201
S'other_useful_information'
p2202
sS'540024974065422336'
p2203
S'other_useful_information'
p2204
sS'540005086559473666'
p2205
S'infrastructure_and_utilities_damage'
p2206
sS'540038500834242562'
p2207
S'other_useful_information'
p2208
sS'540034748261736448'
p2209
S'other_useful_information'
p2210
sS'540008684059758592'
p2211
S'sympathy_and_emotional_support'
p2212
sS'540007164631216130'
p2213
S'displaced_people_and_evacuations'
p2214
sS'540010908668264448'
p2215
S'displaced_people_and_evacuations'
p2216
sS'540024981355106304'
p2217
S'infrastructure_and_utilities_damage'
p2218
sS'540045481062445056'
p2219
S'caution_and_advice'
p2220
sS'540011927951269888'
p2221
S'other_useful_information'
p2222
sS'540033880804179968'
p2223
S'donation_needs_or_offers_or_volunteering_services'
p2224
sS'540013970086576128'
p2225
S'sympathy_and_emotional_support'
p2226
sS'540039875974533120'
p2227
S'displaced_people_and_evacuations'
p2228
sS'540031058914181121'
p2229
S'other_useful_information'
p2230
sS'540014046565507073'
p2231
S'caution_and_advice'
p2232
sS'540007867516870656'
p2233
S'other_useful_information'
p2234
sS'540036944567087104'
p2235
S'sympathy_and_emotional_support'
p2236
sS'540007071761334272'
p2237
S'displaced_people_and_evacuations'
p2238
sS'540036764446912512'
p2239
S'sympathy_and_emotional_support'
p2240
sS'540035679246237696'
p2241
S'other_useful_information'
p2242
sS'540004725748273152'
p2243
S'displaced_people_and_evacuations'
p2244
sS'540032407890440192'
p2245
S'not_related_or_irrelevant'
p2246
sS'540009940551610368'
p2247
S'injured_or_dead_people'
p2248
sS'540035332008210432'
p2249
S'caution_and_advice'
p2250
sS'540019177700859907'
p2251
S'caution_and_advice'
p2252
sS'540026994130681856'
p2253
S'displaced_people_and_evacuations'
p2254
sS'540021576561729537'
p2255
S'caution_and_advice'
p2256
sS'540012909405818880'
p2257
S'donation_needs_or_offers_or_volunteering_services'
p2258
sS'540041992051249154'
p2259
S'infrastructure_and_utilities_damage'
p2260
sS'540045881290944514'
p2261
S'caution_and_advice'
p2262
sS'540027522130268160'
p2263
S'donation_needs_or_offers_or_volunteering_services'
p2264
sS'540028518747234304'
p2265
S'caution_and_advice'
p2266
sS'540042917541191680'
p2267
S'not_related_or_irrelevant'
p2268
sS'540028064940298240'
p2269
S'donation_needs_or_offers_or_volunteering_services'
p2270
sS'540011331257004032'
p2271
S'not_related_or_irrelevant'
p2272
sS'540047851095863296'
p2273
S'caution_and_advice'
p2274
sS'540017402692374528'
p2275
S'sympathy_and_emotional_support'
p2276
sS'540044365012295681'
p2277
S'not_related_or_irrelevant'
p2278
sS'540023997329842176'
p2279
S'not_related_or_irrelevant'
p2280
sS'540030841728954368'
p2281
S'displaced_people_and_evacuations'
p2282
sS'540003797351665664'
p2283
S'not_related_or_irrelevant'
p2284
sS'540027769556451328'
p2285
S'sympathy_and_emotional_support'
p2286
sS'540033997410406400'
p2287
S'caution_and_advice'
p2288
sS'540028724746665984'
p2289
S'other_useful_information'
p2290
sS'540014972311715841'
p2291
S'sympathy_and_emotional_support'
p2292
sS'540018238214520832'
p2293
S'other_useful_information'
p2294
sS'540037366291767296'
p2295
S'other_useful_information'
p2296
sS'540028801183281152'
p2297
S'caution_and_advice'
p2298
sS'540020719619702784'
p2299
S'caution_and_advice'
p2300
sS'540009488447578113'
p2301
S'not_related_or_irrelevant'
p2302
sS'540013999425724417'
p2303
S'caution_and_advice'
p2304
sS'540039522440863745'
p2305
S'injured_or_dead_people'
p2306
sS'540031427161501696'
p2307
S'other_useful_information'
p2308
sS'540038799384793089'
p2309
S'not_related_or_irrelevant'
p2310
sS'540038532446687232'
p2311
S'donation_needs_or_offers_or_volunteering_services'
p2312
sS'540011475276800000'
p2313
S'other_useful_information'
p2314
sS'540007513253363712'
p2315
S'sympathy_and_emotional_support'
p2316
sS'540027038396981249'
p2317
S'other_useful_information'
p2318
sS'540018108014923776'
p2319
S'other_useful_information'
p2320
sS'540031306139058176'
p2321
S'other_useful_information'
p2322
sS'540022996543750144'
p2323
S'other_useful_information'
p2324
sS'540046040997441536'
p2325
S'not_related_or_irrelevant'
p2326
sS'540044943847202816'
p2327
S'sympathy_and_emotional_support'
p2328
sS'540042361510690817'
p2329
S'caution_and_advice'
p2330
sS'540011982145871873'
p2331
S'other_useful_information'
p2332
sS'540030658697895936'
p2333
S'sympathy_and_emotional_support'
p2334
sS'540010566937350144'
p2335
S'other_useful_information'
p2336
sS'540031922215587840'
p2337
S'other_useful_information'
p2338
sS'540011254484447233'
p2339
S'other_useful_information'
p2340
sS'540023616658628608'
p2341
S'other_useful_information'
p2342
sS'540032966458499072'
p2343
S'not_related_or_irrelevant'
p2344
sS'540038255861698560'
p2345
S'other_useful_information'
p2346
sS'540032591831629824'
p2347
S'caution_and_advice'
p2348
sS'540037067670302720'
p2349
S'other_useful_information'
p2350
sS'540020818164469761'
p2351
S'other_useful_information'
p2352
sS'540041312100048896'
p2353
S'other_useful_information'
p2354
sS'540030154370584577'
p2355
S'not_related_or_irrelevant'
p2356
sS'540015893779349504'
p2357
S'other_useful_information'
p2358
sS'540007045697527810'
p2359
S'injured_or_dead_people'
p2360
sS'540025949966721024'
p2361
S'sympathy_and_emotional_support'
p2362
sS'540008280441892864'
p2363
S'sympathy_and_emotional_support'
p2364
sS'540026525861416960'
p2365
S'caution_and_advice'
p2366
sS'540015915840991232'
p2367
S'caution_and_advice'
p2368
sS'540045535411847170'
p2369
S'other_useful_information'
p2370
sS'540029851743170560'
p2371
S'other_useful_information'
p2372
sS'540014159081897985'
p2373
S'caution_and_advice'
p2374
sS'540040532827721728'
p2375
S'other_useful_information'
p2376
sS'540034152574103552'
p2377
S'not_related_or_irrelevant'
p2378
sS'540025845142654978'
p2379
S'other_useful_information'
p2380
sS'540028650125414400'
p2381
S'other_useful_information'
p2382
sS'540017920265310208'
p2383
S'other_useful_information'
p2384
sS'540030800217919488'
p2385
S'infrastructure_and_utilities_damage'
p2386
sS'540028969530052608'
p2387
S'sympathy_and_emotional_support'
p2388
sS'540025939615166464'
p2389
S'sympathy_and_emotional_support'
p2390
sS'540021143302721536'
p2391
S'other_useful_information'
p2392
sS'540037704411394048'
p2393
S'other_useful_information'
p2394
sS'540040467447304192'
p2395
S'sympathy_and_emotional_support'
p2396
sS'540023163682164736'
p2397
S'caution_and_advice'
p2398
sS'540047969643290624'
p2399
S'caution_and_advice'
p2400
sS'540037756974428160'
p2401
S'caution_and_advice'
p2402
sS'540010560041910272'
p2403
S'sympathy_and_emotional_support'
p2404
sS'540027764582014977'
p2405
S'other_useful_information'
p2406
sS'540038321208975360'
p2407
S'sympathy_and_emotional_support'
p2408
sS'540029179153354752'
p2409
S'caution_and_advice'
p2410
sS'540037490325741568'
p2411
S'injured_or_dead_people'
p2412
sS'540025906220122112'
p2413
S'sympathy_and_emotional_support'
p2414
sS'540023679535431680'
p2415
S'donation_needs_or_offers_or_volunteering_services'
p2416
sS'540040105327468544'
p2417
S'other_useful_information'
p2418
sS'540037629224292353'
p2419
S'sympathy_and_emotional_support'
p2420
sS'540009737241104385'
p2421
S'caution_and_advice'
p2422
sS'540046202717212672'
p2423
S'sympathy_and_emotional_support'
p2424
sS'540025887484178433'
p2425
S'other_useful_information'
p2426
sS'540006245923831808'
p2427
S'other_useful_information'
p2428
sS'540017443184189442'
p2429
S'other_useful_information'
p2430
sS'540032282157785088'
p2431
S'other_useful_information'
p2432
sS'540030799441981440'
p2433
S'other_useful_information'
p2434
sS'540022771078541312'
p2435
S'displaced_people_and_evacuations'
p2436
sS'540028062922833920'
p2437
S'sympathy_and_emotional_support'
p2438
sS'540042965536616448'
p2439
S'caution_and_advice'
p2440
sS'540025112078987264'
p2441
S'other_useful_information'
p2442
sS'540020385446502400'
p2443
S'other_useful_information'
p2444
sS'540040879000801282'
p2445
S'donation_needs_or_offers_or_volunteering_services'
p2446
sS'540038740094107648'
p2447
S'other_useful_information'
p2448
sS'540026194175852544'
p2449
S'displaced_people_and_evacuations'
p2450
sS'540035932716810240'
p2451
S'donation_needs_or_offers_or_volunteering_services'
p2452
sS'540020273232105472'
p2453
S'other_useful_information'
p2454
sS'540036347738603520'
p2455
S'other_useful_information'
p2456
sS'540021929336254464'
p2457
S'other_useful_information'
p2458
sS'540025044655554560'
p2459
S'injured_or_dead_people'
p2460
sS'540021833571917824'
p2461
S'donation_needs_or_offers_or_volunteering_services'
p2462
sS'540018170606518272'
p2463
S'caution_and_advice'
p2464
sS'540033124311126016'
p2465
S'not_related_or_irrelevant'
p2466
sS'540004905558085633'
p2467
S'caution_and_advice'
p2468
sS'540031270860759041'
p2469
S'other_useful_information'
p2470
sS'540035265171976192'
p2471
S'other_useful_information'
p2472
sS'540041221318926336'
p2473
S'infrastructure_and_utilities_damage'
p2474
sS'540038140962930688'
p2475
S'other_useful_information'
p2476
sS'540045230419243009'
p2477
S'caution_and_advice'
p2478
sS'540007218100195328'
p2479
S'displaced_people_and_evacuations'
p2480
sS'540004410894454784'
p2481
S'sympathy_and_emotional_support'
p2482
sS'540042034396934144'
p2483
S'not_related_or_irrelevant'
p2484
sS'540023262332207104'
p2485
S'sympathy_and_emotional_support'
p2486
sS'540027128478044160'
p2487
S'infrastructure_and_utilities_damage'
p2488
sS'540034245440192512'
p2489
S'other_useful_information'
p2490
sS'540034724727500800'
p2491
S'sympathy_and_emotional_support'
p2492
sS'540031663309201408'
p2493
S'sympathy_and_emotional_support'
p2494
sS'540029173247381504'
p2495
S'other_useful_information'
p2496
sS'540043298669228033'
p2497
S'sympathy_and_emotional_support'
p2498
sS'540032120618369024'
p2499
S'not_related_or_irrelevant'
p2500
sS'540025621896626176'
p2501
S'donation_needs_or_offers_or_volunteering_services'
p2502
sS'540023811471470592'
p2503
S'displaced_people_and_evacuations'
p2504
sS'540026020854652928'
p2505
S'other_useful_information'
p2506
sS'540028740588154881'
p2507
S'other_useful_information'
p2508
sS'540033086503673858'
p2509
S'other_useful_information'
p2510
sS'540028718974906368'
p2511
S'not_related_or_irrelevant'
p2512
sS'540047825761869824'
p2513
S'not_related_or_irrelevant'
p2514
sS'540037976210694145'
p2515
S'not_related_or_irrelevant'
p2516
sS'540007668929163264'
p2517
S'other_useful_information'
p2518
sS'540041938658140160'
p2519
S'other_useful_information'
p2520
sS'540027197415632897'
p2521
S'displaced_people_and_evacuations'
p2522
sS'540010681685143552'
p2523
S'other_useful_information'
p2524
sS'540020941883858944'
p2525
S'caution_and_advice'
p2526
sS'540026843592540160'
p2527
S'caution_and_advice'
p2528
sS'540026152350654464'
p2529
S'injured_or_dead_people'
p2530
sS'540042715950751744'
p2531
S'sympathy_and_emotional_support'
p2532
sS'540016490292838401'
p2533
S'displaced_people_and_evacuations'
p2534
sS'540037602238140416'
p2535
S'sympathy_and_emotional_support'
p2536
sS'540028282578534400'
p2537
S'displaced_people_and_evacuations'
p2538
sS'540029775750787072'
p2539
S'other_useful_information'
p2540
sS'540013752930693123'
p2541
S'caution_and_advice'
p2542
sS'540025415272640513'
p2543
S'caution_and_advice'
p2544
sS'540036608418779137'
p2545
S'sympathy_and_emotional_support'
p2546
sS'540036321243594752'
p2547
S'infrastructure_and_utilities_damage'
p2548
sS'540037902219362304'
p2549
S'other_useful_information'
p2550
sS'540031003880730624'
p2551
S'other_useful_information'
p2552
sS'540044125978890240'
p2553
S'other_useful_information'
p2554
sS'540033733244362753'
p2555
S'other_useful_information'
p2556
sS'540008990743068674'
p2557
S'other_useful_information'
p2558
sS'540017226988781569'
p2559
S'other_useful_information'
p2560
sS'540035196142100480'
p2561
S'not_related_or_irrelevant'
p2562
sS'540031291044143104'
p2563
S'sympathy_and_emotional_support'
p2564
sS'540010068859965440'
p2565
S'other_useful_information'
p2566
sS'540027022173405184'
p2567
S'not_related_or_irrelevant'
p2568
sS'540045049577213952'
p2569
S'other_useful_information'
p2570
sS'540027450348929024'
p2571
S'displaced_people_and_evacuations'
p2572
sS'540027485849530368'
p2573
S'caution_and_advice'
p2574
sS'540041903287181312'
p2575
S'other_useful_information'
p2576
sS'540039110962860033'
p2577
S'sympathy_and_emotional_support'
p2578
sS'540037886658498560'
p2579
S'other_useful_information'
p2580
sS'540037856463294464'
p2581
S'caution_and_advice'
p2582
sS'540020205544804352'
p2583
S'other_useful_information'
p2584
sS'540022625653637121'
p2585
S'other_useful_information'
p2586
sS'540004783491276800'
p2587
S'other_useful_information'
p2588
sS'540033182280593408'
p2589
S'sympathy_and_emotional_support'
p2590
sS'540033323423133696'
p2591
S'other_useful_information'
p2592
sS'540034713579048960'
p2593
S'caution_and_advice'
p2594
sS'540037208992800768'
p2595
S'other_useful_information'
p2596
sS'540026913310244864'
p2597
S'other_useful_information'
p2598
sS'540009168971649024'
p2599
S'infrastructure_and_utilities_damage'
p2600
sS'540023564435742720'
p2601
S'infrastructure_and_utilities_damage'
p2602
sS'540044553252642816'
p2603
S'sympathy_and_emotional_support'
p2604
sS'540008853468090368'
p2605
S'caution_and_advice'
p2606
sS'540030270619938816'
p2607
S'donation_needs_or_offers_or_volunteering_services'
p2608
sS'540030645573926912'
p2609
S'not_related_or_irrelevant'
p2610
sS'540030745780035585'
p2611
S'infrastructure_and_utilities_damage'
p2612
sS'540025621892435969'
p2613
S'not_related_or_irrelevant'
p2614
sS'540030497217196034'
p2615
S'not_related_or_irrelevant'
p2616
sS'540047443316846592'
p2617
S'other_useful_information'
p2618
sS'540015513124888577'
p2619
S'sympathy_and_emotional_support'
p2620
sS'540035786901434369'
p2621
S'injured_or_dead_people'
p2622
sS'540037296972496896'
p2623
S'other_useful_information'
p2624
sS'540036290272837632'
p2625
S'other_useful_information'
p2626
sS'540010072177250304'
p2627
S'not_related_or_irrelevant'
p2628
sS'540017163226988544'
p2629
S'sympathy_and_emotional_support'
p2630
sS'540020874016210945'
p2631
S'infrastructure_and_utilities_damage'
p2632
sS'540027433823391744'
p2633
S'donation_needs_or_offers_or_volunteering_services'
p2634
sS'540029891148648449'
p2635
S'caution_and_advice'
p2636
sS'540027684600819712'
p2637
S'sympathy_and_emotional_support'
p2638
sS'540040495003869184'
p2639
S'other_useful_information'
p2640
sS'540027025306562560'
p2641
S'other_useful_information'
p2642
sS'540034817715220480'
p2643
S'infrastructure_and_utilities_damage'
p2644
sS'540027116213911553'
p2645
S'caution_and_advice'
p2646
sS'540045023828381696'
p2647
S'other_useful_information'
p2648
sS'540036055161139200'
p2649
S'caution_and_advice'
p2650
sS'540047486581092352'
p2651
S'not_related_or_irrelevant'
p2652
sS'540027424025493504'
p2653
S'donation_needs_or_offers_or_volunteering_services'
p2654
sS'540035196431499264'
p2655
S'other_useful_information'
p2656
sS'540020466438520832'
p2657
S'not_related_or_irrelevant'
p2658
sS'540045290016079872'
p2659
S'other_useful_information'
p2660
sS'540037024380506113'
p2661
S'other_useful_information'
p2662
sS'540031783891243008'
p2663
S'other_useful_information'
p2664
sS'540033854942101505'
p2665
S'other_useful_information'
p2666
sS'540015339497484290'
p2667
S'other_useful_information'
p2668
sS'540034626387857408'
p2669
S'caution_and_advice'
p2670
sS'540027853182472192'
p2671
S'injured_or_dead_people'
p2672
sS'540044192366350337'
p2673
S'other_useful_information'
p2674
sS'540025416203788288'
p2675
S'other_useful_information'
p2676
sS'540017102485069824'
p2677
S'other_useful_information'
p2678
sS'540046660093505537'
p2679
S'other_useful_information'
p2680
sS'540030947425390594'
p2681
S'not_related_or_irrelevant'
p2682
sS'540007325696659457'
p2683
S'other_useful_information'
p2684
sS'540036509483532288'
p2685
S'infrastructure_and_utilities_damage'
p2686
sS'540035607498473473'
p2687
S'injured_or_dead_people'
p2688
sS'540043432769884160'
p2689
S'other_useful_information'
p2690
sS'540028474509897728'
p2691
S'caution_and_advice'
p2692
sS'540037166374866944'
p2693
S'displaced_people_and_evacuations'
p2694
sS'540046008239943680'
p2695
S'caution_and_advice'
p2696
sS'540035383262597121'
p2697
S'other_useful_information'
p2698
sS'540037423766323200'
p2699
S'other_useful_information'
p2700
sS'540029919108280320'
p2701
S'other_useful_information'
p2702
sS'540041304546103297'
p2703
S'displaced_people_and_evacuations'
p2704
sS'540013775030452225'
p2705
S'other_useful_information'
p2706
sS'540024832663236608'
p2707
S'other_useful_information'
p2708
sS'540024321822195712'
p2709
S'sympathy_and_emotional_support'
p2710
sS'540007516365529088'
p2711
S'other_useful_information'
p2712
sS'540048207967830018'
p2713
S'other_useful_information'
p2714
sS'540028026033950721'
p2715
S'donation_needs_or_offers_or_volunteering_services'
p2716
sS'540019406198149120'
p2717
S'other_useful_information'
p2718
sS'540027352504221696'
p2719
S'other_useful_information'
p2720
sS'540031756477280256'
p2721
S'caution_and_advice'
p2722
sS'540025604414783488'
p2723
S'other_useful_information'
p2724
sS'540037646266138624'
p2725
S'other_useful_information'
p2726
sS'540043165277769728'
p2727
S'not_related_or_irrelevant'
p2728
sS'540010054783467520'
p2729
S'other_useful_information'
p2730
sS'540010953161465856'
p2731
S'other_useful_information'
p2732
sS'540011074980831232'
p2733
S'other_useful_information'
p2734
sS'540040345783111681'
p2735
S'other_useful_information'
p2736
sS'540022767635005440'
p2737
S'other_useful_information'
p2738
sS'540032194610073600'
p2739
S'donation_needs_or_offers_or_volunteering_services'
p2740
sS'540036770834821120'
p2741
S'injured_or_dead_people'
p2742
sS'540044529034735616'
p2743
S'caution_and_advice'
p2744
sS'540026288270884864'
p2745
S'other_useful_information'
p2746
sS'540018377742245890'
p2747
S'caution_and_advice'
p2748
sS'540029032306180096'
p2749
S'not_related_or_irrelevant'
p2750
sS'540006868127449090'
p2751
S'other_useful_information'
p2752
sS'540009672036470784'
p2753
S'infrastructure_and_utilities_damage'
p2754
sS'540038978938757120'
p2755
S'donation_needs_or_offers_or_volunteering_services'
p2756
sS'540008366894895104'
p2757
S'donation_needs_or_offers_or_volunteering_services'
p2758
sS'540024168365170689'
p2759
S'other_useful_information'
p2760
sS'540006829263056896'
p2761
S'other_useful_information'
p2762
sS'540031529721036800'
p2763
S'caution_and_advice'
p2764
sS'540044186423005184'
p2765
S'donation_needs_or_offers_or_volunteering_services'
p2766
sS'540048172400132097'
p2767
S'sympathy_and_emotional_support'
p2768
sS'540039100313518080'
p2769
S'caution_and_advice'
p2770
sS'540023135106789376'
p2771
S'infrastructure_and_utilities_damage'
p2772
sS'540026657495449600'
p2773
S'other_useful_information'
p2774
sS'540027849726373890'
p2775
S'sympathy_and_emotional_support'
p2776
sS'540021461457440768'
p2777
S'donation_needs_or_offers_or_volunteering_services'
p2778
sS'540016370885206016'
p2779
S'caution_and_advice'
p2780
sS'540037535540314113'
p2781
S'other_useful_information'
p2782
sS'540027134945677312'
p2783
S'other_useful_information'
p2784
sS'540037143830097920'
p2785
S'caution_and_advice'
p2786
sS'540021373239054336'
p2787
S'other_useful_information'
p2788
sS'540004817322536960'
p2789
S'injured_or_dead_people'
p2790
sS'540037037970042882'
p2791
S'sympathy_and_emotional_support'
p2792
sS'540035520655806464'
p2793
S'other_useful_information'
p2794
sS'540024189172731904'
p2795
S'caution_and_advice'
p2796
sS'540046994832904192'
p2797
S'not_related_or_irrelevant'
p2798
sS'540013366199083010'
p2799
S'sympathy_and_emotional_support'
p2800
sS'540026802911969280'
p2801
S'sympathy_and_emotional_support'
p2802
sS'540027647036649472'
p2803
S'infrastructure_and_utilities_damage'
p2804
sS'540005142876000256'
p2805
S'not_related_or_irrelevant'
p2806
sS'540029500688314368'
p2807
S'missing_trapped_or_found_people'
p2808
sS'540044954408456193'
p2809
S'infrastructure_and_utilities_damage'
p2810
sS'540026773652533248'
p2811
S'other_useful_information'
p2812
sS'540042301016244225'
p2813
S'sympathy_and_emotional_support'
p2814
sS'540047603304390658'
p2815
S'other_useful_information'
p2816
sS'540021455019208705'
p2817
S'not_related_or_irrelevant'
p2818
sS'540038130930171904'
p2819
S'not_related_or_irrelevant'
p2820
sS'540008409592905728'
p2821
S'other_useful_information'
p2822
sS'540033882012143616'
p2823
S'displaced_people_and_evacuations'
p2824
sS'540026292326772737'
p2825
S'injured_or_dead_people'
p2826
sS'540041593198104576'
p2827
S'other_useful_information'
p2828
sS'540109618731429888'
p2829
S'donation_needs_or_offers_or_volunteering_services'
p2830
sS'540037447816445952'
p2831
S'other_useful_information'
p2832
sS'540018909588369408'
p2833
S'other_useful_information'
p2834
sS'540025028176130048'
p2835
S'other_useful_information'
p2836
sS'540007869614018560'
p2837
S'sympathy_and_emotional_support'
p2838
sS'540014887217274881'
p2839
S'caution_and_advice'
p2840
sS'540041722089074688'
p2841
S'other_useful_information'
p2842
sS'540018649533140993'
p2843
S'caution_and_advice'
p2844
sS'540005858877669376'
p2845
S'other_useful_information'
p2846
sS'540039252872925185'
p2847
S'other_useful_information'
p2848
sS'540027373907755008'
p2849
S'displaced_people_and_evacuations'
p2850
sS'540026316444016641'
p2851
S'displaced_people_and_evacuations'
p2852
sS'540019102543511553'
p2853
S'other_useful_information'
p2854
sS'540036292256751617'
p2855
S'other_useful_information'
p2856
sS'540019624901767168'
p2857
S'other_useful_information'
p2858
sS'540029732226478080'
p2859
S'other_useful_information'
p2860
sS'540015537510563840'
p2861
S'caution_and_advice'
p2862
sS'540036830112919552'
p2863
S'other_useful_information'
p2864
sS'540005106456879104'
p2865
S'other_useful_information'
p2866
sS'540004223786565632'
p2867
S'caution_and_advice'
p2868
sS'540018434801557505'
p2869
S'caution_and_advice'
p2870
sS'540035953813749760'
p2871
S'other_useful_information'
p2872
sS'540042307169300480'
p2873
S'sympathy_and_emotional_support'
p2874
sS'540025038930333696'
p2875
S'caution_and_advice'
p2876
sS'540016224315244544'
p2877
S'caution_and_advice'
p2878
sS'540022458913288192'
p2879
S'injured_or_dead_people'
p2880
sS'540037970409963520'
p2881
S'donation_needs_or_offers_or_volunteering_services'
p2882
sS'540013824120594432'
p2883
S'not_related_or_irrelevant'
p2884
sS'540015556812746752'
p2885
S'caution_and_advice'
p2886
sS'540024084667854848'
p2887
S'injured_or_dead_people'
p2888
sS'540035780584816640'
p2889
S'sympathy_and_emotional_support'
p2890
sS'540036993044865024'
p2891
S'other_useful_information'
p2892
sS'540027571966988288'
p2893
S'caution_and_advice'
p2894
sS'540037059088355328'
p2895
S'displaced_people_and_evacuations'
p2896
sS'540029770294386689'
p2897
S'caution_and_advice'
p2898
sS'540021794174824448'
p2899
S'not_related_or_irrelevant'
p2900
sS'540028826554597376'
p2901
S'caution_and_advice'
p2902
sS'540042768735670272'
p2903
S'other_useful_information'
p2904
sS'540005399227666432'
p2905
S'injured_or_dead_people'
p2906
sS'540014356537155584'
p2907
S'caution_and_advice'
p2908
sS'540029808575807489'
p2909
S'caution_and_advice'
p2910
sS'540016466645356544'
p2911
S'other_useful_information'
p2912
sS'540010717898747904'
p2913
S'caution_and_advice'
p2914
sS'540042800192950274'
p2915
S'caution_and_advice'
p2916
sS'540034253858160642'
p2917
S'not_related_or_irrelevant'
p2918
sS'540018591668531200'
p2919
S'other_useful_information'
p2920
sS'540031465678209024'
p2921
S'infrastructure_and_utilities_damage'
p2922
sS'540006997270093824'
p2923
S'other_useful_information'
p2924
sS'540024590894780417'
p2925
S'other_useful_information'
p2926
sS'540022384929943552'
p2927
S'other_useful_information'
p2928
sS'540007074336624640'
p2929
S'other_useful_information'
p2930
sS'540038312333811713'
p2931
S'not_related_or_irrelevant'
p2932
sS'540012008507068416'
p2933
S'donation_needs_or_offers_or_volunteering_services'
p2934
sS'540045994889445376'
p2935
S'other_useful_information'
p2936
sS'540035624435060738'
p2937
S'injured_or_dead_people'
p2938
sS'540033441215963136'
p2939
S'caution_and_advice'
p2940
sS'540016584673079296'
p2941
S'other_useful_information'
p2942
sS'540045706979856384'
p2943
S'sympathy_and_emotional_support'
p2944
sS'540040804345999360'
p2945
S'other_useful_information'
p2946
sS'540022929342230528'
p2947
S'displaced_people_and_evacuations'
p2948
sS'540031709698199553'
p2949
S'other_useful_information'
p2950
sS'540024749355593728'
p2951
S'injured_or_dead_people'
p2952
sS'540042479643668480'
p2953
S'sympathy_and_emotional_support'
p2954
sS'540009383426396160'
p2955
S'not_related_or_irrelevant'
p2956
sS'540012769752256513'
p2957
S'other_useful_information'
p2958
sS'540029112446746624'
p2959
S'sympathy_and_emotional_support'
p2960
sS'540035844313083905'
p2961
S'caution_and_advice'
p2962
sS'540026669440835585'
p2963
S'caution_and_advice'
p2964
sS'540004346339938304'
p2965
S'sympathy_and_emotional_support'
p2966
sS'540017399303397376'
p2967
S'not_related_or_irrelevant'
p2968
sS'540037204983021569'
p2969
S'other_useful_information'
p2970
sS'540043858328162304'
p2971
S'sympathy_and_emotional_support'
p2972
sS'540011323472375808'
p2973
S'other_useful_information'
p2974
sS'540024042837643264'
p2975
S'other_useful_information'
p2976
sS'540020754411421696'
p2977
S'caution_and_advice'
p2978
sS'540014888882405376'
p2979
S'other_useful_information'
p2980
sS'540021808448421888'
p2981
S'caution_and_advice'
p2982
sS'540012095442411521'
p2983
S'displaced_people_and_evacuations'
p2984
sS'540008605299113984'
p2985
S'not_related_or_irrelevant'
p2986
sS'540013510072475648'
p2987
S'other_useful_information'
p2988
sS'540018903687368704'
p2989
S'sympathy_and_emotional_support'
p2990
sS'540028134100180992'
p2991
S'other_useful_information'
p2992
sS'540039672324698112'
p2993
S'other_useful_information'
p2994
sS'540018752742387712'
p2995
S'other_useful_information'
p2996
sS'540035050285170688'
p2997
S'other_useful_information'
p2998
sS'540037604259790848'
p2999
S'sympathy_and_emotional_support'
p3000
sS'540022910413324288'
p3001
S'infrastructure_and_utilities_damage'
p3002
sS'540030897001467904'
p3003
S'not_related_or_irrelevant'
p3004
sS'540045881517826048'
p3005
S'caution_and_advice'
p3006
sS'540039459190738945'
p3007
S'caution_and_advice'
p3008
sS'540047009135075328'
p3009
S'not_related_or_irrelevant'
p3010
sS'540024857917140993'
p3011
S'not_related_or_irrelevant'
p3012
sS'540004504733622274'
p3013
S'other_useful_information'
p3014
sS'540027948573532160'
p3015
S'other_useful_information'
p3016
sS'540036988632440832'
p3017
S'sympathy_and_emotional_support'
p3018
sS'540044173076754432'
p3019
S'displaced_people_and_evacuations'
p3020
sS'540024351358066689'
p3021
S'donation_needs_or_offers_or_volunteering_services'
p3022
sS'540016784837865472'
p3023
S'caution_and_advice'
p3024
sS'540042696078143489'
p3025
S'sympathy_and_emotional_support'
p3026
sS'540032528506056704'
p3027
S'other_useful_information'
p3028
sS'540034417167970305'
p3029
S'other_useful_information'
p3030
sS'540040694836895744'
p3031
S'other_useful_information'
p3032
sS'540023158640615424'
p3033
S'other_useful_information'
p3034
sS'540007663564640257'
p3035
S'infrastructure_and_utilities_damage'
p3036
sS'540026633730547712'
p3037
S'other_useful_information'
p3038
sS'540047028986728448'
p3039
S'other_useful_information'
p3040
sS'540032229154373632'
p3041
S'sympathy_and_emotional_support'
p3042
sS'540033072335319040'
p3043
S'donation_needs_or_offers_or_volunteering_services'
p3044
sS'540036604065116160'
p3045
S'other_useful_information'
p3046
sS'540036888380182528'
p3047
S'injured_or_dead_people'
p3048
sS'540020186976624641'
p3049
S'other_useful_information'
p3050
sS'540038662067879937'
p3051
S'not_related_or_irrelevant'
p3052
sS'540042918157746176'
p3053
S'other_useful_information'
p3054
sS'540026102752616448'
p3055
S'other_useful_information'
p3056
sS'540035451642339328'
p3057
S'sympathy_and_emotional_support'
p3058
sS'540027706952261633'
p3059
S'sympathy_and_emotional_support'
p3060
sS'540024805617983488'
p3061
S'caution_and_advice'
p3062
sS'540029531013140480'
p3063
S'other_useful_information'
p3064
sS'540031514746945536'
p3065
S'not_related_or_irrelevant'
p3066
sS'540009052307070977'
p3067
S'other_useful_information'
p3068
sS'540019122021486593'
p3069
S'infrastructure_and_utilities_damage'
p3070
sS'540006583250341888'
p3071
S'caution_and_advice'
p3072
sS'540044538337693696'
p3073
S'other_useful_information'
p3074
sS'540026681105195008'
p3075
S'not_related_or_irrelevant'
p3076
sS'540066716793856000'
p3077
S'displaced_people_and_evacuations'
p3078
sS'540018874926637057'
p3079
S'other_useful_information'
p3080
sS'540025919780306944'
p3081
S'other_useful_information'
p3082
sS'540014887766740993'
p3083
S'sympathy_and_emotional_support'
p3084
sS'540027063915134976'
p3085
S'injured_or_dead_people'
p3086
sS'540011773315645440'
p3087
S'other_useful_information'
p3088
sS'540037264957399040'
p3089
S'sympathy_and_emotional_support'
p3090
sS'540042019201351680'
p3091
S'caution_and_advice'
p3092
sS'540029298241830912'
p3093
S'other_useful_information'
p3094
sS'540027202356531200'
p3095
S'not_related_or_irrelevant'
p3096
sS'540028376602247168'
p3097
S'other_useful_information'
p3098
sS'540027949966053376'
p3099
S'sympathy_and_emotional_support'
p3100
sS'540022279548436481'
p3101
S'donation_needs_or_offers_or_volunteering_services'
p3102
sS'540044267284996096'
p3103
S'not_related_or_irrelevant'
p3104
sS'540016765510504449'
p3105
S'caution_and_advice'
p3106
sS'540040688809693184'
p3107
S'other_useful_information'
p3108
sS'540043597601460224'
p3109
S'sympathy_and_emotional_support'
p3110
sS'540013815132209152'
p3111
S'displaced_people_and_evacuations'
p3112
sS'540037516611440640'
p3113
S'other_useful_information'
p3114
sS'540010009762213888'
p3115
S'caution_and_advice'
p3116
sS'540016629778612225'
p3117
S'sympathy_and_emotional_support'
p3118
sS'540008876280541184'
p3119
S'caution_and_advice'
p3120
sS'540027123876896768'
p3121
S'caution_and_advice'
p3122
sS'540027174049161216'
p3123
S'other_useful_information'
p3124
sS'540014547109548033'
p3125
S'sympathy_and_emotional_support'
p3126
sS'540023187397173248'
p3127
S'not_related_or_irrelevant'
p3128
sS'540025507962568704'
p3129
S'sympathy_and_emotional_support'
p3130
sS'540028761203163136'
p3131
S'donation_needs_or_offers_or_volunteering_services'
p3132
sS'540040185728102400'
p3133
S'not_related_or_irrelevant'
p3134
sS'540122898480902145'
p3135
S'displaced_people_and_evacuations'
p3136
sS'540031003754913792'
p3137
S'infrastructure_and_utilities_damage'
p3138
sS'540031790455742464'
p3139
S'other_useful_information'
p3140
sS'540033703641378816'
p3141
S'other_useful_information'
p3142
sS'540028120493871104'
p3143
S'other_useful_information'
p3144
sS'540025453549854720'
p3145
S'caution_and_advice'
p3146
sS'540024509449773056'
p3147
S'other_useful_information'
p3148
sS'540029224510169088'
p3149
S'displaced_people_and_evacuations'
p3150
sS'540032509686587394'
p3151
S'donation_needs_or_offers_or_volunteering_services'
p3152
sS'540029800958545920'
p3153
S'other_useful_information'
p3154
sS'540023592168062976'
p3155
S'sympathy_and_emotional_support'
p3156
sS'540021313356591104'
p3157
S'other_useful_information'
p3158
sS'540029074463150080'
p3159
S'caution_and_advice'
p3160
sS'540034066821574656'
p3161
S'displaced_people_and_evacuations'
p3162
sS'540022504601817088'
p3163
S'caution_and_advice'
p3164
sS'540023681380909056'
p3165
S'displaced_people_and_evacuations'
p3166
sS'540028227851284480'
p3167
S'sympathy_and_emotional_support'
p3168
sS'540005633072705536'
p3169
S'other_useful_information'
p3170
sS'540041284418027520'
p3171
S'other_useful_information'
p3172
sS'540006658408054784'
p3173
S'other_useful_information'
p3174
sS'540032487565443072'
p3175
S'other_useful_information'
p3176
sS'540028224437092352'
p3177
S'caution_and_advice'
p3178
sS'540038142959419392'
p3179
S'displaced_people_and_evacuations'
p3180
sS'540027300478058496'
p3181
S'other_useful_information'
p3182
sS'540010405008269312'
p3183
S'not_related_or_irrelevant'
p3184
sS'540020715865374720'
p3185
S'donation_needs_or_offers_or_volunteering_services'
p3186
sS'540023849094348800'
p3187
S'not_related_or_irrelevant'
p3188
sS'540023142128058368'
p3189
S'not_related_or_irrelevant'
p3190
sS'540033762348630017'
p3191
S'other_useful_information'
p3192
sS'540026547793842177'
p3193
S'other_useful_information'
p3194
sS'540042687143878658'
p3195
S'caution_and_advice'
p3196
sS'540020904453877762'
p3197
S'other_useful_information'
p3198
sS'540006246766878720'
p3199
S'other_useful_information'
p3200
sS'540006295630131201'
p3201
S'other_useful_information'
p3202
sS'540009837526929408'
p3203
S'caution_and_advice'
p3204
sS'540022540509265920'
p3205
S'caution_and_advice'
p3206
sS'540024443574026240'
p3207
S'not_related_or_irrelevant'
p3208
sS'540033983333945344'
p3209
S'caution_and_advice'
p3210
sS'540028887141711872'
p3211
S'not_related_or_irrelevant'
p3212
sS'540034911243993088'
p3213
S'not_related_or_irrelevant'
p3214
sS'540047204946149376'
p3215
S'other_useful_information'
p3216
sS'540030447955091456'
p3217
S'injured_or_dead_people'
p3218
sS'540041682247753729'
p3219
S'caution_and_advice'
p3220
sS'540029348154048512'
p3221
S'caution_and_advice'
p3222
sS'540023809294614530'
p3223
S'not_related_or_irrelevant'
p3224
sS'540025596567240704'
p3225
S'other_useful_information'
p3226
sS'540036754817155072'
p3227
S'caution_and_advice'
p3228
sS'540031630295826432'
p3229
S'infrastructure_and_utilities_damage'
p3230
sS'540047614033420290'
p3231
S'other_useful_information'
p3232
sS'540029300078964736'
p3233
S'caution_and_advice'
p3234
sS'540031573454630912'
p3235
S'infrastructure_and_utilities_damage'
p3236
sS'540012842783485952'
p3237
S'not_related_or_irrelevant'
p3238
sS'540011432796905473'
p3239
S'other_useful_information'
p3240
sS'540035750603919360'
p3241
S'other_useful_information'
p3242
sS'540034869670072320'
p3243
S'displaced_people_and_evacuations'
p3244
sS'540005067311439872'
p3245
S'other_useful_information'
p3246
sS'540030668189597696'
p3247
S'displaced_people_and_evacuations'
p3248
sS'540035547528310785'
p3249
S'other_useful_information'
p3250
sS'540019189100974080'
p3251
S'donation_needs_or_offers_or_volunteering_services'
p3252
sS'540030298126577664'
p3253
S'other_useful_information'
p3254
sS'540005182294073344'
p3255
S'other_useful_information'
p3256
sS'540014886093197312'
p3257
S'not_related_or_irrelevant'
p3258
sS'540026571906510848'
p3259
S'not_related_or_irrelevant'
p3260
sS'540027853027282945'
p3261
S'not_related_or_irrelevant'
p3262
sS'540006293512024064'
p3263
S'other_useful_information'
p3264
sS'540040334374604800'
p3265
S'caution_and_advice'
p3266
sS'540028512950681600'
p3267
S'caution_and_advice'
p3268
sS'540039455520731136'
p3269
S'donation_needs_or_offers_or_volunteering_services'
p3270
sS'540004464841986048'
p3271
S'not_related_or_irrelevant'
p3272
sS'540008072630915073'
p3273
S'other_useful_information'
p3274
sS'540009332016820224'
p3275
S'not_related_or_irrelevant'
p3276
sS'540012042925527040'
p3277
S'other_useful_information'
p3278
sS'540011937996632064'
p3279
S'other_useful_information'
p3280
sS'540039135126253569'
p3281
S'caution_and_advice'
p3282
sS'540017186601848832'
p3283
S'other_useful_information'
p3284
sS'540024123473158144'
p3285
S'sympathy_and_emotional_support'
p3286
sS'540025343860412416'
p3287
S'other_useful_information'
p3288
sS'540029942730203136'
p3289
S'missing_trapped_or_found_people'
p3290
sS'540009019453087744'
p3291
S'not_related_or_irrelevant'
p3292
sS'540012338296803328'
p3293
S'other_useful_information'
p3294
sS'540029673283932160'
p3295
S'not_related_or_irrelevant'
p3296
sS'540047444294135808'
p3297
S'displaced_people_and_evacuations'
p3298
sS'540042674045067265'
p3299
S'not_related_or_irrelevant'
p3300
sS'540024031853166592'
p3301
S'displaced_people_and_evacuations'
p3302
sS'540017478160908288'
p3303
S'infrastructure_and_utilities_damage'
p3304
sS'540035873857732611'
p3305
S'sympathy_and_emotional_support'
p3306
sS'540009091205042176'
p3307
S'sympathy_and_emotional_support'
p3308
sS'540029016384602112'
p3309
S'caution_and_advice'
p3310
sS'540014171480264705'
p3311
S'displaced_people_and_evacuations'
p3312
sS'540037747340103680'
p3313
S'other_useful_information'
p3314
sS'540018172275879936'
p3315
S'caution_and_advice'
p3316
sS'540017302884728832'
p3317
S'other_useful_information'
p3318
sS'540016726495465473'
p3319
S'other_useful_information'
p3320
sS'540037318988406784'
p3321
S'other_useful_information'
p3322
sS'540014779440431104'
p3323
S'caution_and_advice'
p3324
sS'540021646560464896'
p3325
S'caution_and_advice'
p3326
sS'540037101878669312'
p3327
S'caution_and_advice'
p3328
sS'540027910011113472'
p3329
S'not_related_or_irrelevant'
p3330
sS'540033166028046336'
p3331
S'other_useful_information'
p3332
sS'540029888460111872'
p3333
S'other_useful_information'
p3334
sS'540018951665635328'
p3335
S'displaced_people_and_evacuations'
p3336
sS'540040932079308800'
p3337
S'other_useful_information'
p3338
sS'540009826378461184'
p3339
S'sympathy_and_emotional_support'
p3340
sS'540026552663015424'
p3341
S'other_useful_information'
p3342
sS'540040250144206848'
p3343
S'displaced_people_and_evacuations'
p3344
sS'540032563322949632'
p3345
S'other_useful_information'
p3346
sS'540006453709250561'
p3347
S'not_related_or_irrelevant'
p3348
sS'540028512795504640'
p3349
S'other_useful_information'
p3350
sS'540043041101185025'
p3351
S'other_useful_information'
p3352
sS'540047865062514688'
p3353
S'sympathy_and_emotional_support'
p3354
sS'540035845969809408'
p3355
S'donation_needs_or_offers_or_volunteering_services'
p3356
sS'540040993957879809'
p3357
S'other_useful_information'
p3358
sS'540018645620260864'
p3359
S'not_related_or_irrelevant'
p3360
sS'540021900492025857'
p3361
S'caution_and_advice'
p3362
sS'540020895415160834'
p3363
S'caution_and_advice'
p3364
sS'540023728805912576'
p3365
S'donation_needs_or_offers_or_volunteering_services'
p3366
sS'540029225055436800'
p3367
S'other_useful_information'
p3368
sS'540012222261374976'
p3369
S'caution_and_advice'
p3370
sS'540009034385195008'
p3371
S'sympathy_and_emotional_support'
p3372
sS'540042723160383489'
p3373
S'other_useful_information'
p3374
sS'540033829725941760'
p3375
S'not_related_or_irrelevant'
p3376
sS'540025068118880256'
p3377
S'other_useful_information'
p3378
sS'540013576287580160'
p3379
S'caution_and_advice'
p3380
sS'540039369805926400'
p3381
S'other_useful_information'
p3382
sS'540007138093846529'
p3383
S'other_useful_information'
p3384
sS'540006933919711232'
p3385
S'other_useful_information'
p3386
sS'540014431455813632'
p3387
S'sympathy_and_emotional_support'
p3388
sS'540014845576232960'
p3389
S'other_useful_information'
p3390
sS'540027025289801728'
p3391
S'other_useful_information'
p3392
sS'540010227567841280'
p3393
S'caution_and_advice'
p3394
sS'540008803341590528'
p3395
S'other_useful_information'
p3396
sS'540047040844005376'
p3397
S'other_useful_information'
p3398
sS'540040350325559296'
p3399
S'sympathy_and_emotional_support'
p3400
sS'540026772926918657'
p3401
S'sympathy_and_emotional_support'
p3402
sS'540005564948836352'
p3403
S'caution_and_advice'
p3404
sS'540004231344693248'
p3405
S'injured_or_dead_people'
p3406
sS'540010624776806400'
p3407
S'other_useful_information'
p3408
sS'540024812823797762'
p3409
S'sympathy_and_emotional_support'
p3410
sS'540029552223735808'
p3411
S'not_related_or_irrelevant'
p3412
sS'540018512467468288'
p3413
S'other_useful_information'
p3414
sS'540029531998789633'
p3415
S'caution_and_advice'
p3416
sS'540024202963984384'
p3417
S'caution_and_advice'
p3418
sS'540022405704323073'
p3419
S'other_useful_information'
p3420
sS'540022630670024704'
p3421
S'other_useful_information'
p3422
sS'540009868623503360'
p3423
S'other_useful_information'
p3424
sS'540005290088103936'
p3425
S'caution_and_advice'
p3426
sS'540043195451994112'
p3427
S'donation_needs_or_offers_or_volunteering_services'
p3428
sS'540047757331808256'
p3429
S'other_useful_information'
p3430
sS'540027910799622144'
p3431
S'other_useful_information'
p3432
sS'540023988932444160'
p3433
S'not_related_or_irrelevant'
p3434
sS'540033042408947712'
p3435
S'caution_and_advice'
p3436
sS'540014237146292226'
p3437
S'other_useful_information'
p3438
sS'540028036003790848'
p3439
S'sympathy_and_emotional_support'
p3440
sS'540029986661347328'
p3441
S'other_useful_information'
p3442
sS'540008699578691584'
p3443
S'other_useful_information'
p3444
sS'540003870131232769'
p3445
S'caution_and_advice'
p3446
sS'540019740480389120'
p3447
S'sympathy_and_emotional_support'
p3448
sS'540006240638619648'
p3449
S'infrastructure_and_utilities_damage'
p3450
sS'540016782073798656'
p3451
S'other_useful_information'
p3452
sS'540017056691658753'
p3453
S'other_useful_information'
p3454
sS'540032269075746816'
p3455
S'sympathy_and_emotional_support'
p3456
sS'540015625628680192'
p3457
S'displaced_people_and_evacuations'
p3458
sS'540023904522096640'
p3459
S'other_useful_information'
p3460
sS'540022879996608512'
p3461
S'other_useful_information'
p3462
sS'540027394086535169'
p3463
S'caution_and_advice'
p3464
sS'540040912181932032'
p3465
S'sympathy_and_emotional_support'
p3466
sS'540044867909332992'
p3467
S'other_useful_information'
p3468
sS'540027858614104065'
p3469
S'other_useful_information'
p3470
sS'540004569430757376'
p3471
S'caution_and_advice'
p3472
sS'540004058732306432'
p3473
S'caution_and_advice'
p3474
sS'540018383224569856'
p3475
S'sympathy_and_emotional_support'
p3476
sS'540021284629794816'
p3477
S'caution_and_advice'
p3478
sS'540044341306068993'
p3479
S'other_useful_information'
p3480
sS'540009750067683328'
p3481
S'other_useful_information'
p3482
sS'540034732419870720'
p3483
S'other_useful_information'
p3484
sS'540024199620722688'
p3485
S'other_useful_information'
p3486
sS'540025908250161152'
p3487
S'caution_and_advice'
p3488
sS'540020727420694528'
p3489
S'donation_needs_or_offers_or_volunteering_services'
p3490
sS'540043428050903040'
p3491
S'donation_needs_or_offers_or_volunteering_services'
p3492
sS'540010082889891840'
p3493
S'infrastructure_and_utilities_damage'
p3494
sS'540040213159223296'
p3495
S'other_useful_information'
p3496
sS'540022770491351041'
p3497
S'caution_and_advice'
p3498
sS'540027393663324161'
p3499
S'other_useful_information'
p3500
sS'540040146943766528'
p3501
S'other_useful_information'
p3502
sS'540034034630656000'
p3503
S'sympathy_and_emotional_support'
p3504
sS'540013300411428864'
p3505
S'not_related_or_irrelevant'
p3506
sS'540029997000314880'
p3507
S'sympathy_and_emotional_support'
p3508
sS'540023178643263489'
p3509
S'donation_needs_or_offers_or_volunteering_services'
p3510
sS'540041340138954752'
p3511
S'caution_and_advice'
p3512
sS'540010455607947264'
p3513
S'donation_needs_or_offers_or_volunteering_services'
p3514
sS'540005223339528192'
p3515
S'not_related_or_irrelevant'
p3516
sS'540047175799955456'
p3517
S'caution_and_advice'
p3518
sS'540035143453274112'
p3519
S'sympathy_and_emotional_support'
p3520
sS'540046739009314816'
p3521
S'donation_needs_or_offers_or_volunteering_services'
p3522
sS'540037267193344002'
p3523
S'other_useful_information'
p3524
sS'540028880007225344'
p3525
S'caution_and_advice'
p3526
sS'540006923408384000'
p3527
S'caution_and_advice'
p3528
sS'540041274149986304'
p3529
S'sympathy_and_emotional_support'
p3530
sS'540032702108299264'
p3531
S'other_useful_information'
p3532
sS'540027349341712384'
p3533
S'not_related_or_irrelevant'
p3534
sS'540008457231802369'
p3535
S'other_useful_information'
p3536
sS'540027852486238208'
p3537
S'displaced_people_and_evacuations'
p3538
sS'540018083897692160'
p3539
S'other_useful_information'
p3540
sS'540033713740840961'
p3541
S'donation_needs_or_offers_or_volunteering_services'
p3542
sS'540005329137053696'
p3543
S'caution_and_advice'
p3544
sS'540034356136263682'
p3545
S'displaced_people_and_evacuations'
p3546
sS'540014941927780352'
p3547
S'caution_and_advice'
p3548
sS'540015430694219777'
p3549
S'other_useful_information'
p3550
sS'540043677091893248'
p3551
S'caution_and_advice'
p3552
sS'540031208516620288'
p3553
S'other_useful_information'
p3554
sS'540010783993004033'
p3555
S'injured_or_dead_people'
p3556
sS'540018583083159552'
p3557
S'sympathy_and_emotional_support'
p3558
sS'540037263611023360'
p3559
S'other_useful_information'
p3560
sS'540007202057383937'
p3561
S'infrastructure_and_utilities_damage'
p3562
sS'540047975485943808'
p3563
S'not_related_or_irrelevant'
p3564
sS'540022781849513985'
p3565
S'displaced_people_and_evacuations'
p3566
sS'540022941816090624'
p3567
S'other_useful_information'
p3568
sS'540023952366923777'
p3569
S'infrastructure_and_utilities_damage'
p3570
sS'540024953450414083'
p3571
S'sympathy_and_emotional_support'
p3572
sS'540024742590156800'
p3573
S'infrastructure_and_utilities_damage'
p3574
sS'540025504200278016'
p3575
S'infrastructure_and_utilities_damage'
p3576
sS'540037637625483264'
p3577
S'not_related_or_irrelevant'
p3578
sS'540039561649594368'
p3579
S'other_useful_information'
p3580
sS'540007700185513985'
p3581
S'other_useful_information'
p3582
sS'540035423355953153'
p3583
S'other_useful_information'
p3584
sS'540027028611661824'
p3585
S'caution_and_advice'
p3586
sS'540039425573396481'
p3587
S'sympathy_and_emotional_support'
p3588
sS'540040176374804480'
p3589
S'displaced_people_and_evacuations'
p3590
sS'540033139834253313'
p3591
S'other_useful_information'
p3592
sS'540007539878813696'
p3593
S'other_useful_information'
p3594
sS'540037306447437825'
p3595
S'not_related_or_irrelevant'
p3596
sS'540012594648457216'
p3597
S'sympathy_and_emotional_support'
p3598
sS'540030901229719552'
p3599
S'caution_and_advice'
p3600
sS'540027666879901697'
p3601
S'other_useful_information'
p3602
sS'540026337277530113'
p3603
S'caution_and_advice'
p3604
sS'540007969505558528'
p3605
S'infrastructure_and_utilities_damage'
p3606
sS'540026205622120448'
p3607
S'other_useful_information'
p3608
sS'540033982348288000'
p3609
S'other_useful_information'
p3610
sS'540027717433843712'
p3611
S'sympathy_and_emotional_support'
p3612
sS'540039647854727168'
p3613
S'caution_and_advice'
p3614
sS'540021544375025664'
p3615
S'other_useful_information'
p3616
sS'540030087978967040'
p3617
S'injured_or_dead_people'
p3618
sS'540044781418577920'
p3619
S'caution_and_advice'
p3620
sS'540026452268167168'
p3621
S'not_related_or_irrelevant'
p3622
sS'540010931162329088'
p3623
S'not_related_or_irrelevant'
p3624
sS'540038107320422400'
p3625
S'other_useful_information'
p3626
sS'540048208487919616'
p3627
S'other_useful_information'
p3628
sS'540015940725784576'
p3629
S'caution_and_advice'
p3630
sS'540024154846527488'
p3631
S'other_useful_information'
p3632
sS'540012747082059776'
p3633
S'not_related_or_irrelevant'
p3634
sS'540037425741840384'
p3635
S'caution_and_advice'
p3636
sS'540032120643530753'
p3637
S'sympathy_and_emotional_support'
p3638
sS'540017001549148160'
p3639
S'donation_needs_or_offers_or_volunteering_services'
p3640
sS'540038946030231552'
p3641
S'sympathy_and_emotional_support'
p3642
sS'540047735651434496'
p3643
S'other_useful_information'
p3644
sS'540046690770636803'
p3645
S'caution_and_advice'
p3646
sS'540037119087890432'
p3647
S'other_useful_information'
p3648
sS'540027419055251457'
p3649
S'not_related_or_irrelevant'
p3650
sS'540003796986773504'
p3651
S'not_related_or_irrelevant'
p3652
sS'540006139313016832'
p3653
S'sympathy_and_emotional_support'
p3654
sS'540028598862635008'
p3655
S'sympathy_and_emotional_support'
p3656
sS'540017519432433664'
p3657
S'caution_and_advice'
p3658
sS'540022407109431297'
p3659
S'sympathy_and_emotional_support'
p3660
sS'540026652214820865'
p3661
S'other_useful_information'
p3662
sS'540035776604422145'
p3663
S'other_useful_information'
p3664
sS'540019004593553409'
p3665
S'not_related_or_irrelevant'
p3666
sS'540039479772205056'
p3667
S'other_useful_information'
p3668
sS'540043209519280129'
p3669
S'other_useful_information'
p3670
sS'540027153266384896'
p3671
S'caution_and_advice'
p3672
sS'540031892267868161'
p3673
S'sympathy_and_emotional_support'
p3674
sS'540012406777585664'
p3675
S'other_useful_information'
p3676
sS'540037676972249088'
p3677
S'displaced_people_and_evacuations'
p3678
sS'540014152526229504'
p3679
S'not_related_or_irrelevant'
p3680
sS'540047914995703808'
p3681
S'displaced_people_and_evacuations'
p3682
sS'540029956957683712'
p3683
S'caution_and_advice'
p3684
sS'540043798890295296'
p3685
S'other_useful_information'
p3686
sS'540025539562442752'
p3687
S'caution_and_advice'
p3688
sS'540033993429622784'
p3689
S'other_useful_information'
p3690
sS'540011576086908928'
p3691
S'not_related_or_irrelevant'
p3692
sS'540025973161209858'
p3693
S'not_related_or_irrelevant'
p3694
sS'540013882085883904'
p3695
S'other_useful_information'
p3696
sS'540035711785631745'
p3697
S'other_useful_information'
p3698
sS'540035565899350016'
p3699
S'caution_and_advice'
p3700
sS'540026721450225664'
p3701
S'caution_and_advice'
p3702
sS'540035665442795520'
p3703
S'other_useful_information'
p3704
sS'540026041981358080'
p3705
S'not_related_or_irrelevant'
p3706
sS'540010567017066497'
p3707
S'other_useful_information'
p3708
sS'540028455702634496'
p3709
S'sympathy_and_emotional_support'
p3710
sS'540008671116525568'
p3711
S'other_useful_information'
p3712
sS'540023356896993280'
p3713
S'not_related_or_irrelevant'
p3714
sS'540042259106779136'
p3715
S'not_related_or_irrelevant'
p3716
sS'540038571587952640'
p3717
S'other_useful_information'
p3718
sS'540035335267581952'
p3719
S'other_useful_information'
p3720
sS'540025397404905472'
p3721
S'infrastructure_and_utilities_damage'
p3722
sS'540031953219510272'
p3723
S'other_useful_information'
p3724
sS'540039595975385088'
p3725
S'other_useful_information'
p3726
sS'540031576109633536'
p3727
S'sympathy_and_emotional_support'
p3728
sS'540033997435191297'
p3729
S'infrastructure_and_utilities_damage'
p3730
sS'540026719399186432'
p3731
S'other_useful_information'
p3732
sS'540028580260876289'
p3733
S'other_useful_information'
p3734
sS'540023176239923200'
p3735
S'sympathy_and_emotional_support'
p3736
sS'540031265844363264'
p3737
S'other_useful_information'
p3738
sS'540024401693904896'
p3739
S'sympathy_and_emotional_support'
p3740
sS'540027905351237632'
p3741
S'other_useful_information'
p3742
sS'540023777875087361'
p3743
S'other_useful_information'
p3744
sS'540121225314324480'
p3745
S'caution_and_advice'
p3746
sS'540029657257480192'
p3747
S'not_related_or_irrelevant'
p3748
sS'540034114460479488'
p3749
S'caution_and_advice'
p3750
sS'540026240971714561'
p3751
S'caution_and_advice'
p3752
sS'540020100472909824'
p3753
S'other_useful_information'
p3754
sS'540041874493296640'
p3755
S'sympathy_and_emotional_support'
p3756
sS'540019190950686720'
p3757
S'sympathy_and_emotional_support'
p3758
sS'540045061409763328'
p3759
S'not_related_or_irrelevant'
p3760
sS'540016699374723072'
p3761
S'sympathy_and_emotional_support'
p3762
sS'540040903604191234'
p3763
S'not_related_or_irrelevant'
p3764
sS'540020546214174721'
p3765
S'infrastructure_and_utilities_damage'
p3766
sS'540018974889496577'
p3767
S'other_useful_information'
p3768
sS'540039788598792193'
p3769
S'other_useful_information'
p3770
sS'540009167604305921'
p3771
S'caution_and_advice'
p3772
sS'540027732218765312'
p3773
S'caution_and_advice'
p3774
sS'540044859415871488'
p3775
S'sympathy_and_emotional_support'
p3776
sS'540021103486595073'
p3777
S'injured_or_dead_people'
p3778
sS'540006896397086720'
p3779
S'other_useful_information'
p3780
sS'540043202137309185'
p3781
S'donation_needs_or_offers_or_volunteering_services'
p3782
sS'540019394504441856'
p3783
S'not_related_or_irrelevant'
p3784
sS'540030273044217857'
p3785
S'other_useful_information'
p3786
sS'540035756254048257'
p3787
S'sympathy_and_emotional_support'
p3788
sS'540027775584043008'
p3789
S'displaced_people_and_evacuations'
p3790
sS'540009523000250369'
p3791
S'sympathy_and_emotional_support'
p3792
sS'540027627181199360'
p3793
S'other_useful_information'
p3794
sS'540030935765225472'
p3795
S'other_useful_information'
p3796
sS'540024522225639425'
p3797
S'other_useful_information'
p3798
sS'540033082644910080'
p3799
S'other_useful_information'
p3800
sS'540009752525549568'
p3801
S'caution_and_advice'
p3802
sS'540041551263830016'
p3803
S'other_useful_information'
p3804
sS'540026906700029952'
p3805
S'displaced_people_and_evacuations'
p3806
sS'540020307327582208'
p3807
S'sympathy_and_emotional_support'
p3808
sS'540007502578872320'
p3809
S'not_related_or_irrelevant'
p3810
sS'540030323208097792'
p3811
S'infrastructure_and_utilities_damage'
p3812
sS'540012428826648577'
p3813
S'other_useful_information'
p3814
sS'540043580593934336'
p3815
S'donation_needs_or_offers_or_volunteering_services'
p3816
sS'540035486882865152'
p3817
S'other_useful_information'
p3818
sS'540042183424737280'
p3819
S'other_useful_information'
p3820
sS'540018549126098944'
p3821
S'donation_needs_or_offers_or_volunteering_services'
p3822
sS'540034579772366848'
p3823
S'caution_and_advice'
p3824
sS'540013078666952705'
p3825
S'caution_and_advice'
p3826
sS'540027218320044032'
p3827
S'sympathy_and_emotional_support'
p3828
sS'540042877158440960'
p3829
S'displaced_people_and_evacuations'
p3830
sS'540037423682441216'
p3831
S'caution_and_advice'
p3832
sS'540032183554293761'
p3833
S'donation_needs_or_offers_or_volunteering_services'
p3834
sS'540030524618584064'
p3835
S'other_useful_information'
p3836
sS'540037093838180352'
p3837
S'other_useful_information'
p3838
sS'540027780809768960'
p3839
S'other_useful_information'
p3840
sS'540024779550384128'
p3841
S'other_useful_information'
p3842
sS'540012626684571649'
p3843
S'caution_and_advice'
p3844
sS'540022641168355328'
p3845
S'donation_needs_or_offers_or_volunteering_services'
p3846
sS'540010157938192384'
p3847
S'caution_and_advice'
p3848
sS'540040125380431873'
p3849
S'other_useful_information'
p3850
sS'540019225591439361'
p3851
S'sympathy_and_emotional_support'
p3852
sS'540027137776832512'
p3853
S'other_useful_information'
p3854
sS'540009295245762560'
p3855
S'other_useful_information'
p3856
sS'540028841700245504'
p3857
S'not_related_or_irrelevant'
p3858
sS'540032833138331648'
p3859
S'sympathy_and_emotional_support'
p3860
sS'540029148018651136'
p3861
S'other_useful_information'
p3862
sS'540026542013706240'
p3863
S'not_related_or_irrelevant'
p3864
sS'540027619836559361'
p3865
S'caution_and_advice'
p3866
sS'540027088032370688'
p3867
S'other_useful_information'
p3868
sS'540043930029420544'
p3869
S'displaced_people_and_evacuations'
p3870
sS'540029394954117121'
p3871
S'not_related_or_irrelevant'
p3872
sS'540047427294994433'
p3873
S'other_useful_information'
p3874
sS'540043755168862208'
p3875
S'caution_and_advice'
p3876
sS'540021625639284737'
p3877
S'caution_and_advice'
p3878
sS'540020676112179202'
p3879
S'other_useful_information'
p3880
sS'540006863991865345'
p3881
S'other_useful_information'
p3882
sS'540037982112059392'
p3883
S'not_related_or_irrelevant'
p3884
sS'540037434113667074'
p3885
S'donation_needs_or_offers_or_volunteering_services'
p3886
sS'540032817359368192'
p3887
S'injured_or_dead_people'
p3888
sS'540036886249472001'
p3889
S'caution_and_advice'
p3890
sS'540027898678091777'
p3891
S'other_useful_information'
p3892
sS'540038213474086913'
p3893
S'sympathy_and_emotional_support'
p3894
sS'540009224231612416'
p3895
S'other_useful_information'
p3896
sS'540037745721081857'
p3897
S'not_related_or_irrelevant'
p3898
sS'540023923719434240'
p3899
S'donation_needs_or_offers_or_volunteering_services'
p3900
sS'540024727167725568'
p3901
S'not_related_or_irrelevant'
p3902
sS'540042190911594498'
p3903
S'other_useful_information'
p3904
sS'540022619177644032'
p3905
S'caution_and_advice'
p3906
sS'540028949003137024'
p3907
S'other_useful_information'
p3908
sS'540034043668996096'
p3909
S'caution_and_advice'
p3910
sS'540044902151647232'
p3911
S'not_related_or_irrelevant'
p3912
sS'540018764255752192'
p3913
S'other_useful_information'
p3914
sS'540026194201034752'
p3915
S'displaced_people_and_evacuations'
p3916
sS'540042494709624832'
p3917
S'other_useful_information'
p3918
sS'540035195857272833'
p3919
S'other_useful_information'
p3920
sS'540041253417918464'
p3921
S'injured_or_dead_people'
p3922
sS'540013082148229121'
p3923
S'other_useful_information'
p3924
sS'540043945300860928'
p3925
S'other_useful_information'
p3926
sS'540037395610341376'
p3927
S'other_useful_information'
p3928
sS'540034237169410048'
p3929
S'other_useful_information'
p3930
sS'540011866345332736'
p3931
S'sympathy_and_emotional_support'
p3932
sS'540028147983712256'
p3933
S'other_useful_information'
p3934
sS'540036274946449409'
p3935
S'sympathy_and_emotional_support'
p3936
sS'540020629202690049'
p3937
S'caution_and_advice'
p3938
sS'540042816219406336'
p3939
S'infrastructure_and_utilities_damage'
p3940
sS'540030672723648512'
p3941
S'other_useful_information'
p3942
sS'540011522148147200'
p3943
S'other_useful_information'
p3944
sS'540011728914771968'
p3945
S'not_related_or_irrelevant'
p3946
sS'540012371628933120'
p3947
S'other_useful_information'
p3948
sS'540033783093665792'
p3949
S'caution_and_advice'
p3950
sS'540037557019348992'
p3951
S'other_useful_information'
p3952
sS'540026359183990784'
p3953
S'infrastructure_and_utilities_damage'
p3954
sS'540015463841812481'
p3955
S'other_useful_information'
p3956
sS'540026669642571777'
p3957
S'displaced_people_and_evacuations'
p3958
sS'540013818147926016'
p3959
S'other_useful_information'
p3960
sS'540020788678500352'
p3961
S'other_useful_information'
p3962
sS'540036482183217153'
p3963
S'infrastructure_and_utilities_damage'
p3964
sS'540024535223775234'
p3965
S'other_useful_information'
p3966
sS'540046980039573505'
p3967
S'infrastructure_and_utilities_damage'
p3968
sS'540029337362120704'
p3969
S'other_useful_information'
p3970
sS'540037850377764864'
p3971
S'caution_and_advice'
p3972
sS'540045929986809856'
p3973
S'other_useful_information'
p3974
sS'540042233588613120'
p3975
S'sympathy_and_emotional_support'
p3976
sS'540016463310880769'
p3977
S'infrastructure_and_utilities_damage'
p3978
sS'540024846873133057'
p3979
S'donation_needs_or_offers_or_volunteering_services'
p3980
sS'540041875067908096'
p3981
S'sympathy_and_emotional_support'
p3982
sS'540030354074370048'
p3983
S'sympathy_and_emotional_support'
p3984
sS'540020348737974272'
p3985
S'displaced_people_and_evacuations'
p3986
sS'540035742739595264'
p3987
S'infrastructure_and_utilities_damage'
p3988
sS'540008351451852801'
p3989
S'caution_and_advice'
p3990
sS'540021001514278914'
p3991
S'sympathy_and_emotional_support'
p3992
sS'540062109292187648'
p3993
S'sympathy_and_emotional_support'
p3994
sS'540028077300908032'
p3995
S'infrastructure_and_utilities_damage'
p3996
sS'540035782115733505'
p3997
S'other_useful_information'
p3998
sS'540006542594949120'
p3999
S'other_useful_information'
p4000
sS'540006047868780544'
p4001
S'donation_needs_or_offers_or_volunteering_services'
p4002
sS'540005825754832896'
p4003
S'sympathy_and_emotional_support'
p4004
sS'540026220558053378'
p4005
S'other_useful_information'
p4006
sS'540026425206923264'
p4007
S'not_related_or_irrelevant'
p4008
sS'540043589451931648'
p4009
S'caution_and_advice'
p4010
sS'540034434825588736'
p4011
S'caution_and_advice'
p4012
sS'540027381491064832'
p4013
S'not_related_or_irrelevant'
p4014
sS'540037482654347265'
p4015
S'injured_or_dead_people'
p4016
sS'540009215335469056'
p4017
S'displaced_people_and_evacuations'
p4018
sS'540006349141073920'
p4019
S'displaced_people_and_evacuations'
p4020
s.