(dp0
S'511446442615898112'
p1
S'infrastructure_and_utilities_damage'
p2
sS'511423820578570240'
p3
S'infrastructure_and_utilities_damage'
p4
sS'511449580282859520'
p5
S'donation_needs_or_offers_or_volunteering_services'
p6
sS'511439121303085057'
p7
S'infrastructure_and_utilities_damage'
p8
sS'511427673558499328'
p9
S'infrastructure_and_utilities_damage'
p10
sS'511427870195851264'
p11
S'sympathy_and_emotional_support'
p12
sS'511430483633111040'
p13
S'infrastructure_and_utilities_damage'
p14
sS'511426413807677440'
p15
S'not_related_or_irrelevant'
p16
sS'511424155506335744'
p17
S'other_useful_information'
p18
sS'511423422161620992'
p19
S'infrastructure_and_utilities_damage'
p20
sS'511445483915849729'
p21
S'other_useful_information'
p22
sS'511454271519596544'
p23
S'caution_and_advice'
p24
sS'511441270091182080'
p25
S'caution_and_advice'
p26
sS'511439457179144192'
p27
S'infrastructure_and_utilities_damage'
p28
sS'511429026573856769'
p29
S'other_useful_information'
p30
sS'511447339597578240'
p31
S'displaced_people_and_evacuations'
p32
sS'511452886165778432'
p33
S'displaced_people_and_evacuations'
p34
sS'511441065425907712'
p35
S'infrastructure_and_utilities_damage'
p36
sS'511450824716075008'
p37
S'other_useful_information'
p38
sS'511440475983978496'
p39
S'displaced_people_and_evacuations'
p40
sS'511448099919654912'
p41
S'infrastructure_and_utilities_damage'
p42
sS'511439994683015168'
p43
S'infrastructure_and_utilities_damage'
p44
sS'511459084777058304'
p45
S'infrastructure_and_utilities_damage'
p46
sS'511439361343488000'
p47
S'donation_needs_or_offers_or_volunteering_services'
p48
sS'511439594051473408'
p49
S'displaced_people_and_evacuations'
p50
sS'511448331449798656'
p51
S'caution_and_advice'
p52
sS'511426343888625666'
p53
S'infrastructure_and_utilities_damage'
p54
sS'511446141171290112'
p55
S'infrastructure_and_utilities_damage'
p56
sS'511438158026653696'
p57
S'not_related_or_irrelevant'
p58
sS'511444531305541632'
p59
S'infrastructure_and_utilities_damage'
p60
sS'511425579057709056'
p61
S'other_useful_information'
p62
sS'511424875223711744'
p63
S'infrastructure_and_utilities_damage'
p64
sS'511427768731836416'
p65
S'infrastructure_and_utilities_damage'
p66
sS'511444370227482625'
p67
S'infrastructure_and_utilities_damage'
p68
sS'511424187962261504'
p69
S'sympathy_and_emotional_support'
p70
sS'511445702032240640'
p71
S'other_useful_information'
p72
sS'511442413760413696'
p73
S'displaced_people_and_evacuations'
p74
sS'511453152390823936'
p75
S'infrastructure_and_utilities_damage'
p76
sS'511445152829698048'
p77
S'infrastructure_and_utilities_damage'
p78
sS'511459170365997056'
p79
S'donation_needs_or_offers_or_volunteering_services'
p80
sS'511444812177084416'
p81
S'infrastructure_and_utilities_damage'
p82
sS'511435735430209537'
p83
S'infrastructure_and_utilities_damage'
p84
sS'511443344195457024'
p85
S'displaced_people_and_evacuations'
p86
sS'511425215453491200'
p87
S'infrastructure_and_utilities_damage'
p88
sS'511427806015012864'
p89
S'sympathy_and_emotional_support'
p90
sS'511456967072550912'
p91
S'sympathy_and_emotional_support'
p92
sS'511459666417954817'
p93
S'infrastructure_and_utilities_damage'
p94
sS'511456329857519616'
p95
S'missing_trapped_or_found_people'
p96
sS'511440268118470656'
p97
S'other_useful_information'
p98
sS'511454731063939073'
p99
S'infrastructure_and_utilities_damage'
p100
sS'511444625848950784'
p101
S'other_useful_information'
p102
sS'511426727646879744'
p103
S'donation_needs_or_offers_or_volunteering_services'
p104
sS'511443111134785536'
p105
S'other_useful_information'
p106
sS'511434598996131840'
p107
S'infrastructure_and_utilities_damage'
p108
sS'511438587233959936'
p109
S'infrastructure_and_utilities_damage'
p110
sS'511436633217171456'
p111
S'other_useful_information'
p112
sS'511444926148530178'
p113
S'infrastructure_and_utilities_damage'
p114
sS'511426121871552512'
p115
S'infrastructure_and_utilities_damage'
p116
sS'511458405907968000'
p117
S'donation_needs_or_offers_or_volunteering_services'
p118
sS'511446740848103424'
p119
S'other_useful_information'
p120
sS'511429127425904640'
p121
S'infrastructure_and_utilities_damage'
p122
sS'511447405682642945'
p123
S'not_related_or_irrelevant'
p124
sS'511448981486845952'
p125
S'infrastructure_and_utilities_damage'
p126
sS'511451663513563136'
p127
S'infrastructure_and_utilities_damage'
p128
sS'511446681989021696'
p129
S'infrastructure_and_utilities_damage'
p130
sS'511439045059035136'
p131
S'caution_and_advice'
p132
sS'511424310058049536'
p133
S'infrastructure_and_utilities_damage'
p134
sS'511431941963259904'
p135
S'other_useful_information'
p136
sS'511453671586930688'
p137
S'infrastructure_and_utilities_damage'
p138
sS'511456279617736704'
p139
S'infrastructure_and_utilities_damage'
p140
sS'511431463062212608'
p141
S'infrastructure_and_utilities_damage'
p142
sS'511438567931772928'
p143
S'infrastructure_and_utilities_damage'
p144
sS'511450480929959936'
p145
S'other_useful_information'
p146
sS'511442548423131136'
p147
S'sympathy_and_emotional_support'
p148
sS'511429038817030144'
p149
S'other_useful_information'
p150
sS'511439128672866304'
p151
S'caution_and_advice'
p152
sS'511457015651004416'
p153
S'missing_trapped_or_found_people'
p154
sS'511433092616040448'
p155
S'other_useful_information'
p156
sS'511439866253803520'
p157
S'infrastructure_and_utilities_damage'
p158
sS'511449278813065217'
p159
S'infrastructure_and_utilities_damage'
p160
sS'511443787273756672'
p161
S'other_useful_information'
p162
sS'511456287884713984'
p163
S'other_useful_information'
p164
sS'511438734676340736'
p165
S'infrastructure_and_utilities_damage'
p166
sS'511423478554435584'
p167
S'displaced_people_and_evacuations'
p168
sS'511455868898910208'
p169
S'sympathy_and_emotional_support'
p170
sS'511424079492952065'
p171
S'other_useful_information'
p172
sS'511458427781283841'
p173
S'infrastructure_and_utilities_damage'
p174
sS'511440488440680448'
p175
S'infrastructure_and_utilities_damage'
p176
sS'511438594590789632'
p177
S'sympathy_and_emotional_support'
p178
sS'511439631187841024'
p179
S'infrastructure_and_utilities_damage'
p180
sS'511450222514679808'
p181
S'infrastructure_and_utilities_damage'
p182
sS'511445908978798593'
p183
S'infrastructure_and_utilities_damage'
p184
sS'511453934901534720'
p185
S'other_useful_information'
p186
sS'511452896538288128'
p187
S'infrastructure_and_utilities_damage'
p188
sS'511456178610520064'
p189
S'infrastructure_and_utilities_damage'
p190
sS'511447479632805888'
p191
S'infrastructure_and_utilities_damage'
p192
sS'511446576804265985'
p193
S'sympathy_and_emotional_support'
p194
sS'511458013497290752'
p195
S'other_useful_information'
p196
sS'511446731738071040'
p197
S'donation_needs_or_offers_or_volunteering_services'
p198
sS'511457080017186816'
p199
S'not_related_or_irrelevant'
p200
sS'511433131258564608'
p201
S'sympathy_and_emotional_support'
p202
sS'511435535571640320'
p203
S'infrastructure_and_utilities_damage'
p204
sS'511449486728888320'
p205
S'infrastructure_and_utilities_damage'
p206
sS'511428949339955200'
p207
S'missing_trapped_or_found_people'
p208
sS'511458922117754880'
p209
S'infrastructure_and_utilities_damage'
p210
sS'511443027802337280'
p211
S'injured_or_dead_people'
p212
sS'511429664850866176'
p213
S'infrastructure_and_utilities_damage'
p214
sS'511445374297325570'
p215
S'donation_needs_or_offers_or_volunteering_services'
p216
sS'511427001383538689'
p217
S'infrastructure_and_utilities_damage'
p218
sS'511443982920843264'
p219
S'infrastructure_and_utilities_damage'
p220
sS'511449933464227840'
p221
S'displaced_people_and_evacuations'
p222
sS'511424529793445888'
p223
S'missing_trapped_or_found_people'
p224
sS'511445629642735616'
p225
S'displaced_people_and_evacuations'
p226
sS'511438123503337472'
p227
S'infrastructure_and_utilities_damage'
p228
sS'511450131544428545'
p229
S'infrastructure_and_utilities_damage'
p230
sS'511440227106562048'
p231
S'sympathy_and_emotional_support'
p232
sS'511454582686228481'
p233
S'caution_and_advice'
p234
sS'511458330397900800'
p235
S'donation_needs_or_offers_or_volunteering_services'
p236
sS'511443976839102464'
p237
S'infrastructure_and_utilities_damage'
p238
sS'511442418990710784'
p239
S'donation_needs_or_offers_or_volunteering_services'
p240
sS'511459522821357568'
p241
S'other_useful_information'
p242
sS'511445251912134657'
p243
S'donation_needs_or_offers_or_volunteering_services'
p244
sS'511446195399819264'
p245
S'infrastructure_and_utilities_damage'
p246
sS'511423101150953472'
p247
S'infrastructure_and_utilities_damage'
p248
sS'511430587757105152'
p249
S'other_useful_information'
p250
sS'511443725298720769'
p251
S'infrastructure_and_utilities_damage'
p252
sS'511427461263802369'
p253
S'sympathy_and_emotional_support'
p254
sS'511425716656046080'
p255
S'other_useful_information'
p256
sS'511454508447444992'
p257
S'infrastructure_and_utilities_damage'
p258
sS'511431412470542336'
p259
S'other_useful_information'
p260
sS'511437543221772288'
p261
S'infrastructure_and_utilities_damage'
p262
sS'511428670440091648'
p263
S'infrastructure_and_utilities_damage'
p264
sS'511435772378226688'
p265
S'other_useful_information'
p266
sS'511432435859730432'
p267
S'infrastructure_and_utilities_damage'
p268
sS'511455956140847104'
p269
S'infrastructure_and_utilities_damage'
p270
sS'511426102804226049'
p271
S'donation_needs_or_offers_or_volunteering_services'
p272
sS'511444587026460674'
p273
S'other_useful_information'
p274
sS'511444797631266817'
p275
S'infrastructure_and_utilities_damage'
p276
sS'511448022723866624'
p277
S'caution_and_advice'
p278
sS'511426346929905664'
p279
S'infrastructure_and_utilities_damage'
p280
sS'511446140911222784'
p281
S'other_useful_information'
p282
sS'511459168012623872'
p283
S'infrastructure_and_utilities_damage'
p284
sS'511452445700943874'
p285
S'infrastructure_and_utilities_damage'
p286
sS'511423573659893760'
p287
S'infrastructure_and_utilities_damage'
p288
sS'511423445830496256'
p289
S'caution_and_advice'
p290
sS'511435434703196161'
p291
S'other_useful_information'
p292
sS'511440736496402432'
p293
S'donation_needs_or_offers_or_volunteering_services'
p294
sS'511438601662365696'
p295
S'infrastructure_and_utilities_damage'
p296
sS'511432693830414336'
p297
S'other_useful_information'
p298
sS'511455889635962880'
p299
S'not_related_or_irrelevant'
p300
sS'511446562552049664'
p301
S'other_useful_information'
p302
sS'511456287209828352'
p303
S'infrastructure_and_utilities_damage'
p304
sS'511438277174632448'
p305
S'donation_needs_or_offers_or_volunteering_services'
p306
sS'511453660950564864'
p307
S'donation_needs_or_offers_or_volunteering_services'
p308
sS'511448023532974080'
p309
S'other_useful_information'
p310
sS'511447036928229376'
p311
S'displaced_people_and_evacuations'
p312
sS'511423563845206016'
p313
S'infrastructure_and_utilities_damage'
p314
sS'511440943057100801'
p315
S'infrastructure_and_utilities_damage'
p316
sS'511450624571891712'
p317
S'displaced_people_and_evacuations'
p318
sS'511437398077894656'
p319
S'other_useful_information'
p320
sS'511439405207523328'
p321
S'displaced_people_and_evacuations'
p322
sS'511438995587203072'
p323
S'infrastructure_and_utilities_damage'
p324
sS'511442373046317056'
p325
S'infrastructure_and_utilities_damage'
p326
sS'511437675476549632'
p327
S'displaced_people_and_evacuations'
p328
sS'511434268783169536'
p329
S'sympathy_and_emotional_support'
p330
sS'511441536757006336'
p331
S'other_useful_information'
p332
sS'511426921541144576'
p333
S'infrastructure_and_utilities_damage'
p334
sS'511442584539918336'
p335
S'infrastructure_and_utilities_damage'
p336
sS'511448253578354688'
p337
S'other_useful_information'
p338
sS'511444620006260736'
p339
S'infrastructure_and_utilities_damage'
p340
sS'511442464154992640'
p341
S'infrastructure_and_utilities_damage'
p342
sS'511440930532892673'
p343
S'other_useful_information'
p344
sS'511423844058685440'
p345
S'other_useful_information'
p346
sS'511443416563978241'
p347
S'infrastructure_and_utilities_damage'
p348
sS'511456541573390336'
p349
S'infrastructure_and_utilities_damage'
p350
sS'511448609641218048'
p351
S'infrastructure_and_utilities_damage'
p352
sS'511439994473295872'
p353
S'donation_needs_or_offers_or_volunteering_services'
p354
sS'511445214549254144'
p355
S'other_useful_information'
p356
sS'511440930486775808'
p357
S'other_useful_information'
p358
sS'511458794082422784'
p359
S'infrastructure_and_utilities_damage'
p360
sS'511457059163111424'
p361
S'injured_or_dead_people'
p362
sS'511440378184990720'
p363
S'donation_needs_or_offers_or_volunteering_services'
p364
sS'511428360959168512'
p365
S'infrastructure_and_utilities_damage'
p366
sS'511455694227513344'
p367
S'infrastructure_and_utilities_damage'
p368
sS'511438032663085056'
p369
S'infrastructure_and_utilities_damage'
p370
sS'511445727307112448'
p371
S'other_useful_information'
p372
sS'511458358474592257'
p373
S'infrastructure_and_utilities_damage'
p374
sS'511436918186582016'
p375
S'sympathy_and_emotional_support'
p376
sS'511443564266414080'
p377
S'sympathy_and_emotional_support'
p378
sS'511424561221349376'
p379
S'infrastructure_and_utilities_damage'
p380
sS'511447580036055040'
p381
S'other_useful_information'
p382
sS'511449977424343041'
p383
S'donation_needs_or_offers_or_volunteering_services'
p384
sS'511447685941841920'
p385
S'infrastructure_and_utilities_damage'
p386
sS'511457934883438592'
p387
S'donation_needs_or_offers_or_volunteering_services'
p388
sS'511448370683338752'
p389
S'infrastructure_and_utilities_damage'
p390
sS'511449291471069184'
p391
S'caution_and_advice'
p392
sS'511440891434000384'
p393
S'infrastructure_and_utilities_damage'
p394
sS'511456347536097281'
p395
S'infrastructure_and_utilities_damage'
p396
sS'511457467822116864'
p397
S'other_useful_information'
p398
sS'511455215137329153'
p399
S'other_useful_information'
p400
sS'511447371083837440'
p401
S'other_useful_information'
p402
sS'511427037848825858'
p403
S'infrastructure_and_utilities_damage'
p404
sS'511458932137553920'
p405
S'infrastructure_and_utilities_damage'
p406
sS'511448638732529665'
p407
S'displaced_people_and_evacuations'
p408
sS'511434256560558080'
p409
S'donation_needs_or_offers_or_volunteering_services'
p410
sS'511458110662524928'
p411
S'caution_and_advice'
p412
sS'511456157127299074'
p413
S'infrastructure_and_utilities_damage'
p414
sS'511428879974539264'
p415
S'caution_and_advice'
p416
sS'511444403391459329'
p417
S'donation_needs_or_offers_or_volunteering_services'
p418
sS'511444560657268736'
p419
S'displaced_people_and_evacuations'
p420
sS'511440923763306497'
p421
S'caution_and_advice'
p422
sS'511458612976574464'
p423
S'sympathy_and_emotional_support'
p424
sS'511451207228203008'
p425
S'caution_and_advice'
p426
sS'511455751639138304'
p427
S'infrastructure_and_utilities_damage'
p428
sS'511447683547295744'
p429
S'donation_needs_or_offers_or_volunteering_services'
p430
sS'511426416101965824'
p431
S'sympathy_and_emotional_support'
p432
sS'511441488950341632'
p433
S'sympathy_and_emotional_support'
p434
sS'511440922408529922'
p435
S'displaced_people_and_evacuations'
p436
sS'511455272330878976'
p437
S'other_useful_information'
p438
sS'511424944098377730'
p439
S'infrastructure_and_utilities_damage'
p440
sS'511425113963520000'
p441
S'other_useful_information'
p442
sS'511449447679942656'
p443
S'infrastructure_and_utilities_damage'
p444
sS'511438720286097408'
p445
S'other_useful_information'
p446
sS'511443274913959936'
p447
S'donation_needs_or_offers_or_volunteering_services'
p448
sS'511440930595807233'
p449
S'sympathy_and_emotional_support'
p450
sS'511441802851672064'
p451
S'infrastructure_and_utilities_damage'
p452
sS'511431862590251008'
p453
S'infrastructure_and_utilities_damage'
p454
sS'511458505732390912'
p455
S'infrastructure_and_utilities_damage'
p456
sS'511456257761636352'
p457
S'donation_needs_or_offers_or_volunteering_services'
p458
sS'511452413757108224'
p459
S'injured_or_dead_people'
p460
sS'511439876491722752'
p461
S'caution_and_advice'
p462
sS'511448494364966912'
p463
S'infrastructure_and_utilities_damage'
p464
sS'511453155989934080'
p465
S'infrastructure_and_utilities_damage'
p466
sS'511435807308398592'
p467
S'infrastructure_and_utilities_damage'
p468
sS'511442416574808064'
p469
S'infrastructure_and_utilities_damage'
p470
sS'511459425371316224'
p471
S'other_useful_information'
p472
sS'511434618047041536'
p473
S'other_useful_information'
p474
sS'511451651954442240'
p475
S'donation_needs_or_offers_or_volunteering_services'
p476
sS'511448940701437952'
p477
S'infrastructure_and_utilities_damage'
p478
sS'511457362281234433'
p479
S'displaced_people_and_evacuations'
p480
sS'511447700512841728'
p481
S'infrastructure_and_utilities_damage'
p482
sS'511440420803719168'
p483
S'infrastructure_and_utilities_damage'
p484
sS'511440879752863744'
p485
S'infrastructure_and_utilities_damage'
p486
sS'511425569838219264'
p487
S'other_useful_information'
p488
sS'511449461831503872'
p489
S'displaced_people_and_evacuations'
p490
sS'511445191778369536'
p491
S'donation_needs_or_offers_or_volunteering_services'
p492
sS'511437465719406592'
p493
S'injured_or_dead_people'
p494
sS'511424324528390144'
p495
S'sympathy_and_emotional_support'
p496
sS'511437451899191297'
p497
S'not_related_or_irrelevant'
p498
sS'511437493255020544'
p499
S'other_useful_information'
p500
sS'511448099290484736'
p501
S'infrastructure_and_utilities_damage'
p502
sS'511457333118242816'
p503
S'missing_trapped_or_found_people'
p504
sS'511453568528683008'
p505
S'infrastructure_and_utilities_damage'
p506
sS'511448021360316416'
p507
S'infrastructure_and_utilities_damage'
p508
sS'511457954550542336'
p509
S'other_useful_information'
p510
sS'511423217379332096'
p511
S'displaced_people_and_evacuations'
p512
sS'511448142902853633'
p513
S'missing_trapped_or_found_people'
p514
sS'511426818574807040'
p515
S'donation_needs_or_offers_or_volunteering_services'
p516
sS'511447637535371264'
p517
S'infrastructure_and_utilities_damage'
p518
sS'511449045903364097'
p519
S'sympathy_and_emotional_support'
p520
sS'511458911623192576'
p521
S'donation_needs_or_offers_or_volunteering_services'
p522
sS'511448504640995329'
p523
S'donation_needs_or_offers_or_volunteering_services'
p524
sS'511458965948235776'
p525
S'infrastructure_and_utilities_damage'
p526
sS'511454227105734656'
p527
S'sympathy_and_emotional_support'
p528
sS'511428377816092672'
p529
S'other_useful_information'
p530
sS'511442061699350529'
p531
S'other_useful_information'
p532
sS'511429391340302336'
p533
S'missing_trapped_or_found_people'
p534
sS'511447723812618240'
p535
S'other_useful_information'
p536
sS'511452064099352576'
p537
S'missing_trapped_or_found_people'
p538
sS'511423221329969152'
p539
S'infrastructure_and_utilities_damage'
p540
sS'511439045679783936'
p541
S'infrastructure_and_utilities_damage'
p542
sS'511440888183402496'
p543
S'infrastructure_and_utilities_damage'
p544
sS'511456147815936000'
p545
S'infrastructure_and_utilities_damage'
p546
sS'511438052778971136'
p547
S'caution_and_advice'
p548
sS'511451403915911169'
p549
S'infrastructure_and_utilities_damage'
p550
sS'511429201644093440'
p551
S'injured_or_dead_people'
p552
sS'511434115913375744'
p553
S'caution_and_advice'
p554
sS'511453800541208576'
p555
S'other_useful_information'
p556
sS'511445082357395456'
p557
S'donation_needs_or_offers_or_volunteering_services'
p558
sS'511434712045608960'
p559
S'caution_and_advice'
p560
sS'511450107855007744'
p561
S'infrastructure_and_utilities_damage'
p562
sS'511430400992763904'
p563
S'other_useful_information'
p564
sS'511432316376186880'
p565
S'infrastructure_and_utilities_damage'
p566
sS'511448395760680960'
p567
S'infrastructure_and_utilities_damage'
p568
sS'511459461542600704'
p569
S'infrastructure_and_utilities_damage'
p570
sS'511431611750301696'
p571
S'injured_or_dead_people'
p572
sS'511456370814500864'
p573
S'not_related_or_irrelevant'
p574
sS'511443540447354880'
p575
S'other_useful_information'
p576
sS'511438622063882240'
p577
S'other_useful_information'
p578
sS'511428839260819456'
p579
S'infrastructure_and_utilities_damage'
p580
sS'511444867961327616'
p581
S'other_useful_information'
p582
sS'511458586883792897'
p583
S'infrastructure_and_utilities_damage'
p584
sS'511454392537464832'
p585
S'infrastructure_and_utilities_damage'
p586
sS'511434778218737664'
p587
S'displaced_people_and_evacuations'
p588
sS'511435973658279936'
p589
S'infrastructure_and_utilities_damage'
p590
sS'511447703046197248'
p591
S'donation_needs_or_offers_or_volunteering_services'
p592
sS'511458819747373057'
p593
S'other_useful_information'
p594
sS'511443988365467648'
p595
S'donation_needs_or_offers_or_volunteering_services'
p596
sS'511439935476215808'
p597
S'other_useful_information'
p598
sS'511439024821510144'
p599
S'donation_needs_or_offers_or_volunteering_services'
p600
sS'511458136746893312'
p601
S'infrastructure_and_utilities_damage'
p602
sS'511428260840747009'
p603
S'other_useful_information'
p604
sS'511426114246295552'
p605
S'infrastructure_and_utilities_damage'
p606
sS'511453217872302082'
p607
S'infrastructure_and_utilities_damage'
p608
sS'511448626514513921'
p609
S'infrastructure_and_utilities_damage'
p610
sS'511432838365712384'
p611
S'caution_and_advice'
p612
sS'511455124360036352'
p613
S'other_useful_information'
p614
sS'511458463260901377'
p615
S'donation_needs_or_offers_or_volunteering_services'
p616
sS'511447400464924672'
p617
S'infrastructure_and_utilities_damage'
p618
sS'511455554364248064'
p619
S'donation_needs_or_offers_or_volunteering_services'
p620
sS'511432625148276736'
p621
S'other_useful_information'
p622
sS'511447457679429634'
p623
S'caution_and_advice'
p624
sS'511458965507813377'
p625
S'infrastructure_and_utilities_damage'
p626
sS'511442428385955840'
p627
S'other_useful_information'
p628
sS'511423209158504448'
p629
S'infrastructure_and_utilities_damage'
p630
sS'511438499099463680'
p631
S'infrastructure_and_utilities_damage'
p632
sS'511452991166353408'
p633
S'infrastructure_and_utilities_damage'
p634
sS'511458791268036608'
p635
S'infrastructure_and_utilities_damage'
p636
sS'511452580757897216'
p637
S'infrastructure_and_utilities_damage'
p638
sS'511443347089530880'
p639
S'infrastructure_and_utilities_damage'
p640
sS'511448118731087872'
p641
S'sympathy_and_emotional_support'
p642
sS'511434546462875648'
p643
S'other_useful_information'
p644
sS'511446906371710976'
p645
S'infrastructure_and_utilities_damage'
p646
sS'511432611831746560'
p647
S'infrastructure_and_utilities_damage'
p648
sS'511459175105581056'
p649
S'infrastructure_and_utilities_damage'
p650
sS'511447257653448704'
p651
S'infrastructure_and_utilities_damage'
p652
sS'511441227883884544'
p653
S'infrastructure_and_utilities_damage'
p654
sS'511453878492352512'
p655
S'caution_and_advice'
p656
sS'511429038196678656'
p657
S'other_useful_information'
p658
sS'511447074337214464'
p659
S'displaced_people_and_evacuations'
p660
sS'511428895761891328'
p661
S'infrastructure_and_utilities_damage'
p662
sS'511432161774546944'
p663
S'infrastructure_and_utilities_damage'
p664
sS'511443209306664960'
p665
S'infrastructure_and_utilities_damage'
p666
sS'511437179914944513'
p667
S'infrastructure_and_utilities_damage'
p668
sS'511445471618166784'
p669
S'infrastructure_and_utilities_damage'
p670
sS'511447002161618944'
p671
S'sympathy_and_emotional_support'
p672
sS'511427330292850688'
p673
S'donation_needs_or_offers_or_volunteering_services'
p674
sS'511448427960356864'
p675
S'infrastructure_and_utilities_damage'
p676
sS'511427444596023296'
p677
S'donation_needs_or_offers_or_volunteering_services'
p678
sS'511439446252982272'
p679
S'sympathy_and_emotional_support'
p680
sS'511425801917456385'
p681
S'other_useful_information'
p682
sS'511423221363507200'
p683
S'displaced_people_and_evacuations'
p684
sS'511433780276391936'
p685
S'infrastructure_and_utilities_damage'
p686
sS'511451544966160384'
p687
S'displaced_people_and_evacuations'
p688
sS'511450161646956544'
p689
S'donation_needs_or_offers_or_volunteering_services'
p690
sS'511440079462858752'
p691
S'infrastructure_and_utilities_damage'
p692
sS'511440041034256384'
p693
S'missing_trapped_or_found_people'
p694
sS'511447004589723648'
p695
S'infrastructure_and_utilities_damage'
p696
sS'511448470025420800'
p697
S'donation_needs_or_offers_or_volunteering_services'
p698
sS'511431100745650176'
p699
S'injured_or_dead_people'
p700
sS'511456422509309952'
p701
S'other_useful_information'
p702
sS'511449839389769728'
p703
S'displaced_people_and_evacuations'
p704
sS'511458025283268608'
p705
S'infrastructure_and_utilities_damage'
p706
sS'511443830709968896'
p707
S'other_useful_information'
p708
sS'511442407464779776'
p709
S'infrastructure_and_utilities_damage'
p710
sS'511446758048555008'
p711
S'infrastructure_and_utilities_damage'
p712
sS'511446261430358016'
p713
S'infrastructure_and_utilities_damage'
p714
sS'511450491247935488'
p715
S'infrastructure_and_utilities_damage'
p716
sS'511449522246275072'
p717
S'donation_needs_or_offers_or_volunteering_services'
p718
sS'511441848221843456'
p719
S'caution_and_advice'
p720
sS'511446370561966080'
p721
S'displaced_people_and_evacuations'
p722
sS'511458525730848768'
p723
S'injured_or_dead_people'
p724
sS'511446713089798144'
p725
S'other_useful_information'
p726
sS'511458268318040064'
p727
S'sympathy_and_emotional_support'
p728
sS'511455701978202112'
p729
S'infrastructure_and_utilities_damage'
p730
sS'511446425335791616'
p731
S'infrastructure_and_utilities_damage'
p732
sS'511447308278726656'
p733
S'infrastructure_and_utilities_damage'
p734
sS'511425158234767361'
p735
S'donation_needs_or_offers_or_volunteering_services'
p736
sS'511458505727832065'
p737
S'infrastructure_and_utilities_damage'
p738
sS'511444067452858368'
p739
S'other_useful_information'
p740
sS'511426715433074688'
p741
S'other_useful_information'
p742
sS'511443353200644096'
p743
S'donation_needs_or_offers_or_volunteering_services'
p744
sS'511447233472913409'
p745
S'donation_needs_or_offers_or_volunteering_services'
p746
sS'511441297857843200'
p747
S'other_useful_information'
p748
sS'511446575374012418'
p749
S'other_useful_information'
p750
sS'511446503097765888'
p751
S'infrastructure_and_utilities_damage'
p752
sS'511443027940757504'
p753
S'sympathy_and_emotional_support'
p754
sS'511437114060189697'
p755
S'donation_needs_or_offers_or_volunteering_services'
p756
sS'511450517923323904'
p757
S'donation_needs_or_offers_or_volunteering_services'
p758
sS'511447588722462720'
p759
S'donation_needs_or_offers_or_volunteering_services'
p760
sS'511443138628435969'
p761
S'infrastructure_and_utilities_damage'
p762
sS'511429058765549568'
p763
S'other_useful_information'
p764
sS'511429452547776512'
p765
S'sympathy_and_emotional_support'
p766
sS'511444121849184256'
p767
S'infrastructure_and_utilities_damage'
p768
sS'511446818807640064'
p769
S'sympathy_and_emotional_support'
p770
sS'511433329590030336'
p771
S'infrastructure_and_utilities_damage'
p772
sS'511439601551286272'
p773
S'infrastructure_and_utilities_damage'
p774
sS'511447890875535362'
p775
S'donation_needs_or_offers_or_volunteering_services'
p776
sS'511451126919479296'
p777
S'sympathy_and_emotional_support'
p778
sS'511451283614863361'
p779
S'donation_needs_or_offers_or_volunteering_services'
p780
sS'511457143523143680'
p781
S'infrastructure_and_utilities_damage'
p782
sS'511457422662455297'
p783
S'infrastructure_and_utilities_damage'
p784
sS'511438101907259392'
p785
S'sympathy_and_emotional_support'
p786
sS'511447032263753728'
p787
S'infrastructure_and_utilities_damage'
p788
sS'511450456942338048'
p789
S'infrastructure_and_utilities_damage'
p790
sS'511451199896571904'
p791
S'infrastructure_and_utilities_damage'
p792
sS'511455279079493632'
p793
S'caution_and_advice'
p794
sS'511458376229085184'
p795
S'infrastructure_and_utilities_damage'
p796
sS'511448274398900224'
p797
S'infrastructure_and_utilities_damage'
p798
sS'511451391332986880'
p799
S'other_useful_information'
p800
sS'511446549365149696'
p801
S'infrastructure_and_utilities_damage'
p802
sS'511440924090454016'
p803
S'infrastructure_and_utilities_damage'
p804
sS'511449341232709632'
p805
S'infrastructure_and_utilities_damage'
p806
sS'511458261967855616'
p807
S'infrastructure_and_utilities_damage'
p808
sS'511436870098497536'
p809
S'other_useful_information'
p810
sS'511457169011929088'
p811
S'infrastructure_and_utilities_damage'
p812
sS'511433128297398272'
p813
S'infrastructure_and_utilities_damage'
p814
sS'511447833703358464'
p815
S'other_useful_information'
p816
sS'511434111496364036'
p817
S'other_useful_information'
p818
sS'511458996516302848'
p819
S'donation_needs_or_offers_or_volunteering_services'
p820
sS'511431214054789120'
p821
S'infrastructure_and_utilities_damage'
p822
sS'511430652974342144'
p823
S'infrastructure_and_utilities_damage'
p824
sS'511454402838667265'
p825
S'infrastructure_and_utilities_damage'
p826
sS'511442330445172736'
p827
S'other_useful_information'
p828
sS'511444405631197184'
p829
S'displaced_people_and_evacuations'
p830
sS'511440087549104128'
p831
S'not_related_or_irrelevant'
p832
sS'511456440603521024'
p833
S'infrastructure_and_utilities_damage'
p834
sS'511428806146818048'
p835
S'infrastructure_and_utilities_damage'
p836
sS'511455788418605056'
p837
S'sympathy_and_emotional_support'
p838
sS'511432976056336384'
p839
S'donation_needs_or_offers_or_volunteering_services'
p840
sS'511423426318180353'
p841
S'caution_and_advice'
p842
sS'511454970819137536'
p843
S'donation_needs_or_offers_or_volunteering_services'
p844
sS'511442937545523200'
p845
S'infrastructure_and_utilities_damage'
p846
sS'511430811787472896'
p847
S'infrastructure_and_utilities_damage'
p848
sS'511455871864303617'
p849
S'infrastructure_and_utilities_damage'
p850
sS'511425432957513728'
p851
S'caution_and_advice'
p852
sS'511450758089539584'
p853
S'not_related_or_irrelevant'
p854
sS'511440952980815872'
p855
S'displaced_people_and_evacuations'
p856
sS'511445829589032960'
p857
S'infrastructure_and_utilities_damage'
p858
sS'511436152503406593'
p859
S'infrastructure_and_utilities_damage'
p860
sS'511458750050623488'
p861
S'infrastructure_and_utilities_damage'
p862
sS'511442143869558786'
p863
S'other_useful_information'
p864
sS'511423349470154752'
p865
S'other_useful_information'
p866
sS'511459267254423552'
p867
S'other_useful_information'
p868
sS'511425437910589440'
p869
S'infrastructure_and_utilities_damage'
p870
sS'511454570237554688'
p871
S'infrastructure_and_utilities_damage'
p872
sS'511437152605835264'
p873
S'donation_needs_or_offers_or_volunteering_services'
p874
sS'511446564024225792'
p875
S'donation_needs_or_offers_or_volunteering_services'
p876
sS'511456459511844864'
p877
S'not_related_or_irrelevant'
p878
sS'511455143942836224'
p879
S'infrastructure_and_utilities_damage'
p880
sS'511441052725555202'
p881
S'other_useful_information'
p882
sS'511455453507620865'
p883
S'infrastructure_and_utilities_damage'
p884
sS'511454361570914305'
p885
S'infrastructure_and_utilities_damage'
p886
sS'511447434405220352'
p887
S'infrastructure_and_utilities_damage'
p888
sS'511438532980641792'
p889
S'other_useful_information'
p890
sS'511446088558338048'
p891
S'infrastructure_and_utilities_damage'
p892
sS'511424449099206656'
p893
S'donation_needs_or_offers_or_volunteering_services'
p894
sS'511456203097272320'
p895
S'infrastructure_and_utilities_damage'
p896
sS'511457767232925696'
p897
S'donation_needs_or_offers_or_volunteering_services'
p898
sS'511437828035985408'
p899
S'donation_needs_or_offers_or_volunteering_services'
p900
sS'511454493469184000'
p901
S'sympathy_and_emotional_support'
p902
sS'511449134378000384'
p903
S'infrastructure_and_utilities_damage'
p904
sS'511438040800063488'
p905
S'sympathy_and_emotional_support'
p906
sS'511455078528856064'
p907
S'other_useful_information'
p908
sS'511428840791764992'
p909
S'infrastructure_and_utilities_damage'
p910
sS'511439680806879232'
p911
S'infrastructure_and_utilities_damage'
p912
sS'511431076451852289'
p913
S'other_useful_information'
p914
sS'511447778724442112'
p915
S'infrastructure_and_utilities_damage'
p916
sS'511443970850041856'
p917
S'infrastructure_and_utilities_damage'
p918
sS'511450018931167233'
p919
S'other_useful_information'
p920
sS'511423703729459200'
p921
S'other_useful_information'
p922
sS'511458227536408577'
p923
S'injured_or_dead_people'
p924
sS'511458284256395264'
p925
S'donation_needs_or_offers_or_volunteering_services'
p926
sS'511445427246227456'
p927
S'sympathy_and_emotional_support'
p928
sS'511448270582063104'
p929
S'donation_needs_or_offers_or_volunteering_services'
p930
sS'511447023724560384'
p931
S'other_useful_information'
p932
sS'511457526182068224'
p933
S'infrastructure_and_utilities_damage'
p934
sS'511458263448453120'
p935
S'infrastructure_and_utilities_damage'
p936
sS'511449227088887808'
p937
S'infrastructure_and_utilities_damage'
p938
sS'511443579395645440'
p939
S'not_related_or_irrelevant'
p940
sS'511425243404320768'
p941
S'missing_trapped_or_found_people'
p942
sS'511454225402830848'
p943
S'other_useful_information'
p944
sS'511425114139676672'
p945
S'infrastructure_and_utilities_damage'
p946
sS'511458730630991872'
p947
S'other_useful_information'
p948
sS'511423869165387777'
p949
S'sympathy_and_emotional_support'
p950
sS'511445434674343937'
p951
S'infrastructure_and_utilities_damage'
p952
sS'511444890296016898'
p953
S'donation_needs_or_offers_or_volunteering_services'
p954
sS'511443103996059648'
p955
S'infrastructure_and_utilities_damage'
p956
sS'511440424603754496'
p957
S'infrastructure_and_utilities_damage'
p958
sS'511439025526157312'
p959
S'infrastructure_and_utilities_damage'
p960
sS'511457514341556224'
p961
S'infrastructure_and_utilities_damage'
p962
sS'511440758835261441'
p963
S'not_related_or_irrelevant'
p964
sS'511434676179709952'
p965
S'other_useful_information'
p966
sS'511458980078813184'
p967
S'infrastructure_and_utilities_damage'
p968
sS'511448860581842944'
p969
S'sympathy_and_emotional_support'
p970
sS'511426887256915968'
p971
S'other_useful_information'
p972
sS'511435051842555904'
p973
S'infrastructure_and_utilities_damage'
p974
sS'511456287150727169'
p975
S'infrastructure_and_utilities_damage'
p976
sS'511445394346496000'
p977
S'infrastructure_and_utilities_damage'
p978
sS'511444030371028992'
p979
S'infrastructure_and_utilities_damage'
p980
sS'511441808011055104'
p981
S'infrastructure_and_utilities_damage'
p982
sS'511450196530565121'
p983
S'infrastructure_and_utilities_damage'
p984
sS'511459276762517504'
p985
S'infrastructure_and_utilities_damage'
p986
sS'511425025530789890'
p987
S'sympathy_and_emotional_support'
p988
sS'511443976918814722'
p989
S'donation_needs_or_offers_or_volunteering_services'
p990
sS'511446765166264320'
p991
S'sympathy_and_emotional_support'
p992
sS'511454157262565377'
p993
S'caution_and_advice'
p994
sS'511452568392720384'
p995
S'donation_needs_or_offers_or_volunteering_services'
p996
sS'511426774312304640'
p997
S'infrastructure_and_utilities_damage'
p998
sS'511441530331344898'
p999
S'infrastructure_and_utilities_damage'
p1000
sS'511457224343175168'
p1001
S'displaced_people_and_evacuations'
p1002
sS'511435655625191424'
p1003
S'sympathy_and_emotional_support'
p1004
sS'511444849909055488'
p1005
S'other_useful_information'
p1006
sS'511454715620913152'
p1007
S'not_related_or_irrelevant'
p1008
sS'511449389412274176'
p1009
S'infrastructure_and_utilities_damage'
p1010
sS'511430649052688384'
p1011
S'infrastructure_and_utilities_damage'
p1012
sS'511458878220156928'
p1013
S'caution_and_advice'
p1014
sS'511424497090834432'
p1015
S'infrastructure_and_utilities_damage'
p1016
sS'511452974233976833'
p1017
S'infrastructure_and_utilities_damage'
p1018
sS'511433162808123392'
p1019
S'donation_needs_or_offers_or_volunteering_services'
p1020
sS'511452880906510337'
p1021
S'infrastructure_and_utilities_damage'
p1022
sS'511435801025343488'
p1023
S'caution_and_advice'
p1024
sS'511426794121994240'
p1025
S'infrastructure_and_utilities_damage'
p1026
sS'511423528307265536'
p1027
S'donation_needs_or_offers_or_volunteering_services'
p1028
sS'511459486864015360'
p1029
S'infrastructure_and_utilities_damage'
p1030
sS'511442171569123328'
p1031
S'infrastructure_and_utilities_damage'
p1032
sS'511442402901381121'
p1033
S'infrastructure_and_utilities_damage'
p1034
sS'511446669024440320'
p1035
S'other_useful_information'
p1036
sS'511429655598219264'
p1037
S'infrastructure_and_utilities_damage'
p1038
sS'511424819519172608'
p1039
S'infrastructure_and_utilities_damage'
p1040
sS'511451695256064000'
p1041
S'other_useful_information'
p1042
sS'511431693698625536'
p1043
S'missing_trapped_or_found_people'
p1044
sS'511451865700372480'
p1045
S'infrastructure_and_utilities_damage'
p1046
sS'511446719653883904'
p1047
S'infrastructure_and_utilities_damage'
p1048
sS'511456297988792320'
p1049
S'not_related_or_irrelevant'
p1050
sS'511447383901605888'
p1051
S'donation_needs_or_offers_or_volunteering_services'
p1052
sS'511457237877813248'
p1053
S'donation_needs_or_offers_or_volunteering_services'
p1054
sS'511443113059966976'
p1055
S'other_useful_information'
p1056
sS'511446565655822336'
p1057
S'infrastructure_and_utilities_damage'
p1058
sS'511452073410322433'
p1059
S'infrastructure_and_utilities_damage'
p1060
sS'511451107680206848'
p1061
S'infrastructure_and_utilities_damage'
p1062
sS'511456046091497474'
p1063
S'infrastructure_and_utilities_damage'
p1064
sS'511458642747748352'
p1065
S'infrastructure_and_utilities_damage'
p1066
sS'511437189901991936'
p1067
S'infrastructure_and_utilities_damage'
p1068
sS'511458323020152832'
p1069
S'other_useful_information'
p1070
sS'511430318713487360'
p1071
S'infrastructure_and_utilities_damage'
p1072
sS'511440001670725633'
p1073
S'donation_needs_or_offers_or_volunteering_services'
p1074
sS'511448674157993984'
p1075
S'infrastructure_and_utilities_damage'
p1076
sS'511457050405371904'
p1077
S'infrastructure_and_utilities_damage'
p1078
sS'511434772459945985'
p1079
S'infrastructure_and_utilities_damage'
p1080
sS'511427564062011392'
p1081
S'other_useful_information'
p1082
sS'511446945572085760'
p1083
S'donation_needs_or_offers_or_volunteering_services'
p1084
sS'511459582242074625'
p1085
S'other_useful_information'
p1086
sS'511438958912622592'
p1087
S'other_useful_information'
p1088
sS'511426975412793344'
p1089
S'other_useful_information'
p1090
sS'511458553228701696'
p1091
S'displaced_people_and_evacuations'
p1092
sS'511437860764123136'
p1093
S'donation_needs_or_offers_or_volunteering_services'
p1094
sS'511448350546079745'
p1095
S'infrastructure_and_utilities_damage'
p1096
sS'511440407155056641'
p1097
S'infrastructure_and_utilities_damage'
p1098
sS'511453621117255680'
p1099
S'donation_needs_or_offers_or_volunteering_services'
p1100
sS'511443122769760256'
p1101
S'other_useful_information'
p1102
sS'511447041206419457'
p1103
S'infrastructure_and_utilities_damage'
p1104
sS'511455158652243969'
p1105
S'infrastructure_and_utilities_damage'
p1106
sS'511445307495051264'
p1107
S'other_useful_information'
p1108
sS'511448837198585857'
p1109
S'caution_and_advice'
p1110
sS'511457276469989376'
p1111
S'donation_needs_or_offers_or_volunteering_services'
p1112
sS'511444811564343296'
p1113
S'infrastructure_and_utilities_damage'
p1114
sS'511445442559614976'
p1115
S'infrastructure_and_utilities_damage'
p1116
sS'511427925229334529'
p1117
S'sympathy_and_emotional_support'
p1118
sS'511438841254010880'
p1119
S'infrastructure_and_utilities_damage'
p1120
sS'511449819202985984'
p1121
S'injured_or_dead_people'
p1122
sS'511439044819972096'
p1123
S'donation_needs_or_offers_or_volunteering_services'
p1124
sS'511455612086263808'
p1125
S'infrastructure_and_utilities_damage'
p1126
sS'511428104775286785'
p1127
S'injured_or_dead_people'
p1128
sS'511426118474153984'
p1129
S'displaced_people_and_evacuations'
p1130
sS'511434705426984960'
p1131
S'missing_trapped_or_found_people'
p1132
sS'511446637169086464'
p1133
S'donation_needs_or_offers_or_volunteering_services'
p1134
sS'511458935304626176'
p1135
S'donation_needs_or_offers_or_volunteering_services'
p1136
sS'511438050530848768'
p1137
S'other_useful_information'
p1138
sS'511430560686698498'
p1139
S'sympathy_and_emotional_support'
p1140
sS'511444165696442369'
p1141
S'other_useful_information'
p1142
sS'511458263880065026'
p1143
S'donation_needs_or_offers_or_volunteering_services'
p1144
sS'511432662016614400'
p1145
S'injured_or_dead_people'
p1146
sS'511438147063123968'
p1147
S'infrastructure_and_utilities_damage'
p1148
sS'511428382085492736'
p1149
S'infrastructure_and_utilities_damage'
p1150
sS'511453434403233792'
p1151
S'infrastructure_and_utilities_damage'
p1152
sS'511443419638427648'
p1153
S'donation_needs_or_offers_or_volunteering_services'
p1154
sS'511446483275481088'
p1155
S'infrastructure_and_utilities_damage'
p1156
sS'511444891134885888'
p1157
S'infrastructure_and_utilities_damage'
p1158
sS'511441984591237120'
p1159
S'not_related_or_irrelevant'
p1160
sS'511438580137197569'
p1161
S'donation_needs_or_offers_or_volunteering_services'
p1162
sS'511434994456072193'
p1163
S'caution_and_advice'
p1164
sS'511443123898052608'
p1165
S'displaced_people_and_evacuations'
p1166
sS'511435652584308736'
p1167
S'sympathy_and_emotional_support'
p1168
sS'511436190537363456'
p1169
S'donation_needs_or_offers_or_volunteering_services'
p1170
sS'511456071048003584'
p1171
S'not_related_or_irrelevant'
p1172
sS'511459305099243521'
p1173
S'other_useful_information'
p1174
sS'511439213590769665'
p1175
S'other_useful_information'
p1176
sS'511453477550034945'
p1177
S'donation_needs_or_offers_or_volunteering_services'
p1178
sS'511456144275951616'
p1179
S'missing_trapped_or_found_people'
p1180
sS'511458181881806849'
p1181
S'displaced_people_and_evacuations'
p1182
sS'511425369397035008'
p1183
S'sympathy_and_emotional_support'
p1184
sS'511449143378984960'
p1185
S'infrastructure_and_utilities_damage'
p1186
sS'511452262292799488'
p1187
S'infrastructure_and_utilities_damage'
p1188
sS'511440924124008448'
p1189
S'donation_needs_or_offers_or_volunteering_services'
p1190
sS'511453752922873856'
p1191
S'displaced_people_and_evacuations'
p1192
sS'511427892375732224'
p1193
S'other_useful_information'
p1194
sS'511459407293849600'
p1195
S'displaced_people_and_evacuations'
p1196
sS'511449982692364288'
p1197
S'other_useful_information'
p1198
sS'511459422070009856'
p1199
S'donation_needs_or_offers_or_volunteering_services'
p1200
sS'511430228363591680'
p1201
S'infrastructure_and_utilities_damage'
p1202
sS'511459609148538880'
p1203
S'infrastructure_and_utilities_damage'
p1204
sS'511441371819802624'
p1205
S'other_useful_information'
p1206
sS'511456513588998145'
p1207
S'sympathy_and_emotional_support'
p1208
sS'511456872935591937'
p1209
S'infrastructure_and_utilities_damage'
p1210
sS'511443616871755776'
p1211
S'infrastructure_and_utilities_damage'
p1212
sS'511425084633120768'
p1213
S'not_related_or_irrelevant'
p1214
sS'511439090080690176'
p1215
S'displaced_people_and_evacuations'
p1216
sS'511445414994657280'
p1217
S'infrastructure_and_utilities_damage'
p1218
sS'511426727365861376'
p1219
S'infrastructure_and_utilities_damage'
p1220
sS'511439839867457536'
p1221
S'donation_needs_or_offers_or_volunteering_services'
p1222
sS'511439248483176448'
p1223
S'donation_needs_or_offers_or_volunteering_services'
p1224
sS'511447258450386944'
p1225
S'infrastructure_and_utilities_damage'
p1226
sS'511443369193504768'
p1227
S'infrastructure_and_utilities_damage'
p1228
sS'511423166283935744'
p1229
S'infrastructure_and_utilities_damage'
p1230
sS'511441810825433088'
p1231
S'caution_and_advice'
p1232
sS'511428317761654784'
p1233
S'infrastructure_and_utilities_damage'
p1234
sS'511431321793490944'
p1235
S'displaced_people_and_evacuations'
p1236
sS'511437737619378176'
p1237
S'other_useful_information'
p1238
sS'511456163947220992'
p1239
S'donation_needs_or_offers_or_volunteering_services'
p1240
sS'511442470367166464'
p1241
S'other_useful_information'
p1242
sS'511457938855452672'
p1243
S'infrastructure_and_utilities_damage'
p1244
sS'511427329030373376'
p1245
S'injured_or_dead_people'
p1246
sS'511457025012670464'
p1247
S'other_useful_information'
p1248
sS'511448879309389824'
p1249
S'infrastructure_and_utilities_damage'
p1250
sS'511443939795017728'
p1251
S'infrastructure_and_utilities_damage'
p1252
sS'511443249567768576'
p1253
S'donation_needs_or_offers_or_volunteering_services'
p1254
sS'511453461397766144'
p1255
S'infrastructure_and_utilities_damage'
p1256
sS'511444196721311744'
p1257
S'sympathy_and_emotional_support'
p1258
sS'511438052497956864'
p1259
S'donation_needs_or_offers_or_volunteering_services'
p1260
sS'511432031797272576'
p1261
S'other_useful_information'
p1262
sS'511427327327481856'
p1263
S'displaced_people_and_evacuations'
p1264
sS'511440336892485632'
p1265
S'other_useful_information'
p1266
sS'511428892075098112'
p1267
S'displaced_people_and_evacuations'
p1268
sS'511453357056086016'
p1269
S'other_useful_information'
p1270
sS'511433171007975424'
p1271
S'other_useful_information'
p1272
sS'511452272317169664'
p1273
S'infrastructure_and_utilities_damage'
p1274
sS'511434595716571136'
p1275
S'sympathy_and_emotional_support'
p1276
sS'511441106417225728'
p1277
S'displaced_people_and_evacuations'
p1278
sS'511457842629722112'
p1279
S'other_useful_information'
p1280
sS'511445111012880386'
p1281
S'donation_needs_or_offers_or_volunteering_services'
p1282
sS'511442386342248448'
p1283
S'other_useful_information'
p1284
sS'511458962688847872'
p1285
S'infrastructure_and_utilities_damage'
p1286
sS'511451041536016384'
p1287
S'infrastructure_and_utilities_damage'
p1288
sS'511439785664454656'
p1289
S'infrastructure_and_utilities_damage'
p1290
sS'511447864388501504'
p1291
S'infrastructure_and_utilities_damage'
p1292
sS'511456159522234368'
p1293
S'infrastructure_and_utilities_damage'
p1294
sS'511433372389089281'
p1295
S'donation_needs_or_offers_or_volunteering_services'
p1296
sS'511458442113196032'
p1297
S'donation_needs_or_offers_or_volunteering_services'
p1298
sS'511424050263228416'
p1299
S'other_useful_information'
p1300
sS'511436529370021888'
p1301
S'other_useful_information'
p1302
sS'511439982590824448'
p1303
S'infrastructure_and_utilities_damage'
p1304
sS'511438432552644608'
p1305
S'other_useful_information'
p1306
sS'511423316872417280'
p1307
S'donation_needs_or_offers_or_volunteering_services'
p1308
sS'511424072732127232'
p1309
S'not_related_or_irrelevant'
p1310
sS'511449995157843969'
p1311
S'infrastructure_and_utilities_damage'
p1312
sS'511458676910346240'
p1313
S'not_related_or_irrelevant'
p1314
sS'511423491883933696'
p1315
S'donation_needs_or_offers_or_volunteering_services'
p1316
sS'511437503799496704'
p1317
S'sympathy_and_emotional_support'
p1318
sS'511438041433391104'
p1319
S'caution_and_advice'
p1320
sS'511429340760793089'
p1321
S'sympathy_and_emotional_support'
p1322
sS'511430588285218817'
p1323
S'donation_needs_or_offers_or_volunteering_services'
p1324
sS'511439207005315072'
p1325
S'infrastructure_and_utilities_damage'
p1326
sS'511431571178418176'
p1327
S'other_useful_information'
p1328
sS'511448439377240064'
p1329
S'infrastructure_and_utilities_damage'
p1330
sS'511446652641484800'
p1331
S'other_useful_information'
p1332
sS'511429054000414720'
p1333
S'sympathy_and_emotional_support'
p1334
sS'511455800678555651'
p1335
S'infrastructure_and_utilities_damage'
p1336
sS'511430350233272320'
p1337
S'infrastructure_and_utilities_damage'
p1338
sS'511442440587198464'
p1339
S'sympathy_and_emotional_support'
p1340
sS'511438979032285185'
p1341
S'donation_needs_or_offers_or_volunteering_services'
p1342
sS'511423814668791808'
p1343
S'infrastructure_and_utilities_damage'
p1344
sS'511449412950712320'
p1345
S'other_useful_information'
p1346
sS'511448309027065857'
p1347
S'infrastructure_and_utilities_damage'
p1348
sS'511448703635582976'
p1349
S'infrastructure_and_utilities_damage'
p1350
sS'511426015911227392'
p1351
S'other_useful_information'
p1352
sS'511427831692140544'
p1353
S'donation_needs_or_offers_or_volunteering_services'
p1354
sS'511430043709751296'
p1355
S'infrastructure_and_utilities_damage'
p1356
sS'511432396252905473'
p1357
S'infrastructure_and_utilities_damage'
p1358
sS'511453775182057472'
p1359
S'not_related_or_irrelevant'
p1360
sS'511423963579564032'
p1361
S'other_useful_information'
p1362
sS'511438504992059392'
p1363
S'infrastructure_and_utilities_damage'
p1364
sS'511442789968535552'
p1365
S'sympathy_and_emotional_support'
p1366
sS'511457852398239744'
p1367
S'infrastructure_and_utilities_damage'
p1368
sS'511443406149541888'
p1369
S'other_useful_information'
p1370
sS'511458195291013120'
p1371
S'caution_and_advice'
p1372
sS'511446558290608129'
p1373
S'infrastructure_and_utilities_damage'
p1374
sS'511459509651259392'
p1375
S'donation_needs_or_offers_or_volunteering_services'
p1376
sS'511440922429906944'
p1377
S'other_useful_information'
p1378
sS'511446011500568577'
p1379
S'infrastructure_and_utilities_damage'
p1380
sS'511442340808900608'
p1381
S'other_useful_information'
p1382
sS'511441377570205696'
p1383
S'infrastructure_and_utilities_damage'
p1384
sS'511444532244643840'
p1385
S'donation_needs_or_offers_or_volunteering_services'
p1386
sS'511451572346580993'
p1387
S'other_useful_information'
p1388
sS'511425396273709056'
p1389
S'infrastructure_and_utilities_damage'
p1390
sS'511446796246069248'
p1391
S'donation_needs_or_offers_or_volunteering_services'
p1392
sS'511431598345297921'
p1393
S'displaced_people_and_evacuations'
p1394
sS'511440927307485184'
p1395
S'infrastructure_and_utilities_damage'
p1396
sS'511458555300696064'
p1397
S'other_useful_information'
p1398
sS'511456171782193152'
p1399
S'infrastructure_and_utilities_damage'
p1400
sS'511454479821324288'
p1401
S'other_useful_information'
p1402
sS'511438902008086528'
p1403
S'infrastructure_and_utilities_damage'
p1404
sS'511450109549510656'
p1405
S'infrastructure_and_utilities_damage'
p1406
sS'511427335447662592'
p1407
S'infrastructure_and_utilities_damage'
p1408
sS'511443231695855616'
p1409
S'infrastructure_and_utilities_damage'
p1410
sS'511445170660073472'
p1411
S'not_related_or_irrelevant'
p1412
sS'511446937246367744'
p1413
S'other_useful_information'
p1414
sS'511439066240270336'
p1415
S'infrastructure_and_utilities_damage'
p1416
sS'511452818986008576'
p1417
S'other_useful_information'
p1418
sS'511451600175390721'
p1419
S'infrastructure_and_utilities_damage'
p1420
sS'511458157370290176'
p1421
S'other_useful_information'
p1422
sS'511424737604419584'
p1423
S'missing_trapped_or_found_people'
p1424
sS'511452571777916928'
p1425
S'infrastructure_and_utilities_damage'
p1426
sS'511444632249446401'
p1427
S'infrastructure_and_utilities_damage'
p1428
sS'511426729819512832'
p1429
S'sympathy_and_emotional_support'
p1430
sS'511453775601483777'
p1431
S'infrastructure_and_utilities_damage'
p1432
sS'511445325798989824'
p1433
S'infrastructure_and_utilities_damage'
p1434
sS'511437109459042304'
p1435
S'donation_needs_or_offers_or_volunteering_services'
p1436
sS'511424700975554560'
p1437
S'infrastructure_and_utilities_damage'
p1438
sS'511432733139034112'
p1439
S'displaced_people_and_evacuations'
p1440
sS'511459053697241088'
p1441
S'infrastructure_and_utilities_damage'
p1442
sS'511446187086331904'
p1443
S'other_useful_information'
p1444
sS'511444205076369409'
p1445
S'sympathy_and_emotional_support'
p1446
sS'511435486293147648'
p1447
S'other_useful_information'
p1448
sS'511450367498784768'
p1449
S'injured_or_dead_people'
p1450
sS'511434466813034496'
p1451
S'donation_needs_or_offers_or_volunteering_services'
p1452
sS'511448800956002304'
p1453
S'other_useful_information'
p1454
sS'511456367438086145'
p1455
S'other_useful_information'
p1456
sS'511428661967585280'
p1457
S'infrastructure_and_utilities_damage'
p1458
sS'511448107801116672'
p1459
S'donation_needs_or_offers_or_volunteering_services'
p1460
sS'511450383881732096'
p1461
S'displaced_people_and_evacuations'
p1462
sS'511459388423692288'
p1463
S'infrastructure_and_utilities_damage'
p1464
sS'511455151534919680'
p1465
S'not_related_or_irrelevant'
p1466
sS'511448481270345728'
p1467
S'sympathy_and_emotional_support'
p1468
sS'511451119747604481'
p1469
S'infrastructure_and_utilities_damage'
p1470
sS'511444964039852032'
p1471
S'donation_needs_or_offers_or_volunteering_services'
p1472
sS'511424602010963968'
p1473
S'sympathy_and_emotional_support'
p1474
sS'511450603747160064'
p1475
S'other_useful_information'
p1476
sS'511447555604246528'
p1477
S'donation_needs_or_offers_or_volunteering_services'
p1478
sS'511452516643786752'
p1479
S'other_useful_information'
p1480
sS'511441925128216576'
p1481
S'infrastructure_and_utilities_damage'
p1482
sS'511442148408197120'
p1483
S'sympathy_and_emotional_support'
p1484
sS'511427271337721856'
p1485
S'not_related_or_irrelevant'
p1486
sS'511458209228267520'
p1487
S'other_useful_information'
p1488
sS'511427066651103233'
p1489
S'infrastructure_and_utilities_damage'
p1490
sS'511442321619951616'
p1491
S'other_useful_information'
p1492
sS'511434527135133697'
p1493
S'missing_trapped_or_found_people'
p1494
sS'511441462844997634'
p1495
S'infrastructure_and_utilities_damage'
p1496
sS'511435981346455553'
p1497
S'other_useful_information'
p1498
sS'511459676341673984'
p1499
S'sympathy_and_emotional_support'
p1500
sS'511451193046888448'
p1501
S'donation_needs_or_offers_or_volunteering_services'
p1502
sS'511456161308999680'
p1503
S'infrastructure_and_utilities_damage'
p1504
sS'511445869179457536'
p1505
S'caution_and_advice'
p1506
sS'511453425628741632'
p1507
S'infrastructure_and_utilities_damage'
p1508
sS'511450014720094210'
p1509
S'donation_needs_or_offers_or_volunteering_services'
p1510
sS'511436304421498880'
p1511
S'other_useful_information'
p1512
sS'511441328828604416'
p1513
S'donation_needs_or_offers_or_volunteering_services'
p1514
sS'511450353335037953'
p1515
S'infrastructure_and_utilities_damage'
p1516
sS'511433855665184768'
p1517
S'infrastructure_and_utilities_damage'
p1518
sS'511455654415204352'
p1519
S'displaced_people_and_evacuations'
p1520
sS'511445189425385472'
p1521
S'infrastructure_and_utilities_damage'
p1522
sS'511437054107197440'
p1523
S'donation_needs_or_offers_or_volunteering_services'
p1524
sS'511440491536084992'
p1525
S'other_useful_information'
p1526
sS'511457412348260352'
p1527
S'sympathy_and_emotional_support'
p1528
sS'511456468789256192'
p1529
S'infrastructure_and_utilities_damage'
p1530
sS'511453701379473408'
p1531
S'other_useful_information'
p1532
sS'511448116243873792'
p1533
S'infrastructure_and_utilities_damage'
p1534
sS'511424411967422464'
p1535
S'donation_needs_or_offers_or_volunteering_services'
p1536
sS'511424800037027840'
p1537
S'sympathy_and_emotional_support'
p1538
sS'511451131344850944'
p1539
S'infrastructure_and_utilities_damage'
p1540
sS'511435471462105088'
p1541
S'other_useful_information'
p1542
sS'511433504903553024'
p1543
S'infrastructure_and_utilities_damage'
p1544
sS'511424949463318528'
p1545
S'sympathy_and_emotional_support'
p1546
sS'511455318581477376'
p1547
S'infrastructure_and_utilities_damage'
p1548
sS'511440924421795840'
p1549
S'displaced_people_and_evacuations'
p1550
sS'511448822888005632'
p1551
S'infrastructure_and_utilities_damage'
p1552
sS'511429647519580160'
p1553
S'other_useful_information'
p1554
sS'511443992392007680'
p1555
S'infrastructure_and_utilities_damage'
p1556
sS'511442449604960256'
p1557
S'infrastructure_and_utilities_damage'
p1558
sS'511443927165988864'
p1559
S'infrastructure_and_utilities_damage'
p1560
sS'511439045834981377'
p1561
S'sympathy_and_emotional_support'
p1562
sS'511441142856941568'
p1563
S'sympathy_and_emotional_support'
p1564
sS'511446732102565889'
p1565
S'infrastructure_and_utilities_damage'
p1566
sS'511438422528262144'
p1567
S'donation_needs_or_offers_or_volunteering_services'
p1568
sS'511431345286160384'
p1569
S'other_useful_information'
p1570
sS'511451511528767489'
p1571
S'infrastructure_and_utilities_damage'
p1572
sS'511438651654692865'
p1573
S'caution_and_advice'
p1574
sS'511428881677447168'
p1575
S'other_useful_information'
p1576
sS'511454225755144192'
p1577
S'displaced_people_and_evacuations'
p1578
sS'511441382653689857'
p1579
S'donation_needs_or_offers_or_volunteering_services'
p1580
sS'511455579638734848'
p1581
S'displaced_people_and_evacuations'
p1582
sS'511450706646028288'
p1583
S'other_useful_information'
p1584
sS'511440773578252288'
p1585
S'displaced_people_and_evacuations'
p1586
sS'511427647952269312'
p1587
S'other_useful_information'
p1588
sS'511456308692676608'
p1589
S'infrastructure_and_utilities_damage'
p1590
sS'511448448844201984'
p1591
S'other_useful_information'
p1592
sS'511426034537742336'
p1593
S'other_useful_information'
p1594
sS'511447620548841472'
p1595
S'other_useful_information'
p1596
sS'511444015997140992'
p1597
S'sympathy_and_emotional_support'
p1598
sS'511445991938355200'
p1599
S'displaced_people_and_evacuations'
p1600
sS'511428439845253120'
p1601
S'infrastructure_and_utilities_damage'
p1602
sS'511443720298708992'
p1603
S'infrastructure_and_utilities_damage'
p1604
sS'511435975814561792'
p1605
S'donation_needs_or_offers_or_volunteering_services'
p1606
sS'511439869038452737'
p1607
S'displaced_people_and_evacuations'
p1608
sS'511438979791470592'
p1609
S'other_useful_information'
p1610
sS'511429217599229952'
p1611
S'infrastructure_and_utilities_damage'
p1612
sS'511435811623956481'
p1613
S'infrastructure_and_utilities_damage'
p1614
sS'511447953576566784'
p1615
S'other_useful_information'
p1616
sS'511426791509336064'
p1617
S'injured_or_dead_people'
p1618
sS'511443120764882944'
p1619
S'infrastructure_and_utilities_damage'
p1620
sS'511433999714385920'
p1621
S'displaced_people_and_evacuations'
p1622
sS'511454877198082048'
p1623
S'infrastructure_and_utilities_damage'
p1624
sS'511431051759984640'
p1625
S'infrastructure_and_utilities_damage'
p1626
sS'511456393392816129'
p1627
S'infrastructure_and_utilities_damage'
p1628
sS'511426197507825664'
p1629
S'infrastructure_and_utilities_damage'
p1630
sS'511433334120275968'
p1631
S'sympathy_and_emotional_support'
p1632
sS'511439733357293568'
p1633
S'other_useful_information'
p1634
sS'511456635706175488'
p1635
S'donation_needs_or_offers_or_volunteering_services'
p1636
sS'511446320272637952'
p1637
S'infrastructure_and_utilities_damage'
p1638
sS'511453351498612736'
p1639
S'infrastructure_and_utilities_damage'
p1640
sS'511456414200393729'
p1641
S'infrastructure_and_utilities_damage'
p1642
sS'511445721304662016'
p1643
S'displaced_people_and_evacuations'
p1644
sS'511423669357117440'
p1645
S'infrastructure_and_utilities_damage'
p1646
sS'511441251909242880'
p1647
S'infrastructure_and_utilities_damage'
p1648
sS'511441367772315648'
p1649
S'displaced_people_and_evacuations'
p1650
sS'511427868908609536'
p1651
S'infrastructure_and_utilities_damage'
p1652
sS'511450431063875584'
p1653
S'infrastructure_and_utilities_damage'
p1654
sS'511442418101518336'
p1655
S'infrastructure_and_utilities_damage'
p1656
sS'511428407578877952'
p1657
S'injured_or_dead_people'
p1658
sS'511450591071961088'
p1659
S'other_useful_information'
p1660
sS'511429403381731328'
p1661
S'infrastructure_and_utilities_damage'
p1662
sS'511428161943666688'
p1663
S'infrastructure_and_utilities_damage'
p1664
sS'511456379966464002'
p1665
S'infrastructure_and_utilities_damage'
p1666
sS'511424632080314369'
p1667
S'other_useful_information'
p1668
sS'511455510923448322'
p1669
S'other_useful_information'
p1670
sS'511457344493211648'
p1671
S'sympathy_and_emotional_support'
p1672
sS'511457322590539776'
p1673
S'infrastructure_and_utilities_damage'
p1674
sS'511440925537484802'
p1675
S'infrastructure_and_utilities_damage'
p1676
sS'511459236702744576'
p1677
S'other_useful_information'
p1678
sS'511429331449819136'
p1679
S'donation_needs_or_offers_or_volunteering_services'
p1680
sS'511443349979422720'
p1681
S'infrastructure_and_utilities_damage'
p1682
sS'511436227187580928'
p1683
S'displaced_people_and_evacuations'
p1684
sS'511457277916635136'
p1685
S'donation_needs_or_offers_or_volunteering_services'
p1686
sS'511447847531982849'
p1687
S'infrastructure_and_utilities_damage'
p1688
sS'511443667631243264'
p1689
S'displaced_people_and_evacuations'
p1690
sS'511454216657715200'
p1691
S'injured_or_dead_people'
p1692
sS'511452192185004033'
p1693
S'sympathy_and_emotional_support'
p1694
sS'511425969328885760'
p1695
S'injured_or_dead_people'
p1696
sS'511451638222311424'
p1697
S'infrastructure_and_utilities_damage'
p1698
sS'511454776341843968'
p1699
S'other_useful_information'
p1700
sS'511430924710338560'
p1701
S'other_useful_information'
p1702
sS'511426410053787648'
p1703
S'displaced_people_and_evacuations'
p1704
sS'511452609786298368'
p1705
S'infrastructure_and_utilities_damage'
p1706
sS'511447288166617088'
p1707
S'infrastructure_and_utilities_damage'
p1708
sS'511442420341297152'
p1709
S'infrastructure_and_utilities_damage'
p1710
sS'511455511099621377'
p1711
S'displaced_people_and_evacuations'
p1712
sS'511455205897281536'
p1713
S'infrastructure_and_utilities_damage'
p1714
sS'511443860661100544'
p1715
S'sympathy_and_emotional_support'
p1716
sS'511442431485562880'
p1717
S'sympathy_and_emotional_support'
p1718
sS'511437589409067008'
p1719
S'displaced_people_and_evacuations'
p1720
sS'511428894310662144'
p1721
S'infrastructure_and_utilities_damage'
p1722
sS'511446660317065216'
p1723
S'other_useful_information'
p1724
sS'511456141209911296'
p1725
S'infrastructure_and_utilities_damage'
p1726
sS'511436123902857216'
p1727
S'infrastructure_and_utilities_damage'
p1728
sS'511445252591202304'
p1729
S'displaced_people_and_evacuations'
p1730
sS'511440922165248001'
p1731
S'donation_needs_or_offers_or_volunteering_services'
p1732
sS'511447034016980992'
p1733
S'not_related_or_irrelevant'
p1734
sS'511450880164388865'
p1735
S'displaced_people_and_evacuations'
p1736
sS'511438492862541824'
p1737
S'infrastructure_and_utilities_damage'
p1738
sS'511434249526726657'
p1739
S'caution_and_advice'
p1740
sS'511446685541597184'
p1741
S'infrastructure_and_utilities_damage'
p1742
sS'511423925801066496'
p1743
S'infrastructure_and_utilities_damage'
p1744
sS'511456377403740160'
p1745
S'infrastructure_and_utilities_damage'
p1746
sS'511426792645619712'
p1747
S'other_useful_information'
p1748
sS'511453086859427840'
p1749
S'infrastructure_and_utilities_damage'
p1750
sS'511447699179044864'
p1751
S'infrastructure_and_utilities_damage'
p1752
sS'511445602194845696'
p1753
S'displaced_people_and_evacuations'
p1754
sS'511431267662196736'
p1755
S'donation_needs_or_offers_or_volunteering_services'
p1756
sS'511452287080747011'
p1757
S'infrastructure_and_utilities_damage'
p1758
sS'511456457972125696'
p1759
S'sympathy_and_emotional_support'
p1760
sS'511444717922693120'
p1761
S'donation_needs_or_offers_or_volunteering_services'
p1762
sS'511440327241371649'
p1763
S'infrastructure_and_utilities_damage'
p1764
sS'511456477341835264'
p1765
S'other_useful_information'
p1766
sS'511428505125806080'
p1767
S'donation_needs_or_offers_or_volunteering_services'
p1768
sS'511424967582691329'
p1769
S'infrastructure_and_utilities_damage'
p1770
sS'511436951870636032'
p1771
S'caution_and_advice'
p1772
sS'511440734579216384'
p1773
S'infrastructure_and_utilities_damage'
p1774
sS'511442173863424000'
p1775
S'infrastructure_and_utilities_damage'
p1776
sS'511447612440866816'
p1777
S'sympathy_and_emotional_support'
p1778
sS'511440014514089984'
p1779
S'infrastructure_and_utilities_damage'
p1780
sS'511448558311321601'
p1781
S'other_useful_information'
p1782
sS'511446597667147776'
p1783
S'donation_needs_or_offers_or_volunteering_services'
p1784
sS'511459395096432640'
p1785
S'displaced_people_and_evacuations'
p1786
sS'511436328509382657'
p1787
S'other_useful_information'
p1788
sS'511428079449690112'
p1789
S'other_useful_information'
p1790
sS'511428558150184960'
p1791
S'infrastructure_and_utilities_damage'
p1792
sS'511443128880881664'
p1793
S'other_useful_information'
p1794
sS'511442674809708544'
p1795
S'infrastructure_and_utilities_damage'
p1796
sS'511443108069126145'
p1797
S'infrastructure_and_utilities_damage'
p1798
sS'511426920031211520'
p1799
S'infrastructure_and_utilities_damage'
p1800
sS'511458256074465280'
p1801
S'infrastructure_and_utilities_damage'
p1802
sS'511447399101771776'
p1803
S'infrastructure_and_utilities_damage'
p1804
sS'511454695651823616'
p1805
S'infrastructure_and_utilities_damage'
p1806
sS'511449409100713984'
p1807
S'infrastructure_and_utilities_damage'
p1808
sS'511443130181120000'
p1809
S'injured_or_dead_people'
p1810
sS'511440560138502144'
p1811
S'not_related_or_irrelevant'
p1812
sS'511442397725618177'
p1813
S'donation_needs_or_offers_or_volunteering_services'
p1814
sS'511453851417718784'
p1815
S'infrastructure_and_utilities_damage'
p1816
sS'511435748432945153'
p1817
S'other_useful_information'
p1818
sS'511439052965294080'
p1819
S'not_related_or_irrelevant'
p1820
sS'511443399694495744'
p1821
S'donation_needs_or_offers_or_volunteering_services'
p1822
sS'511450177157087232'
p1823
S'infrastructure_and_utilities_damage'
p1824
sS'511424365817499648'
p1825
S'other_useful_information'
p1826
sS'511434549503754240'
p1827
S'infrastructure_and_utilities_damage'
p1828
sS'511427671796899840'
p1829
S'infrastructure_and_utilities_damage'
p1830
sS'511437791927209984'
p1831
S'displaced_people_and_evacuations'
p1832
sS'511453642340458496'
p1833
S'other_useful_information'
p1834
sS'511424088795930625'
p1835
S'donation_needs_or_offers_or_volunteering_services'
p1836
sS'511423646661754880'
p1837
S'displaced_people_and_evacuations'
p1838
sS'511438492597878784'
p1839
S'donation_needs_or_offers_or_volunteering_services'
p1840
sS'511427439193366528'
p1841
S'donation_needs_or_offers_or_volunteering_services'
p1842
sS'511448434428375040'
p1843
S'infrastructure_and_utilities_damage'
p1844
sS'511457086249906176'
p1845
S'donation_needs_or_offers_or_volunteering_services'
p1846
sS'511455093611569152'
p1847
S'infrastructure_and_utilities_damage'
p1848
sS'511440956781252608'
p1849
S'sympathy_and_emotional_support'
p1850
sS'511447198224363520'
p1851
S'donation_needs_or_offers_or_volunteering_services'
p1852
sS'511432915562274816'
p1853
S'infrastructure_and_utilities_damage'
p1854
sS'511457426738929665'
p1855
S'other_useful_information'
p1856
sS'511456938039975936'
p1857
S'other_useful_information'
p1858
sS'511448265481797633'
p1859
S'donation_needs_or_offers_or_volunteering_services'
p1860
sS'511438323337150464'
p1861
S'infrastructure_and_utilities_damage'
p1862
sS'511449097211895808'
p1863
S'infrastructure_and_utilities_damage'
p1864
sS'511432902232383488'
p1865
S'other_useful_information'
p1866
sS'511442754208292864'
p1867
S'donation_needs_or_offers_or_volunteering_services'
p1868
sS'511455759595761664'
p1869
S'infrastructure_and_utilities_damage'
p1870
sS'511427666424000513'
p1871
S'infrastructure_and_utilities_damage'
p1872
sS'511448839245402112'
p1873
S'injured_or_dead_people'
p1874
sS'511423668027531265'
p1875
S'not_related_or_irrelevant'
p1876
sS'511450409060552705'
p1877
S'donation_needs_or_offers_or_volunteering_services'
p1878
sS'511434635122081792'
p1879
S'sympathy_and_emotional_support'
p1880
sS'511429081611898880'
p1881
S'other_useful_information'
p1882
sS'511440486792699904'
p1883
S'other_useful_information'
p1884
sS'511448480762433536'
p1885
S'displaced_people_and_evacuations'
p1886
sS'511429808132485120'
p1887
S'infrastructure_and_utilities_damage'
p1888
sS'511459522003865601'
p1889
S'other_useful_information'
p1890
sS'511439778143682561'
p1891
S'other_useful_information'
p1892
sS'511439835689926656'
p1893
S'displaced_people_and_evacuations'
p1894
sS'511428143404417024'
p1895
S'other_useful_information'
p1896
sS'511426856487092224'
p1897
S'infrastructure_and_utilities_damage'
p1898
sS'511441335661117440'
p1899
S'donation_needs_or_offers_or_volunteering_services'
p1900
sS'511438318051921920'
p1901
S'infrastructure_and_utilities_damage'
p1902
sS'511454380575694848'
p1903
S'infrastructure_and_utilities_damage'
p1904
sS'511449552545923072'
p1905
S'other_useful_information'
p1906
sS'511431254248398848'
p1907
S'displaced_people_and_evacuations'
p1908
sS'511437716597125120'
p1909
S'donation_needs_or_offers_or_volunteering_services'
p1910
sS'511445387689721856'
p1911
S'infrastructure_and_utilities_damage'
p1912
sS'511453445069352960'
p1913
S'infrastructure_and_utilities_damage'
p1914
sS'511437669256032256'
p1915
S'displaced_people_and_evacuations'
p1916
sS'511445104201326592'
p1917
S'infrastructure_and_utilities_damage'
p1918
sS'511440984748871680'
p1919
S'infrastructure_and_utilities_damage'
p1920
sS'511428093807198208'
p1921
S'other_useful_information'
p1922
sS'511441643526840321'
p1923
S'other_useful_information'
p1924
sS'511453385351266304'
p1925
S'infrastructure_and_utilities_damage'
p1926
sS'511447194881110017'
p1927
S'caution_and_advice'
p1928
sS'511432343899607040'
p1929
S'infrastructure_and_utilities_damage'
p1930
sS'511432250093621249'
p1931
S'donation_needs_or_offers_or_volunteering_services'
p1932
sS'511430582362853376'
p1933
S'other_useful_information'
p1934
sS'511447697723645952'
p1935
S'sympathy_and_emotional_support'
p1936
sS'511456393530855424'
p1937
S'donation_needs_or_offers_or_volunteering_services'
p1938
sS'511447913768435712'
p1939
S'donation_needs_or_offers_or_volunteering_services'
p1940
sS'511430659496480769'
p1941
S'other_useful_information'
p1942
sS'511440330655555585'
p1943
S'not_related_or_irrelevant'
p1944
sS'511444901343399936'
p1945
S'infrastructure_and_utilities_damage'
p1946
sS'511458908800823297'
p1947
S'infrastructure_and_utilities_damage'
p1948
sS'511430837347160064'
p1949
S'other_useful_information'
p1950
sS'511444811497607168'
p1951
S'displaced_people_and_evacuations'
p1952
sS'511431278298927104'
p1953
S'infrastructure_and_utilities_damage'
p1954
sS'511439582181986304'
p1955
S'donation_needs_or_offers_or_volunteering_services'
p1956
sS'511454602504720384'
p1957
S'other_useful_information'
p1958
sS'511448562396590080'
p1959
S'displaced_people_and_evacuations'
p1960
sS'511426818860400640'
p1961
S'infrastructure_and_utilities_damage'
p1962
sS'511456413910986753'
p1963
S'sympathy_and_emotional_support'
p1964
sS'511454946970324992'
p1965
S'caution_and_advice'
p1966
sS'511443980962496512'
p1967
S'infrastructure_and_utilities_damage'
p1968
sS'511438954349232129'
p1969
S'infrastructure_and_utilities_damage'
p1970
sS'511441709763272705'
p1971
S'other_useful_information'
p1972
sS'511426632033505280'
p1973
S'donation_needs_or_offers_or_volunteering_services'
p1974
sS'511451030727307265'
p1975
S'infrastructure_and_utilities_damage'
p1976
sS'511441193108922369'
p1977
S'other_useful_information'
p1978
sS'511437834881101824'
p1979
S'infrastructure_and_utilities_damage'
p1980
sS'511434782987665408'
p1981
S'infrastructure_and_utilities_damage'
p1982
sS'511438562084917248'
p1983
S'donation_needs_or_offers_or_volunteering_services'
p1984
sS'511453404950822913'
p1985
S'other_useful_information'
p1986
sS'511458922226802688'
p1987
S'donation_needs_or_offers_or_volunteering_services'
p1988
sS'511439045075820545'
p1989
S'other_useful_information'
p1990
sS'511456319031635968'
p1991
S'donation_needs_or_offers_or_volunteering_services'
p1992
sS'511423241173630976'
p1993
S'infrastructure_and_utilities_damage'
p1994
sS'511424009356206080'
p1995
S'infrastructure_and_utilities_damage'
p1996
sS'511453183747452928'
p1997
S'sympathy_and_emotional_support'
p1998
sS'511443124564938752'
p1999
S'infrastructure_and_utilities_damage'
p2000
sS'511435832411312128'
p2001
S'infrastructure_and_utilities_damage'
p2002
sS'511455461670146048'
p2003
S'displaced_people_and_evacuations'
p2004
sS'511427449385910272'
p2005
S'other_useful_information'
p2006
sS'511438097150930944'
p2007
S'infrastructure_and_utilities_damage'
p2008
sS'511433345972961280'
p2009
S'other_useful_information'
p2010
sS'511423528734691328'
p2011
S'infrastructure_and_utilities_damage'
p2012
sS'511449219912458240'
p2013
S'displaced_people_and_evacuations'
p2014
sS'511446558370312192'
p2015
S'donation_needs_or_offers_or_volunteering_services'
p2016
sS'511446851430924288'
p2017
S'other_useful_information'
p2018
sS'511445233058742272'
p2019
S'other_useful_information'
p2020
sS'511433113272999936'
p2021
S'other_useful_information'
p2022
sS'511449630643875840'
p2023
S'infrastructure_and_utilities_damage'
p2024
sS'511424758538182656'
p2025
S'sympathy_and_emotional_support'
p2026
sS'511455307676274688'
p2027
S'donation_needs_or_offers_or_volunteering_services'
p2028
sS'511442392172343296'
p2029
S'displaced_people_and_evacuations'
p2030
sS'511423889071558656'
p2031
S'caution_and_advice'
p2032
sS'511458171144372224'
p2033
S'donation_needs_or_offers_or_volunteering_services'
p2034
sS'511451180112031746'
p2035
S'infrastructure_and_utilities_damage'
p2036
sS'511447565901238272'
p2037
S'infrastructure_and_utilities_damage'
p2038
sS'511459623644041216'
p2039
S'displaced_people_and_evacuations'
p2040
sS'511459233855197184'
p2041
S'displaced_people_and_evacuations'
p2042
sS'511437395494203392'
p2043
S'not_related_or_irrelevant'
p2044
sS'511446921995890689'
p2045
S'infrastructure_and_utilities_damage'
p2046
sS'511437131818885120'
p2047
S'other_useful_information'
p2048
sS'511455281704759297'
p2049
S'injured_or_dead_people'
p2050
sS'511426791269879808'
p2051
S'caution_and_advice'
p2052
sS'511446094845206528'
p2053
S'infrastructure_and_utilities_damage'
p2054
sS'511438863504375809'
p2055
S'infrastructure_and_utilities_damage'
p2056
sS'511440666833195008'
p2057
S'infrastructure_and_utilities_damage'
p2058
sS'511446938302955520'
p2059
S'infrastructure_and_utilities_damage'
p2060
sS'511426777630380032'
p2061
S'infrastructure_and_utilities_damage'
p2062
sS'511427039102922752'
p2063
S'other_useful_information'
p2064
sS'511433975592914944'
p2065
S'other_useful_information'
p2066
sS'511424408158613504'
p2067
S'other_useful_information'
p2068
sS'511437413210931200'
p2069
S'infrastructure_and_utilities_damage'
p2070
sS'511449201520414720'
p2071
S'donation_needs_or_offers_or_volunteering_services'
p2072
sS'511458472949714944'
p2073
S'displaced_people_and_evacuations'
p2074
sS'511428138081857536'
p2075
S'sympathy_and_emotional_support'
p2076
sS'511426431478669312'
p2077
S'infrastructure_and_utilities_damage'
p2078
sS'511427323812663296'
p2079
S'infrastructure_and_utilities_damage'
p2080
sS'511429643866341376'
p2081
S'infrastructure_and_utilities_damage'
p2082
sS'511447490164297730'
p2083
S'infrastructure_and_utilities_damage'
p2084
sS'511455180366159872'
p2085
S'donation_needs_or_offers_or_volunteering_services'
p2086
sS'511438216910880768'
p2087
S'infrastructure_and_utilities_damage'
p2088
sS'511457262708064256'
p2089
S'sympathy_and_emotional_support'
p2090
sS'511441320091860992'
p2091
S'other_useful_information'
p2092
sS'511449997871972352'
p2093
S'infrastructure_and_utilities_damage'
p2094
sS'511448217351770112'
p2095
S'infrastructure_and_utilities_damage'
p2096
sS'511449715326861312'
p2097
S'infrastructure_and_utilities_damage'
p2098
sS'511439459741474817'
p2099
S'sympathy_and_emotional_support'
p2100
sS'511455288981872641'
p2101
S'donation_needs_or_offers_or_volunteering_services'
p2102
sS'511431970937507840'
p2103
S'injured_or_dead_people'
p2104
sS'511428529507303424'
p2105
S'other_useful_information'
p2106
sS'511454500570542081'
p2107
S'donation_needs_or_offers_or_volunteering_services'
p2108
sS'511423131605430272'
p2109
S'injured_or_dead_people'
p2110
sS'511455519316656130'
p2111
S'infrastructure_and_utilities_damage'
p2112
sS'511455395819585536'
p2113
S'displaced_people_and_evacuations'
p2114
sS'511446884204830720'
p2115
S'other_useful_information'
p2116
sS'511426703877750784'
p2117
S'infrastructure_and_utilities_damage'
p2118
sS'511459416793575424'
p2119
S'missing_trapped_or_found_people'
p2120
sS'511433290381664256'
p2121
S'caution_and_advice'
p2122
sS'511437489278427136'
p2123
S'other_useful_information'
p2124
sS'511434219261034496'
p2125
S'sympathy_and_emotional_support'
p2126
sS'511447743425167360'
p2127
S'infrastructure_and_utilities_damage'
p2128
sS'511446932955226113'
p2129
S'infrastructure_and_utilities_damage'
p2130
sS'511458807416094720'
p2131
S'donation_needs_or_offers_or_volunteering_services'
p2132
sS'511424708798332929'
p2133
S'sympathy_and_emotional_support'
p2134
sS'511445641051267072'
p2135
S'sympathy_and_emotional_support'
p2136
sS'511449953424924672'
p2137
S'infrastructure_and_utilities_damage'
p2138
sS'511433743576223746'
p2139
S'infrastructure_and_utilities_damage'
p2140
sS'511432214320807936'
p2141
S'sympathy_and_emotional_support'
p2142
sS'511428015020990464'
p2143
S'sympathy_and_emotional_support'
p2144
sS'511424127123480576'
p2145
S'infrastructure_and_utilities_damage'
p2146
sS'511436979024973825'
p2147
S'other_useful_information'
p2148
sS'511440505612550145'
p2149
S'other_useful_information'
p2150
sS'511455348667219968'
p2151
S'infrastructure_and_utilities_damage'
p2152
sS'511431204650745856'
p2153
S'infrastructure_and_utilities_damage'
p2154
sS'511437131768553472'
p2155
S'not_related_or_irrelevant'
p2156
sS'511452877593001984'
p2157
S'other_useful_information'
p2158
sS'511435742837362688'
p2159
S'infrastructure_and_utilities_damage'
p2160
sS'511430264065904640'
p2161
S'other_useful_information'
p2162
sS'511448187518058496'
p2163
S'caution_and_advice'
p2164
sS'511456171262099456'
p2165
S'infrastructure_and_utilities_damage'
p2166
sS'511445168839348224'
p2167
S'infrastructure_and_utilities_damage'
p2168
sS'511453416631975936'
p2169
S'donation_needs_or_offers_or_volunteering_services'
p2170
sS'511436776502611968'
p2171
S'donation_needs_or_offers_or_volunteering_services'
p2172
sS'511454427082145792'
p2173
S'displaced_people_and_evacuations'
p2174
sS'511438594670485504'
p2175
S'injured_or_dead_people'
p2176
sS'511446575395000320'
p2177
S'donation_needs_or_offers_or_volunteering_services'
p2178
sS'511450536197894144'
p2179
S'donation_needs_or_offers_or_volunteering_services'
p2180
sS'511424310712344576'
p2181
S'infrastructure_and_utilities_damage'
p2182
sS'511438587150086144'
p2183
S'displaced_people_and_evacuations'
p2184
sS'511433487417491457'
p2185
S'other_useful_information'
p2186
sS'511428829118607360'
p2187
S'other_useful_information'
p2188
sS'511456580957900801'
p2189
S'donation_needs_or_offers_or_volunteering_services'
p2190
sS'511454388175777793'
p2191
S'infrastructure_and_utilities_damage'
p2192
sS'511449379493142528'
p2193
S'other_useful_information'
p2194
sS'511442094376751105'
p2195
S'infrastructure_and_utilities_damage'
p2196
sS'511441292287430656'
p2197
S'displaced_people_and_evacuations'
p2198
sS'511440959918587904'
p2199
S'not_related_or_irrelevant'
p2200
sS'511445228986068992'
p2201
S'other_useful_information'
p2202
sS'511426042779938818'
p2203
S'infrastructure_and_utilities_damage'
p2204
sS'511431007971856384'
p2205
S'other_useful_information'
p2206
sS'511445912821202944'
p2207
S'infrastructure_and_utilities_damage'
p2208
sS'511447871158484992'
p2209
S'donation_needs_or_offers_or_volunteering_services'
p2210
sS'511441185060433921'
p2211
S'sympathy_and_emotional_support'
p2212
sS'511436688027951106'
p2213
S'infrastructure_and_utilities_damage'
p2214
sS'511448306354892801'
p2215
S'other_useful_information'
p2216
sS'511436190138912768'
p2217
S'infrastructure_and_utilities_damage'
p2218
sS'511455493831684096'
p2219
S'displaced_people_and_evacuations'
p2220
sS'511441613839941633'
p2221
S'infrastructure_and_utilities_damage'
p2222
sS'511447681886326784'
p2223
S'infrastructure_and_utilities_damage'
p2224
sS'511427868136468480'
p2225
S'infrastructure_and_utilities_damage'
p2226
sS'511425860721590272'
p2227
S'infrastructure_and_utilities_damage'
p2228
sS'511429651101519873'
p2229
S'other_useful_information'
p2230
sS'511446174340239360'
p2231
S'infrastructure_and_utilities_damage'
p2232
sS'511430158289731584'
p2233
S'infrastructure_and_utilities_damage'
p2234
sS'511442744284573697'
p2235
S'other_useful_information'
p2236
sS'511456758792208384'
p2237
S'infrastructure_and_utilities_damage'
p2238
sS'511431940801441792'
p2239
S'other_useful_information'
p2240
sS'511446134787960832'
p2241
S'other_useful_information'
p2242
sS'511442278846459904'
p2243
S'displaced_people_and_evacuations'
p2244
sS'511447393045188608'
p2245
S'infrastructure_and_utilities_damage'
p2246
sS'511457381469782016'
p2247
S'infrastructure_and_utilities_damage'
p2248
sS'511453118463107072'
p2249
S'donation_needs_or_offers_or_volunteering_services'
p2250
sS'511444581498753024'
p2251
S'other_useful_information'
p2252
sS'511456531309924352'
p2253
S'infrastructure_and_utilities_damage'
p2254
sS'511448365671133184'
p2255
S'displaced_people_and_evacuations'
p2256
sS'511430543561326592'
p2257
S'donation_needs_or_offers_or_volunteering_services'
p2258
sS'511452070512431104'
p2259
S'sympathy_and_emotional_support'
p2260
sS'511446675689185280'
p2261
S'infrastructure_and_utilities_damage'
p2262
sS'511442402888798208'
p2263
S'infrastructure_and_utilities_damage'
p2264
sS'511459200594345984'
p2265
S'infrastructure_and_utilities_damage'
p2266
sS'511432308373856256'
p2267
S'infrastructure_and_utilities_damage'
p2268
sS'511456293496700928'
p2269
S'missing_trapped_or_found_people'
p2270
sS'511431303116255233'
p2271
S'other_useful_information'
p2272
sS'511424340449951744'
p2273
S'other_useful_information'
p2274
sS'511451114638942208'
p2275
S'other_useful_information'
p2276
sS'511448365687926784'
p2277
S'other_useful_information'
p2278
sS'511452578001874944'
p2279
S'donation_needs_or_offers_or_volunteering_services'
p2280
sS'511448345257447424'
p2281
S'displaced_people_and_evacuations'
p2282
sS'511444061178585088'
p2283
S'infrastructure_and_utilities_damage'
p2284
sS'511451822028910593'
p2285
S'other_useful_information'
p2286
sS'511447421902405632'
p2287
S'donation_needs_or_offers_or_volunteering_services'
p2288
sS'511441157667442689'
p2289
S'displaced_people_and_evacuations'
p2290
sS'511445857712226304'
p2291
S'donation_needs_or_offers_or_volunteering_services'
p2292
sS'511440947922870272'
p2293
S'infrastructure_and_utilities_damage'
p2294
sS'511453089606668288'
p2295
S'displaced_people_and_evacuations'
p2296
sS'511454801901527042'
p2297
S'displaced_people_and_evacuations'
p2298
sS'511445683258138624'
p2299
S'infrastructure_and_utilities_damage'
p2300
sS'511441399636828160'
p2301
S'infrastructure_and_utilities_damage'
p2302
sS'511435979723243520'
p2303
S'infrastructure_and_utilities_damage'
p2304
sS'511423939138961408'
p2305
S'infrastructure_and_utilities_damage'
p2306
sS'511450652589817858'
p2307
S'sympathy_and_emotional_support'
p2308
sS'511429245869244417'
p2309
S'sympathy_and_emotional_support'
p2310
sS'511456156653326336'
p2311
S'infrastructure_and_utilities_damage'
p2312
sS'511457043577061376'
p2313
S'injured_or_dead_people'
p2314
sS'511442350623977473'
p2315
S'donation_needs_or_offers_or_volunteering_services'
p2316
sS'511434776944058368'
p2317
S'caution_and_advice'
p2318
sS'511436831075106816'
p2319
S'other_useful_information'
p2320
sS'511424200876097536'
p2321
S'sympathy_and_emotional_support'
p2322
sS'511440725138227201'
p2323
S'other_useful_information'
p2324
sS'511448535456555008'
p2325
S'sympathy_and_emotional_support'
p2326
sS'511443519043825664'
p2327
S'sympathy_and_emotional_support'
p2328
sS'511424552338214912'
p2329
S'infrastructure_and_utilities_damage'
p2330
sS'511443815589511168'
p2331
S'not_related_or_irrelevant'
p2332
sS'511442756880039936'
p2333
S'other_useful_information'
p2334
sS'511448654469926912'
p2335
S'displaced_people_and_evacuations'
p2336
sS'511431665722204160'
p2337
S'infrastructure_and_utilities_damage'
p2338
sS'511437105042427904'
p2339
S'other_useful_information'
p2340
sS'511437612750368768'
p2341
S'donation_needs_or_offers_or_volunteering_services'
p2342
sS'511437362564329472'
p2343
S'other_useful_information'
p2344
sS'511431234292305921'
p2345
S'infrastructure_and_utilities_damage'
p2346
sS'511425138269908992'
p2347
S'not_related_or_irrelevant'
p2348
sS'511440297524731904'
p2349
S'infrastructure_and_utilities_damage'
p2350
sS'511446937196040192'
p2351
S'infrastructure_and_utilities_damage'
p2352
sS'511448803384098816'
p2353
S'infrastructure_and_utilities_damage'
p2354
sS'511446720237305857'
p2355
S'infrastructure_and_utilities_damage'
p2356
sS'511444614343950336'
p2357
S'other_useful_information'
p2358
sS'511428506254065665'
p2359
S'infrastructure_and_utilities_damage'
p2360
sS'511457427183529984'
p2361
S'infrastructure_and_utilities_damage'
p2362
sS'511445534625005568'
p2363
S'infrastructure_and_utilities_damage'
p2364
sS'511448279239118848'
p2365
S'infrastructure_and_utilities_damage'
p2366
sS'511430222915567616'
p2367
S'infrastructure_and_utilities_damage'
p2368
sS'511459405041512448'
p2369
S'infrastructure_and_utilities_damage'
p2370
sS'511438783581941760'
p2371
S'infrastructure_and_utilities_damage'
p2372
sS'511451887875674112'
p2373
S'infrastructure_and_utilities_damage'
p2374
sS'511452656460922880'
p2375
S'sympathy_and_emotional_support'
p2376
sS'511444377609441281'
p2377
S'caution_and_advice'
p2378
sS'511451908822024192'
p2379
S'injured_or_dead_people'
p2380
sS'511450628300615680'
p2381
S'donation_needs_or_offers_or_volunteering_services'
p2382
sS'511443414949171201'
p2383
S'sympathy_and_emotional_support'
p2384
sS'511426931347447809'
p2385
S'infrastructure_and_utilities_damage'
p2386
sS'511457287660388352'
p2387
S'other_useful_information'
p2388
sS'511433645869912065'
p2389
S'injured_or_dead_people'
p2390
sS'511442269128634368'
p2391
S'infrastructure_and_utilities_damage'
p2392
sS'511432888576131073'
p2393
S'caution_and_advice'
p2394
sS'511449607461539840'
p2395
S'not_related_or_irrelevant'
p2396
sS'511442285729701888'
p2397
S'sympathy_and_emotional_support'
p2398
sS'511452238166765568'
p2399
S'other_useful_information'
p2400
sS'511434522731495424'
p2401
S'infrastructure_and_utilities_damage'
p2402
sS'511424259722604544'
p2403
S'infrastructure_and_utilities_damage'
p2404
sS'511428156348063745'
p2405
S'injured_or_dead_people'
p2406
sS'511445814796103680'
p2407
S'infrastructure_and_utilities_damage'
p2408
sS'511442201453527040'
p2409
S'infrastructure_and_utilities_damage'
p2410
sS'511450430594113536'
p2411
S'caution_and_advice'
p2412
sS'511427354905042944'
p2413
S'donation_needs_or_offers_or_volunteering_services'
p2414
sS'511446947710767105'
p2415
S'displaced_people_and_evacuations'
p2416
sS'511451696011046912'
p2417
S'donation_needs_or_offers_or_volunteering_services'
p2418
sS'511447803613442048'
p2419
S'donation_needs_or_offers_or_volunteering_services'
p2420
sS'511425424941789184'
p2421
S'sympathy_and_emotional_support'
p2422
sS'511428643843616769'
p2423
S'infrastructure_and_utilities_damage'
p2424
sS'511444971292221441'
p2425
S'displaced_people_and_evacuations'
p2426
sS'511443643031629824'
p2427
S'missing_trapped_or_found_people'
p2428
sS'511440714740535296'
p2429
S'donation_needs_or_offers_or_volunteering_services'
p2430
sS'511450398088249344'
p2431
S'infrastructure_and_utilities_damage'
p2432
sS'511428093576105985'
p2433
S'infrastructure_and_utilities_damage'
p2434
sS'511432077418303488'
p2435
S'other_useful_information'
p2436
sS'511438350683627520'
p2437
S'infrastructure_and_utilities_damage'
p2438
sS'511438717047681024'
p2439
S'other_useful_information'
p2440
sS'511454379711660033'
p2441
S'infrastructure_and_utilities_damage'
p2442
sS'511444174554411010'
p2443
S'infrastructure_and_utilities_damage'
p2444
sS'511440925466177536'
p2445
S'infrastructure_and_utilities_damage'
p2446
sS'511437986907844608'
p2447
S'infrastructure_and_utilities_damage'
p2448
sS'511441932883881984'
p2449
S'other_useful_information'
p2450
sS'511439526036639744'
p2451
S'donation_needs_or_offers_or_volunteering_services'
p2452
sS'511431244857356289'
p2453
S'other_useful_information'
p2454
sS'511437355740172288'
p2455
S'infrastructure_and_utilities_damage'
p2456
sS'511427996411265024'
p2457
S'infrastructure_and_utilities_damage'
p2458
sS'511441241909649408'
p2459
S'caution_and_advice'
p2460
sS'511445762644140032'
p2461
S'sympathy_and_emotional_support'
p2462
sS'511440600487690240'
p2463
S'other_useful_information'
p2464
sS'511440891777908736'
p2465
S'not_related_or_irrelevant'
p2466
sS'511431292886724609'
p2467
S'infrastructure_and_utilities_damage'
p2468
sS'511454965932367872'
p2469
S'missing_trapped_or_found_people'
p2470
sS'511447847536173056'
p2471
S'sympathy_and_emotional_support'
p2472
sS'511437410333646848'
p2473
S'other_useful_information'
p2474
sS'511444406575333377'
p2475
S'other_useful_information'
p2476
sS'511436054248034304'
p2477
S'displaced_people_and_evacuations'
p2478
sS'511449767365193728'
p2479
S'infrastructure_and_utilities_damage'
p2480
sS'511430857505378304'
p2481
S'infrastructure_and_utilities_damage'
p2482
sS'511445786823884800'
p2483
S'infrastructure_and_utilities_damage'
p2484
sS'511425043621232640'
p2485
S'other_useful_information'
p2486
sS'511456442893627392'
p2487
S'infrastructure_and_utilities_damage'
p2488
sS'511439490456768512'
p2489
S'other_useful_information'
p2490
sS'511431380190781440'
p2491
S'other_useful_information'
p2492
sS'511428413153087488'
p2493
S'sympathy_and_emotional_support'
p2494
sS'511449130288177153'
p2495
S'donation_needs_or_offers_or_volunteering_services'
p2496
sS'511431686085967872'
p2497
S'displaced_people_and_evacuations'
p2498
sS'511426703080845312'
p2499
S'injured_or_dead_people'
p2500
sS'511447095635476480'
p2501
S'other_useful_information'
p2502
sS'511443341011976193'
p2503
S'donation_needs_or_offers_or_volunteering_services'
p2504
sS'511454389773410304'
p2505
S'other_useful_information'
p2506
sS'511430931161169921'
p2507
S'infrastructure_and_utilities_damage'
p2508
sS'511435814363234304'
p2509
S'sympathy_and_emotional_support'
p2510
sS'511459281292361728'
p2511
S'other_useful_information'
p2512
sS'511451751401021441'
p2513
S'injured_or_dead_people'
p2514
sS'511438133251305472'
p2515
S'displaced_people_and_evacuations'
p2516
sS'511443100015656960'
p2517
S'infrastructure_and_utilities_damage'
p2518
sS'511445371265232896'
p2519
S'infrastructure_and_utilities_damage'
p2520
sS'511445711461040128'
p2521
S'infrastructure_and_utilities_damage'
p2522
sS'511428886320541696'
p2523
S'caution_and_advice'
p2524
sS'511448035411623936'
p2525
S'donation_needs_or_offers_or_volunteering_services'
p2526
sS'511448387254640640'
p2527
S'infrastructure_and_utilities_damage'
p2528
sS'511441365667184640'
p2529
S'infrastructure_and_utilities_damage'
p2530
sS'511448362949046272'
p2531
S'infrastructure_and_utilities_damage'
p2532
sS'511423665406095360'
p2533
S'sympathy_and_emotional_support'
p2534
sS'511431028624203777'
p2535
S'infrastructure_and_utilities_damage'
p2536
sS'511446269953204224'
p2537
S'infrastructure_and_utilities_damage'
p2538
sS'511438194722619393'
p2539
S'sympathy_and_emotional_support'
p2540
sS'511450418728431616'
p2541
S'infrastructure_and_utilities_damage'
p2542
sS'511446578280673280'
p2543
S'displaced_people_and_evacuations'
p2544
sS'511452360921448448'
p2545
S'caution_and_advice'
p2546
sS'511431629043425280'
p2547
S'infrastructure_and_utilities_damage'
p2548
sS'511437244914495489'
p2549
S'other_useful_information'
p2550
sS'511459094356819968'
p2551
S'donation_needs_or_offers_or_volunteering_services'
p2552
sS'511453026196803584'
p2553
S'donation_needs_or_offers_or_volunteering_services'
p2554
sS'511447045773594625'
p2555
S'infrastructure_and_utilities_damage'
p2556
sS'511424420800647168'
p2557
S'other_useful_information'
p2558
sS'511440930520313856'
p2559
S'infrastructure_and_utilities_damage'
p2560
sS'511455944111575040'
p2561
S'other_useful_information'
p2562
sS'511440753009381376'
p2563
S'other_useful_information'
p2564
sS'511447548977238016'
p2565
S'other_useful_information'
p2566
sS'511430244088430592'
p2567
S'other_useful_information'
p2568
sS'511439683336019968'
p2569
S'displaced_people_and_evacuations'
p2570
sS'511448189053186048'
p2571
S'infrastructure_and_utilities_damage'
p2572
sS'511438384968245248'
p2573
S'missing_trapped_or_found_people'
p2574
sS'511440930021179392'
p2575
S'infrastructure_and_utilities_damage'
p2576
sS'511439481610985472'
p2577
S'sympathy_and_emotional_support'
p2578
sS'511441471401381888'
p2579
S'infrastructure_and_utilities_damage'
p2580
sS'511430801393610753'
p2581
S'sympathy_and_emotional_support'
p2582
sS'511459062681448449'
p2583
S'displaced_people_and_evacuations'
p2584
sS'511441790197829632'
p2585
S'infrastructure_and_utilities_damage'
p2586
sS'511438502982995968'
p2587
S'donation_needs_or_offers_or_volunteering_services'
p2588
sS'511444013048537088'
p2589
S'injured_or_dead_people'
p2590
sS'511435291903926272'
p2591
S'donation_needs_or_offers_or_volunteering_services'
p2592
sS'511457881107861504'
p2593
S'other_useful_information'
p2594
sS'511447759061123072'
p2595
S'donation_needs_or_offers_or_volunteering_services'
p2596
sS'511432714474749952'
p2597
S'other_useful_information'
p2598
sS'511459480509624320'
p2599
S'other_useful_information'
p2600
sS'511447806112837632'
p2601
S'donation_needs_or_offers_or_volunteering_services'
p2602
sS'511430206524248065'
p2603
S'donation_needs_or_offers_or_volunteering_services'
p2604
sS'511442664202317824'
p2605
S'other_useful_information'
p2606
sS'511447079051620352'
p2607
S'sympathy_and_emotional_support'
p2608
sS'511459303882899457'
p2609
S'sympathy_and_emotional_support'
p2610
sS'511432809349513216'
p2611
S'other_useful_information'
p2612
sS'511455202843836416'
p2613
S'infrastructure_and_utilities_damage'
p2614
sS'511436080982528000'
p2615
S'infrastructure_and_utilities_damage'
p2616
sS'511458800088662016'
p2617
S'infrastructure_and_utilities_damage'
p2618
sS'511440156595724288'
p2619
S'other_useful_information'
p2620
sS'511440566958047232'
p2621
S'missing_trapped_or_found_people'
p2622
sS'511429591961833472'
p2623
S'donation_needs_or_offers_or_volunteering_services'
p2624
sS'511443834346024961'
p2625
S'donation_needs_or_offers_or_volunteering_services'
p2626
sS'511436566196002816'
p2627
S'infrastructure_and_utilities_damage'
p2628
sS'511455446201143296'
p2629
S'sympathy_and_emotional_support'
p2630
sS'511450445601333248'
p2631
S'sympathy_and_emotional_support'
p2632
sS'511431514769207296'
p2633
S'infrastructure_and_utilities_damage'
p2634
sS'511452056897732608'
p2635
S'other_useful_information'
p2636
sS'511448879573635072'
p2637
S'infrastructure_and_utilities_damage'
p2638
sS'511452570574155776'
p2639
S'donation_needs_or_offers_or_volunteering_services'
p2640
sS'511424610223816704'
p2641
S'infrastructure_and_utilities_damage'
p2642
sS'511453437838786560'
p2643
S'other_useful_information'
p2644
sS'511436627239911424'
p2645
S'other_useful_information'
p2646
sS'511447973071319040'
p2647
S'other_useful_information'
p2648
sS'511429153090854913'
p2649
S'donation_needs_or_offers_or_volunteering_services'
p2650
sS'511428897720631296'
p2651
S'infrastructure_and_utilities_damage'
p2652
sS'511432842895560704'
p2653
S'infrastructure_and_utilities_damage'
p2654
sS'511438862954926080'
p2655
S'donation_needs_or_offers_or_volunteering_services'
p2656
sS'511430530181918720'
p2657
S'other_useful_information'
p2658
sS'511447412729057281'
p2659
S'caution_and_advice'
p2660
sS'511442567469072384'
p2661
S'sympathy_and_emotional_support'
p2662
sS'511426142310768640'
p2663
S'donation_needs_or_offers_or_volunteering_services'
p2664
sS'511455438345220096'
p2665
S'infrastructure_and_utilities_damage'
p2666
sS'511424972783616000'
p2667
S'sympathy_and_emotional_support'
p2668
sS'511425107735363585'
p2669
S'other_useful_information'
p2670
sS'511452235981533184'
p2671
S'donation_needs_or_offers_or_volunteering_services'
p2672
sS'511429877481099264'
p2673
S'infrastructure_and_utilities_damage'
p2674
sS'511429922460803072'
p2675
S'infrastructure_and_utilities_damage'
p2676
sS'511457337974878208'
p2677
S'infrastructure_and_utilities_damage'
p2678
sS'511438631639457792'
p2679
S'infrastructure_and_utilities_damage'
p2680
sS'511428642698575873'
p2681
S'infrastructure_and_utilities_damage'
p2682
sS'511440702635798528'
p2683
S'infrastructure_and_utilities_damage'
p2684
sS'511435229819453440'
p2685
S'missing_trapped_or_found_people'
p2686
sS'511442181278543872'
p2687
S'infrastructure_and_utilities_damage'
p2688
sS'511451245970993152'
p2689
S'infrastructure_and_utilities_damage'
p2690
sS'511439743163191297'
p2691
S'infrastructure_and_utilities_damage'
p2692
sS'511446186390466560'
p2693
S'injured_or_dead_people'
p2694
sS'511446852567564288'
p2695
S'sympathy_and_emotional_support'
p2696
sS'511457683833360384'
p2697
S'infrastructure_and_utilities_damage'
p2698
sS'511446794765889536'
p2699
S'infrastructure_and_utilities_damage'
p2700
sS'511433076828688384'
p2701
S'caution_and_advice'
p2702
sS'511424687499259904'
p2703
S'not_related_or_irrelevant'
p2704
sS'511447043492311040'
p2705
S'sympathy_and_emotional_support'
p2706
sS'511434578574462976'
p2707
S'missing_trapped_or_found_people'
p2708
sS'511434473381326848'
p2709
S'infrastructure_and_utilities_damage'
p2710
sS'511428351009910784'
p2711
S'other_useful_information'
p2712
sS'511426788896284672'
p2713
S'infrastructure_and_utilities_damage'
p2714
sS'511441559393689600'
p2715
S'injured_or_dead_people'
p2716
sS'511439433154166784'
p2717
S'infrastructure_and_utilities_damage'
p2718
sS'511443121679245312'
p2719
S'infrastructure_and_utilities_damage'
p2720
sS'511443482419146752'
p2721
S'infrastructure_and_utilities_damage'
p2722
sS'511442431267446784'
p2723
S'infrastructure_and_utilities_damage'
p2724
sS'511458728478928896'
p2725
S'infrastructure_and_utilities_damage'
p2726
sS'511447696381464576'
p2727
S'infrastructure_and_utilities_damage'
p2728
sS'511459169619423232'
p2729
S'infrastructure_and_utilities_damage'
p2730
sS'511456086801383425'
p2731
S'infrastructure_and_utilities_damage'
p2732
sS'511454088668938240'
p2733
S'infrastructure_and_utilities_damage'
p2734
sS'511441343743131648'
p2735
S'infrastructure_and_utilities_damage'
p2736
sS'511447755907018752'
p2737
S'infrastructure_and_utilities_damage'
p2738
sS'511451862126841856'
p2739
S'infrastructure_and_utilities_damage'
p2740
sS'511435847485620225'
p2741
S'other_useful_information'
p2742
sS'511445830847717376'
p2743
S'infrastructure_and_utilities_damage'
p2744
sS'511449372220207104'
p2745
S'infrastructure_and_utilities_damage'
p2746
sS'511443750212882432'
p2747
S'donation_needs_or_offers_or_volunteering_services'
p2748
sS'511443808169361408'
p2749
S'infrastructure_and_utilities_damage'
p2750
sS'511424189660925952'
p2751
S'infrastructure_and_utilities_damage'
p2752
sS'511452177911406592'
p2753
S'infrastructure_and_utilities_damage'
p2754
sS'511454910215630848'
p2755
S'infrastructure_and_utilities_damage'
p2756
sS'511449332932177920'
p2757
S'infrastructure_and_utilities_damage'
p2758
sS'511459661095383040'
p2759
S'infrastructure_and_utilities_damage'
p2760
sS'511449139301724162'
p2761
S'infrastructure_and_utilities_damage'
p2762
sS'511437752609804289'
p2763
S'sympathy_and_emotional_support'
p2764
sS'511443362495201282'
p2765
S'missing_trapped_or_found_people'
p2766
sS'511453903679160320'
p2767
S'other_useful_information'
p2768
sS'511445204147392512'
p2769
S'sympathy_and_emotional_support'
p2770
sS'511424895448645632'
p2771
S'infrastructure_and_utilities_damage'
p2772
sS'511432509222309888'
p2773
S'infrastructure_and_utilities_damage'
p2774
sS'511430008167215105'
p2775
S'donation_needs_or_offers_or_volunteering_services'
p2776
sS'511443435849412608'
p2777
S'other_useful_information'
p2778
sS'511457835394146304'
p2779
S'infrastructure_and_utilities_damage'
p2780
sS'511426960283930624'
p2781
S'donation_needs_or_offers_or_volunteering_services'
p2782
sS'511425714281652225'
p2783
S'displaced_people_and_evacuations'
p2784
sS'511448391008919552'
p2785
S'other_useful_information'
p2786
sS'511439341215035392'
p2787
S'not_related_or_irrelevant'
p2788
sS'511448639319703555'
p2789
S'other_useful_information'
p2790
sS'511436884673712130'
p2791
S'not_related_or_irrelevant'
p2792
sS'511437008582234112'
p2793
S'infrastructure_and_utilities_damage'
p2794
sS'511450585338773504'
p2795
S'infrastructure_and_utilities_damage'
p2796
sS'511455412504514560'
p2797
S'sympathy_and_emotional_support'
p2798
sS'511426340256374784'
p2799
S'infrastructure_and_utilities_damage'
p2800
sS'511440724357693440'
p2801
S'caution_and_advice'
p2802
sS'511447219984023552'
p2803
S'infrastructure_and_utilities_damage'
p2804
sS'511444331438153729'
p2805
S'infrastructure_and_utilities_damage'
p2806
sS'511446556625481730'
p2807
S'displaced_people_and_evacuations'
p2808
sS'511459419347898368'
p2809
S'sympathy_and_emotional_support'
p2810
sS'511433933221670912'
p2811
S'other_useful_information'
p2812
sS'511423376682803200'
p2813
S'sympathy_and_emotional_support'
p2814
sS'511428478768398337'
p2815
S'infrastructure_and_utilities_damage'
p2816
sS'511443127639343104'
p2817
S'other_useful_information'
p2818
sS'511452128821256193'
p2819
S'infrastructure_and_utilities_damage'
p2820
sS'511455447534956544'
p2821
S'donation_needs_or_offers_or_volunteering_services'
p2822
sS'511441560136060929'
p2823
S'displaced_people_and_evacuations'
p2824
sS'511433655059636224'
p2825
S'other_useful_information'
p2826
sS'511447459911196672'
p2827
S'infrastructure_and_utilities_damage'
p2828
sS'511427342481489920'
p2829
S'displaced_people_and_evacuations'
p2830
sS'511457717420978176'
p2831
S'infrastructure_and_utilities_damage'
p2832
sS'511457675084038144'
p2833
S'infrastructure_and_utilities_damage'
p2834
sS'511424773776097281'
p2835
S'infrastructure_and_utilities_damage'
p2836
sS'511437001740914688'
p2837
S'donation_needs_or_offers_or_volunteering_services'
p2838
sS'511443217611378688'
p2839
S'infrastructure_and_utilities_damage'
p2840
sS'511442427601633280'
p2841
S'infrastructure_and_utilities_damage'
p2842
sS'511441295219646464'
p2843
S'caution_and_advice'
p2844
sS'511441050762612736'
p2845
S'displaced_people_and_evacuations'
p2846
sS'511443116659081216'
p2847
S'infrastructure_and_utilities_damage'
p2848
sS'511431014510383104'
p2849
S'donation_needs_or_offers_or_volunteering_services'
p2850
sS'511449732049166337'
p2851
S'sympathy_and_emotional_support'
p2852
sS'511438278495449088'
p2853
S'other_useful_information'
p2854
sS'511440362934902784'
p2855
S'infrastructure_and_utilities_damage'
p2856
sS'511440928779685888'
p2857
S'donation_needs_or_offers_or_volunteering_services'
p2858
sS'511449287159721984'
p2859
S'displaced_people_and_evacuations'
p2860
sS'511456284793528320'
p2861
S'donation_needs_or_offers_or_volunteering_services'
p2862
sS'511444877272305666'
p2863
S'injured_or_dead_people'
p2864
sS'511432279873167360'
p2865
S'infrastructure_and_utilities_damage'
p2866
sS'511457022886543361'
p2867
S'infrastructure_and_utilities_damage'
p2868
sS'511443617530261504'
p2869
S'displaced_people_and_evacuations'
p2870
sS'511447420127813632'
p2871
S'infrastructure_and_utilities_damage'
p2872
sS'511456473629868032'
p2873
S'donation_needs_or_offers_or_volunteering_services'
p2874
sS'511446703955009536'
p2875
S'sympathy_and_emotional_support'
p2876
sS'511436772526813184'
p2877
S'injured_or_dead_people'
p2878
sS'511455811017527296'
p2879
S'infrastructure_and_utilities_damage'
p2880
sS'511449033244557313'
p2881
S'caution_and_advice'
p2882
sS'511447100039905280'
p2883
S'infrastructure_and_utilities_damage'
p2884
sS'511443845834620928'
p2885
S'other_useful_information'
p2886
sS'511453262474903553'
p2887
S'donation_needs_or_offers_or_volunteering_services'
p2888
sS'511458737727766529'
p2889
S'other_useful_information'
p2890
sS'511440151919493120'
p2891
S'other_useful_information'
p2892
sS'511458678722293760'
p2893
S'donation_needs_or_offers_or_volunteering_services'
p2894
sS'511453484605259776'
p2895
S'displaced_people_and_evacuations'
p2896
sS'511449112559255552'
p2897
S'other_useful_information'
p2898
sS'511455182861762560'
p2899
S'caution_and_advice'
p2900
sS'511449461621420032'
p2901
S'infrastructure_and_utilities_damage'
p2902
sS'511429876822601728'
p2903
S'other_useful_information'
p2904
sS'511444656216092672'
p2905
S'infrastructure_and_utilities_damage'
p2906
sS'511456290338381824'
p2907
S'infrastructure_and_utilities_damage'
p2908
sS'511450654267944960'
p2909
S'infrastructure_and_utilities_damage'
p2910
sS'511442879806717952'
p2911
S'other_useful_information'
p2912
sS'511450754033676288'
p2913
S'donation_needs_or_offers_or_volunteering_services'
p2914
sS'511435982860582912'
p2915
S'missing_trapped_or_found_people'
p2916
sS'511433504488308736'
p2917
S'other_useful_information'
p2918
sS'511451424828715008'
p2919
S'infrastructure_and_utilities_damage'
p2920
sS'511458004466941952'
p2921
S'sympathy_and_emotional_support'
p2922
sS'511440855203213312'
p2923
S'sympathy_and_emotional_support'
p2924
sS'511441665346007040'
p2925
S'displaced_people_and_evacuations'
p2926
sS'511456270118051840'
p2927
S'infrastructure_and_utilities_damage'
p2928
sS'511424178114023426'
p2929
S'other_useful_information'
p2930
sS'511434915074678784'
p2931
S'infrastructure_and_utilities_damage'
p2932
sS'511431022236676096'
p2933
S'donation_needs_or_offers_or_volunteering_services'
p2934
sS'511443591483248641'
p2935
S'caution_and_advice'
p2936
sS'511448761399541760'
p2937
S'infrastructure_and_utilities_damage'
p2938
sS'511439060410200064'
p2939
S'infrastructure_and_utilities_damage'
p2940
sS'511448388802330625'
p2941
S'sympathy_and_emotional_support'
p2942
sS'511445071812505601'
p2943
S'donation_needs_or_offers_or_volunteering_services'
p2944
sS'511447204699975680'
p2945
S'infrastructure_and_utilities_damage'
p2946
sS'511446840534126592'
p2947
S'missing_trapped_or_found_people'
p2948
sS'511425234390765569'
p2949
S'donation_needs_or_offers_or_volunteering_services'
p2950
sS'511448283286233089'
p2951
S'other_useful_information'
p2952
sS'511433506715467776'
p2953
S'other_useful_information'
p2954
sS'511424226285588480'
p2955
S'other_useful_information'
p2956
sS'511449467866726400'
p2957
S'other_useful_information'
p2958
sS'511429092827078656'
p2959
S'donation_needs_or_offers_or_volunteering_services'
p2960
sS'511443113110683648'
p2961
S'infrastructure_and_utilities_damage'
p2962
sS'511438523228901376'
p2963
S'infrastructure_and_utilities_damage'
p2964
sS'511458242531459072'
p2965
S'displaced_people_and_evacuations'
p2966
sS'511436748183060480'
p2967
S'donation_needs_or_offers_or_volunteering_services'
p2968
sS'511441198360178688'
p2969
S'other_useful_information'
p2970
sS'511447729156149248'
p2971
S'infrastructure_and_utilities_damage'
p2972
sS'511434666264383488'
p2973
S'infrastructure_and_utilities_damage'
p2974
sS'511442669147795458'
p2975
S'caution_and_advice'
p2976
sS'511432409594990592'
p2977
S'infrastructure_and_utilities_damage'
p2978
sS'511435539296165890'
p2979
S'caution_and_advice'
p2980
sS'511428459357151232'
p2981
S'infrastructure_and_utilities_damage'
p2982
sS'511443128260108288'
p2983
S'infrastructure_and_utilities_damage'
p2984
sS'511459146043240448'
p2985
S'donation_needs_or_offers_or_volunteering_services'
p2986
sS'511448590997524480'
p2987
S'infrastructure_and_utilities_damage'
p2988
sS'511443698606153728'
p2989
S'infrastructure_and_utilities_damage'
p2990
sS'511448967620485120'
p2991
S'infrastructure_and_utilities_damage'
p2992
sS'511430714420908032'
p2993
S'sympathy_and_emotional_support'
p2994
sS'511443416664657920'
p2995
S'displaced_people_and_evacuations'
p2996
sS'511452001906208768'
p2997
S'infrastructure_and_utilities_damage'
p2998
sS'511451802743484416'
p2999
S'donation_needs_or_offers_or_volunteering_services'
p3000
sS'511455780676317184'
p3001
S'other_useful_information'
p3002
sS'511459350607441920'
p3003
S'infrastructure_and_utilities_damage'
p3004
sS'511438539553124352'
p3005
S'infrastructure_and_utilities_damage'
p3006
sS'511439957093662722'
p3007
S'infrastructure_and_utilities_damage'
p3008
sS'511458547998408704'
p3009
S'infrastructure_and_utilities_damage'
p3010
sS'511438727173111808'
p3011
S'infrastructure_and_utilities_damage'
p3012
sS'511438695992684545'
p3013
S'infrastructure_and_utilities_damage'
p3014
sS'511452623657242624'
p3015
S'other_useful_information'
p3016
sS'511431813969899520'
p3017
S'donation_needs_or_offers_or_volunteering_services'
p3018
sS'511448352404537344'
p3019
S'infrastructure_and_utilities_damage'
p3020
sS'511446562351116288'
p3021
S'infrastructure_and_utilities_damage'
p3022
sS'511444130187055105'
p3023
S'infrastructure_and_utilities_damage'
p3024
sS'511441158308786176'
p3025
S'not_related_or_irrelevant'
p3026
sS'511459226393145344'
p3027
S'donation_needs_or_offers_or_volunteering_services'
p3028
sS'511425180737224704'
p3029
S'caution_and_advice'
p3030
sS'511426011423342592'
p3031
S'caution_and_advice'
p3032
sS'511456788680802304'
p3033
S'infrastructure_and_utilities_damage'
p3034
sS'511431101169291264'
p3035
S'injured_or_dead_people'
p3036
sS'511441096082485248'
p3037
S'caution_and_advice'
p3038
sS'511458299913306112'
p3039
S'donation_needs_or_offers_or_volunteering_services'
p3040
sS'511424772828577792'
p3041
S'other_useful_information'
p3042
sS'511438964033462273'
p3043
S'infrastructure_and_utilities_damage'
p3044
sS'511426463112118272'
p3045
S'other_useful_information'
p3046
sS'511457159444328449'
p3047
S'not_related_or_irrelevant'
p3048
sS'511458440229957632'
p3049
S'donation_needs_or_offers_or_volunteering_services'
p3050
sS'511444720766029824'
p3051
S'displaced_people_and_evacuations'
p3052
sS'511442797757333504'
p3053
S'caution_and_advice'
p3054
sS'511439067355959297'
p3055
S'sympathy_and_emotional_support'
p3056
sS'511424181389365248'
p3057
S'infrastructure_and_utilities_damage'
p3058
sS'511424851429429248'
p3059
S'infrastructure_and_utilities_damage'
p3060
sS'511437403312373760'
p3061
S'sympathy_and_emotional_support'
p3062
sS'511449364074471425'
p3063
S'infrastructure_and_utilities_damage'
p3064
sS'511434860984934400'
p3065
S'sympathy_and_emotional_support'
p3066
sS'511441084669771776'
p3067
S'donation_needs_or_offers_or_volunteering_services'
p3068
sS'511456308461981696'
p3069
S'donation_needs_or_offers_or_volunteering_services'
p3070
sS'511442168842813440'
p3071
S'infrastructure_and_utilities_damage'
p3072
sS'511435340033175553'
p3073
S'infrastructure_and_utilities_damage'
p3074
sS'511424404581269504'
p3075
S'infrastructure_and_utilities_damage'
p3076
sS'511443137395687424'
p3077
S'displaced_people_and_evacuations'
p3078
sS'511430058120978432'
p3079
S'infrastructure_and_utilities_damage'
p3080
sS'511458083956989953'
p3081
S'injured_or_dead_people'
p3082
sS'511459056104792064'
p3083
S'infrastructure_and_utilities_damage'
p3084
sS'511447611820490752'
p3085
S'sympathy_and_emotional_support'
p3086
sS'511441425951911936'
p3087
S'donation_needs_or_offers_or_volunteering_services'
p3088
sS'511438047489974272'
p3089
S'missing_trapped_or_found_people'
p3090
sS'511453497586634752'
p3091
S'infrastructure_and_utilities_damage'
p3092
sS'511452484771266560'
p3093
S'infrastructure_and_utilities_damage'
p3094
sS'511456048792629248'
p3095
S'infrastructure_and_utilities_damage'
p3096
sS'511426931158310912'
p3097
S'infrastructure_and_utilities_damage'
p3098
sS'511447427513991169'
p3099
S'infrastructure_and_utilities_damage'
p3100
sS'511433725603627009'
p3101
S'infrastructure_and_utilities_damage'
p3102
sS'511442404105154560'
p3103
S'displaced_people_and_evacuations'
p3104
sS'511439120548495360'
p3105
S'injured_or_dead_people'
p3106
sS'511457929229135872'
p3107
S'missing_trapped_or_found_people'
p3108
sS'511446885157335040'
p3109
S'other_useful_information'
p3110
sS'511459232747511808'
p3111
S'infrastructure_and_utilities_damage'
p3112
sS'511438509052542976'
p3113
S'sympathy_and_emotional_support'
p3114
sS'511455372029476864'
p3115
S'infrastructure_and_utilities_damage'
p3116
sS'511441730064101377'
p3117
S'infrastructure_and_utilities_damage'
p3118
sS'511448806412812289'
p3119
S'injured_or_dead_people'
p3120
sS'511424465604186112'
p3121
S'not_related_or_irrelevant'
p3122
sS'511440927680782336'
p3123
S'infrastructure_and_utilities_damage'
p3124
sS'511443129489035264'
p3125
S'caution_and_advice'
p3126
sS'511442541498351617'
p3127
S'infrastructure_and_utilities_damage'
p3128
sS'511449625916870656'
p3129
S'infrastructure_and_utilities_damage'
p3130
sS'511458349846888449'
p3131
S'infrastructure_and_utilities_damage'
p3132
sS'511452698319650816'
p3133
S'missing_trapped_or_found_people'
p3134
sS'511433463556079616'
p3135
S'sympathy_and_emotional_support'
p3136
sS'511451697181233152'
p3137
S'infrastructure_and_utilities_damage'
p3138
sS'511439486425645056'
p3139
S'sympathy_and_emotional_support'
p3140
sS'511447148391829504'
p3141
S'other_useful_information'
p3142
sS'511447655265099777'
p3143
S'infrastructure_and_utilities_damage'
p3144
sS'511439832300539904'
p3145
S'injured_or_dead_people'
p3146
sS'511456472975151104'
p3147
S'sympathy_and_emotional_support'
p3148
sS'511428861020876800'
p3149
S'displaced_people_and_evacuations'
p3150
sS'511428952876146689'
p3151
S'sympathy_and_emotional_support'
p3152
sS'511440551015895040'
p3153
S'other_useful_information'
p3154
sS'511446948679655426'
p3155
S'sympathy_and_emotional_support'
p3156
sS'511437426590375937'
p3157
S'displaced_people_and_evacuations'
p3158
sS'511459401585422336'
p3159
S'infrastructure_and_utilities_damage'
p3160
sS'511426231246413824'
p3161
S'infrastructure_and_utilities_damage'
p3162
sS'511452392949559296'
p3163
S'infrastructure_and_utilities_damage'
p3164
sS'511448528913432576'
p3165
S'infrastructure_and_utilities_damage'
p3166
sS'511444889373274112'
p3167
S'donation_needs_or_offers_or_volunteering_services'
p3168
sS'511434092072947712'
p3169
S'other_useful_information'
p3170
sS'511424650874986496'
p3171
S'injured_or_dead_people'
p3172
sS'511448527617413120'
p3173
S'sympathy_and_emotional_support'
p3174
sS'511457263085977600'
p3175
S'infrastructure_and_utilities_damage'
p3176
sS'511430644698992640'
p3177
S'displaced_people_and_evacuations'
p3178
sS'511440195255033856'
p3179
S'donation_needs_or_offers_or_volunteering_services'
p3180
sS'511430124898881536'
p3181
S'injured_or_dead_people'
p3182
sS'511439013925101568'
p3183
S'other_useful_information'
p3184
sS'511432110037823488'
p3185
S'infrastructure_and_utilities_damage'
p3186
sS'511424204215177216'
p3187
S'sympathy_and_emotional_support'
p3188
sS'511438545332867073'
p3189
S'infrastructure_and_utilities_damage'
p3190
sS'511449154455740416'
p3191
S'infrastructure_and_utilities_damage'
p3192
sS'511443121742573568'
p3193
S'displaced_people_and_evacuations'
p3194
sS'511431628095488000'
p3195
S'sympathy_and_emotional_support'
p3196
sS'511439993290506242'
p3197
S'infrastructure_and_utilities_damage'
p3198
sS'511449013363933184'
p3199
S'infrastructure_and_utilities_damage'
p3200
sS'511456682749095936'
p3201
S'infrastructure_and_utilities_damage'
p3202
sS'511441794265931776'
p3203
S'other_useful_information'
p3204
sS'511458870607106049'
p3205
S'infrastructure_and_utilities_damage'
p3206
sS'511428138417389568'
p3207
S'caution_and_advice'
p3208
sS'511441717946753024'
p3209
S'infrastructure_and_utilities_damage'
p3210
sS'511448130710036481'
p3211
S'donation_needs_or_offers_or_volunteering_services'
p3212
sS'511434955696910336'
p3213
S'displaced_people_and_evacuations'
p3214
sS'511438669887320064'
p3215
S'infrastructure_and_utilities_damage'
p3216
sS'511428888086716416'
p3217
S'infrastructure_and_utilities_damage'
p3218
sS'511447472917741568'
p3219
S'infrastructure_and_utilities_damage'
p3220
sS'511446637554593793'
p3221
S'donation_needs_or_offers_or_volunteering_services'
p3222
sS'511439609340116993'
p3223
S'not_related_or_irrelevant'
p3224
sS'511423208801984512'
p3225
S'donation_needs_or_offers_or_volunteering_services'
p3226
sS'511457737860210688'
p3227
S'infrastructure_and_utilities_damage'
p3228
sS'511433325202784256'
p3229
S'infrastructure_and_utilities_damage'
p3230
sS'511458591115472896'
p3231
S'infrastructure_and_utilities_damage'
p3232
sS'511456741226463232'
p3233
S'injured_or_dead_people'
p3234
sS'511445493520809984'
p3235
S'caution_and_advice'
p3236
sS'511434683885047809'
p3237
S'infrastructure_and_utilities_damage'
p3238
sS'511427848762966016'
p3239
S'sympathy_and_emotional_support'
p3240
sS'511447395633078274'
p3241
S'infrastructure_and_utilities_damage'
p3242
sS'511459038769717248'
p3243
S'infrastructure_and_utilities_damage'
p3244
sS'511455285437665282'
p3245
S'displaced_people_and_evacuations'
p3246
sS'511430349151555584'
p3247
S'donation_needs_or_offers_or_volunteering_services'
p3248
sS'511433104775716864'
p3249
S'infrastructure_and_utilities_damage'
p3250
sS'511428250963574784'
p3251
S'other_useful_information'
p3252
sS'511458172092301312'
p3253
S'infrastructure_and_utilities_damage'
p3254
sS'511424563423350784'
p3255
S'other_useful_information'
p3256
sS'511458884301885441'
p3257
S'displaced_people_and_evacuations'
p3258
sS'511442599555919872'
p3259
S'infrastructure_and_utilities_damage'
p3260
sS'511433999273971713'
p3261
S'infrastructure_and_utilities_damage'
p3262
sS'511454252695556096'
p3263
S'infrastructure_and_utilities_damage'
p3264
sS'511444076408094720'
p3265
S'donation_needs_or_offers_or_volunteering_services'
p3266
sS'511427720002027520'
p3267
S'infrastructure_and_utilities_damage'
p3268
sS'511452382798962688'
p3269
S'not_related_or_irrelevant'
p3270
sS'511452196245078016'
p3271
S'other_useful_information'
p3272
sS'511444568223395840'
p3273
S'donation_needs_or_offers_or_volunteering_services'
p3274
sS'511446748418420738'
p3275
S'other_useful_information'
p3276
sS'511451970851581952'
p3277
S'other_useful_information'
p3278
sS'511450257281282049'
p3279
S'other_useful_information'
p3280
sS'511444515538735104'
p3281
S'donation_needs_or_offers_or_volunteering_services'
p3282
sS'511424494792376320'
p3283
S'infrastructure_and_utilities_damage'
p3284
sS'511442261096550400'
p3285
S'infrastructure_and_utilities_damage'
p3286
sS'511425399268446208'
p3287
S'other_useful_information'
p3288
sS'511444550351462400'
p3289
S'other_useful_information'
p3290
sS'511427928132177920'
p3291
S'displaced_people_and_evacuations'
p3292
sS'511425226618703872'
p3293
S'infrastructure_and_utilities_damage'
p3294
sS'511457494036914176'
p3295
S'displaced_people_and_evacuations'
p3296
sS'511457256454758401'
p3297
S'infrastructure_and_utilities_damage'
p3298
sS'511443591764672512'
p3299
S'donation_needs_or_offers_or_volunteering_services'
p3300
sS'511428779206782976'
p3301
S'infrastructure_and_utilities_damage'
p3302
sS'511443359404015616'
p3303
S'other_useful_information'
p3304
sS'511453451897692160'
p3305
S'infrastructure_and_utilities_damage'
p3306
sS'511443225236627456'
p3307
S'caution_and_advice'
p3308
sS'511433180981633026'
p3309
S'caution_and_advice'
p3310
sS'511424406388621312'
p3311
S'not_related_or_irrelevant'
p3312
sS'511433782818516992'
p3313
S'other_useful_information'
p3314
sS'511445009367715840'
p3315
S'donation_needs_or_offers_or_volunteering_services'
p3316
sS'511427315654733824'
p3317
S'infrastructure_and_utilities_damage'
p3318
sS'511431372347424769'
p3319
S'other_useful_information'
p3320
sS'511440955824558080'
p3321
S'other_useful_information'
p3322
sS'511443691014062080'
p3323
S'infrastructure_and_utilities_damage'
p3324
sS'511436674602373120'
p3325
S'sympathy_and_emotional_support'
p3326
sS'511441426966913024'
p3327
S'infrastructure_and_utilities_damage'
p3328
sS'511433412561747968'
p3329
S'donation_needs_or_offers_or_volunteering_services'
p3330
sS'511443664279986176'
p3331
S'caution_and_advice'
p3332
sS'511443793867186176'
p3333
S'donation_needs_or_offers_or_volunteering_services'
p3334
sS'511451329596637184'
p3335
S'other_useful_information'
p3336
sS'511458207730921472'
p3337
S'not_related_or_irrelevant'
p3338
sS'511429033884532737'
p3339
S'infrastructure_and_utilities_damage'
p3340
sS'511444531791675392'
p3341
S'donation_needs_or_offers_or_volunteering_services'
p3342
sS'511449834952593409'
p3343
S'displaced_people_and_evacuations'
p3344
sS'511449384504938496'
p3345
S'other_useful_information'
p3346
sS'511438600643575808'
p3347
S'infrastructure_and_utilities_damage'
p3348
sS'511427007385571328'
p3349
S'sympathy_and_emotional_support'
p3350
sS'511429682143961089'
p3351
S'missing_trapped_or_found_people'
p3352
sS'511457456744984576'
p3353
S'other_useful_information'
p3354
sS'511426679022301185'
p3355
S'infrastructure_and_utilities_damage'
p3356
sS'511443748228968448'
p3357
S'other_useful_information'
p3358
sS'511449122927157250'
p3359
S'donation_needs_or_offers_or_volunteering_services'
p3360
sS'511456369401012224'
p3361
S'other_useful_information'
p3362
sS'511455124535783425'
p3363
S'infrastructure_and_utilities_damage'
p3364
sS'511427524635549696'
p3365
S'injured_or_dead_people'
p3366
sS'511427671965065216'
p3367
S'displaced_people_and_evacuations'
p3368
sS'511458098465497089'
p3369
S'infrastructure_and_utilities_damage'
p3370
sS'511451880082243584'
p3371
S'displaced_people_and_evacuations'
p3372
sS'511457337190912000'
p3373
S'sympathy_and_emotional_support'
p3374
sS'511458037484109824'
p3375
S'donation_needs_or_offers_or_volunteering_services'
p3376
sS'511449309259505665'
p3377
S'other_useful_information'
p3378
sS'511425495830106113'
p3379
S'donation_needs_or_offers_or_volunteering_services'
p3380
sS'511455870853853184'
p3381
S'displaced_people_and_evacuations'
p3382
sS'511457190473764864'
p3383
S'infrastructure_and_utilities_damage'
p3384
sS'511454549819674624'
p3385
S'other_useful_information'
p3386
sS'511456164278575104'
p3387
S'donation_needs_or_offers_or_volunteering_services'
p3388
sS'511423622288646144'
p3389
S'donation_needs_or_offers_or_volunteering_services'
p3390
sS'511457469986787328'
p3391
S'donation_needs_or_offers_or_volunteering_services'
p3392
sS'511456389806321664'
p3393
S'other_useful_information'
p3394
sS'511456655536439296'
p3395
S'infrastructure_and_utilities_damage'
p3396
sS'511446527848755200'
p3397
S'infrastructure_and_utilities_damage'
p3398
sS'511434983915806721'
p3399
S'missing_trapped_or_found_people'
p3400
sS'511458410185777152'
p3401
S'displaced_people_and_evacuations'
p3402
sS'511436598630555648'
p3403
S'infrastructure_and_utilities_damage'
p3404
sS'511455984087101440'
p3405
S'infrastructure_and_utilities_damage'
p3406
sS'511435049414049792'
p3407
S'infrastructure_and_utilities_damage'
p3408
sS'511454714085785600'
p3409
S'other_useful_information'
p3410
sS'511433573404930048'
p3411
S'other_useful_information'
p3412
sS'511458825153822720'
p3413
S'infrastructure_and_utilities_damage'
p3414
sS'511458701480562688'
p3415
S'infrastructure_and_utilities_damage'
p3416
sS'511444049010905089'
p3417
S'infrastructure_and_utilities_damage'
p3418
sS'511452475174313984'
p3419
S'sympathy_and_emotional_support'
p3420
sS'511443530984615936'
p3421
S'sympathy_and_emotional_support'
p3422
sS'511459242906517504'
p3423
S'other_useful_information'
p3424
sS'511451427987030016'
p3425
S'caution_and_advice'
p3426
sS'511444730937638912'
p3427
S'not_related_or_irrelevant'
p3428
sS'511437739938807808'
p3429
S'infrastructure_and_utilities_damage'
p3430
sS'511443928986681344'
p3431
S'infrastructure_and_utilities_damage'
p3432
sS'511447814946447360'
p3433
S'infrastructure_and_utilities_damage'
p3434
sS'511456952002420736'
p3435
S'other_useful_information'
p3436
sS'511436739031089152'
p3437
S'displaced_people_and_evacuations'
p3438
sS'511424520750891008'
p3439
S'displaced_people_and_evacuations'
p3440
sS'511442370995290112'
p3441
S'displaced_people_and_evacuations'
p3442
sS'511456773161889792'
p3443
S'displaced_people_and_evacuations'
p3444
sS'511450774321496064'
p3445
S'infrastructure_and_utilities_damage'
p3446
sS'511431424625631232'
p3447
S'infrastructure_and_utilities_damage'
p3448
sS'511428598700728320'
p3449
S'donation_needs_or_offers_or_volunteering_services'
p3450
sS'511435768850423809'
p3451
S'infrastructure_and_utilities_damage'
p3452
sS'511458966023720960'
p3453
S'infrastructure_and_utilities_damage'
p3454
sS'511439056207503360'
p3455
S'missing_trapped_or_found_people'
p3456
sS'511432023425441792'
p3457
S'not_related_or_irrelevant'
p3458
sS'511443112019783680'
p3459
S'infrastructure_and_utilities_damage'
p3460
sS'511434789144903680'
p3461
S'infrastructure_and_utilities_damage'
p3462
sS'511440378193399808'
p3463
S'displaced_people_and_evacuations'
p3464
sS'511458780505440256'
p3465
S'displaced_people_and_evacuations'
p3466
sS'511442066027872256'
p3467
S'donation_needs_or_offers_or_volunteering_services'
p3468
sS'511429690020888576'
p3469
S'infrastructure_and_utilities_damage'
p3470
sS'511434166014328832'
p3471
S'infrastructure_and_utilities_damage'
p3472
sS'511426072919822337'
p3473
S'displaced_people_and_evacuations'
p3474
sS'511427862880980992'
p3475
S'infrastructure_and_utilities_damage'
p3476
sS'511444941365866497'
p3477
S'infrastructure_and_utilities_damage'
p3478
sS'511434516339367937'
p3479
S'other_useful_information'
p3480
sS'511441079628206080'
p3481
S'infrastructure_and_utilities_damage'
p3482
sS'511443411673427969'
p3483
S'infrastructure_and_utilities_damage'
p3484
sS'511443805715722241'
p3485
S'infrastructure_and_utilities_damage'
p3486
sS'511459575988748288'
p3487
S'infrastructure_and_utilities_damage'
p3488
sS'511457757837660160'
p3489
S'infrastructure_and_utilities_damage'
p3490
sS'511450625414930433'
p3491
S'other_useful_information'
p3492
sS'511438730687950849'
p3493
S'sympathy_and_emotional_support'
p3494
sS'511450705379737600'
p3495
S'infrastructure_and_utilities_damage'
p3496
sS'511457429926977536'
p3497
S'infrastructure_and_utilities_damage'
p3498
sS'511447400784076800'
p3499
S'infrastructure_and_utilities_damage'
p3500
sS'511452535110893568'
p3501
S'donation_needs_or_offers_or_volunteering_services'
p3502
sS'511423626399473664'
p3503
S'other_useful_information'
p3504
sS'511444734410121216'
p3505
S'infrastructure_and_utilities_damage'
p3506
sS'511427965029457920'
p3507
S'infrastructure_and_utilities_damage'
p3508
sS'511450444715921408'
p3509
S'infrastructure_and_utilities_damage'
p3510
sS'511457590455566336'
p3511
S'other_useful_information'
p3512
sS'511440191798902784'
p3513
S'infrastructure_and_utilities_damage'
p3514
sS'511433684839190528'
p3515
S'infrastructure_and_utilities_damage'
p3516
sS'511438514240487424'
p3517
S'displaced_people_and_evacuations'
p3518
sS'511424785067147264'
p3519
S'infrastructure_and_utilities_damage'
p3520
sS'511430862681165824'
p3521
S'donation_needs_or_offers_or_volunteering_services'
p3522
sS'511452145875701760'
p3523
S'other_useful_information'
p3524
sS'511441855951937536'
p3525
S'infrastructure_and_utilities_damage'
p3526
sS'511424101517230081'
p3527
S'donation_needs_or_offers_or_volunteering_services'
p3528
sS'511441047646269440'
p3529
S'donation_needs_or_offers_or_volunteering_services'
p3530
sS'511457176066752512'
p3531
S'infrastructure_and_utilities_damage'
p3532
sS'511457701981732864'
p3533
S'displaced_people_and_evacuations'
p3534
sS'511431257465425922'
p3535
S'infrastructure_and_utilities_damage'
p3536
sS'511456226249416704'
p3537
S'infrastructure_and_utilities_damage'
p3538
sS'511440489984184322'
p3539
S'displaced_people_and_evacuations'
p3540
sS'511441272549027840'
p3541
S'displaced_people_and_evacuations'
p3542
sS'511442472371621888'
p3543
S'donation_needs_or_offers_or_volunteering_services'
p3544
sS'511435159351353344'
p3545
S'donation_needs_or_offers_or_volunteering_services'
p3546
sS'511428182688276480'
p3547
S'sympathy_and_emotional_support'
p3548
sS'511443684282232832'
p3549
S'donation_needs_or_offers_or_volunteering_services'
p3550
sS'511444739082571776'
p3551
S'missing_trapped_or_found_people'
p3552
sS'511455071133904898'
p3553
S'infrastructure_and_utilities_damage'
p3554
sS'511457257834295296'
p3555
S'other_useful_information'
p3556
sS'511455421727784960'
p3557
S'infrastructure_and_utilities_damage'
p3558
sS'511439830858104832'
p3559
S'infrastructure_and_utilities_damage'
p3560
sS'511436340261818369'
p3561
S'infrastructure_and_utilities_damage'
p3562
sS'511447910568194048'
p3563
S'infrastructure_and_utilities_damage'
p3564
sS'511447261281550336'
p3565
S'infrastructure_and_utilities_damage'
p3566
sS'511448449527848960'
p3567
S'infrastructure_and_utilities_damage'
p3568
sS'511444452129652736'
p3569
S'sympathy_and_emotional_support'
p3570
sS'511428783891808256'
p3571
S'infrastructure_and_utilities_damage'
p3572
sS'511452175663652864'
p3573
S'displaced_people_and_evacuations'
p3574
sS'511451697672372224'
p3575
S'infrastructure_and_utilities_damage'
p3576
sS'511455583862411264'
p3577
S'other_useful_information'
p3578
sS'511455170039795712'
p3579
S'other_useful_information'
p3580
sS'511451873208188928'
p3581
S'displaced_people_and_evacuations'
p3582
sS'511454238896300032'
p3583
S'infrastructure_and_utilities_damage'
p3584
sS'511440105060319232'
p3585
S'infrastructure_and_utilities_damage'
p3586
sS'511456795387518976'
p3587
S'other_useful_information'
p3588
sS'511428891483729921'
p3589
S'sympathy_and_emotional_support'
p3590
sS'511432016093798400'
p3591
S'infrastructure_and_utilities_damage'
p3592
sS'511452582028390401'
p3593
S'infrastructure_and_utilities_damage'
p3594
sS'511438806940008448'
p3595
S'infrastructure_and_utilities_damage'
p3596
sS'511451491748806656'
p3597
S'other_useful_information'
p3598
sS'511440000114630657'
p3599
S'sympathy_and_emotional_support'
p3600
sS'511446032119783424'
p3601
S'infrastructure_and_utilities_damage'
p3602
sS'511447547294920705'
p3603
S'other_useful_information'
p3604
sS'511441239280205824'
p3605
S'donation_needs_or_offers_or_volunteering_services'
p3606
sS'511440765541957632'
p3607
S'not_related_or_irrelevant'
p3608
sS'511443806453895168'
p3609
S'sympathy_and_emotional_support'
p3610
sS'511440942860369920'
p3611
S'infrastructure_and_utilities_damage'
p3612
sS'511443735784480768'
p3613
S'infrastructure_and_utilities_damage'
p3614
sS'511457507416739840'
p3615
S'donation_needs_or_offers_or_volunteering_services'
p3616
sS'511457598168915968'
p3617
S'infrastructure_and_utilities_damage'
p3618
sS'511440324091080704'
p3619
S'other_useful_information'
p3620
sS'511441857877139456'
p3621
S'infrastructure_and_utilities_damage'
p3622
sS'511445408019906560'
p3623
S'infrastructure_and_utilities_damage'
p3624
sS'511451858708492288'
p3625
S'caution_and_advice'
p3626
sS'511440065596096513'
p3627
S'sympathy_and_emotional_support'
p3628
sS'511452387119095808'
p3629
S'other_useful_information'
p3630
sS'511439681368903680'
p3631
S'displaced_people_and_evacuations'
p3632
sS'511437447910391808'
p3633
S'infrastructure_and_utilities_damage'
p3634
sS'511437830879318016'
p3635
S'infrastructure_and_utilities_damage'
p3636
sS'511426050342256640'
p3637
S'infrastructure_and_utilities_damage'
p3638
sS'511433192587284480'
p3639
S'infrastructure_and_utilities_damage'
p3640
sS'511456603380662272'
p3641
S'sympathy_and_emotional_support'
p3642
sS'511450150200672256'
p3643
S'other_useful_information'
p3644
sS'511456997460688897'
p3645
S'infrastructure_and_utilities_damage'
p3646
sS'511458912659582977'
p3647
S'caution_and_advice'
p3648
sS'511436034937069568'
p3649
S'infrastructure_and_utilities_damage'
p3650
sS'511439612409958401'
p3651
S'sympathy_and_emotional_support'
p3652
sS'511431152096137217'
p3653
S'other_useful_information'
p3654
sS'511455991599468544'
p3655
S'infrastructure_and_utilities_damage'
p3656
sS'511458972948496384'
p3657
S'infrastructure_and_utilities_damage'
p3658
sS'511445414328156161'
p3659
S'infrastructure_and_utilities_damage'
p3660
sS'511438905514942464'
p3661
S'displaced_people_and_evacuations'
p3662
sS'511447986161729536'
p3663
S'infrastructure_and_utilities_damage'
p3664
sS'511446957827829760'
p3665
S'injured_or_dead_people'
p3666
sS'511433097624420352'
p3667
S'infrastructure_and_utilities_damage'
p3668
sS'511447767525625856'
p3669
S'donation_needs_or_offers_or_volunteering_services'
p3670
sS'511453282813104128'
p3671
S'infrastructure_and_utilities_damage'
p3672
sS'511443815895293953'
p3673
S'infrastructure_and_utilities_damage'
p3674
sS'511453611155783681'
p3675
S'infrastructure_and_utilities_damage'
p3676
sS'511429602657710080'
p3677
S'other_useful_information'
p3678
sS'511429298604244992'
p3679
S'other_useful_information'
p3680
sS'511438602350231552'
p3681
S'infrastructure_and_utilities_damage'
p3682
sS'511431401522999300'
p3683
S'infrastructure_and_utilities_damage'
p3684
sS'511448912385675264'
p3685
S'sympathy_and_emotional_support'
p3686
sS'511448111613353985'
p3687
S'injured_or_dead_people'
p3688
sS'511451690206511104'
p3689
S'displaced_people_and_evacuations'
p3690
sS'511435904310067200'
p3691
S'infrastructure_and_utilities_damage'
p3692
sS'511458943290191872'
p3693
S'infrastructure_and_utilities_damage'
p3694
sS'511429089031626752'
p3695
S'infrastructure_and_utilities_damage'
p3696
sS'511439995832258560'
p3697
S'infrastructure_and_utilities_damage'
p3698
sS'511432906569711616'
p3699
S'displaced_people_and_evacuations'
p3700
sS'511441723671994368'
p3701
S'infrastructure_and_utilities_damage'
p3702
sS'511455093053751296'
p3703
S'displaced_people_and_evacuations'
p3704
sS'511438994932920320'
p3705
S'infrastructure_and_utilities_damage'
p3706
sS'511444390376931329'
p3707
S'infrastructure_and_utilities_damage'
p3708
sS'511444348735848448'
p3709
S'infrastructure_and_utilities_damage'
p3710
sS'511447430400077824'
p3711
S'other_useful_information'
p3712
sS'511428019568017408'
p3713
S'displaced_people_and_evacuations'
p3714
sS'511443228772405249'
p3715
S'infrastructure_and_utilities_damage'
p3716
sS'511440691625750528'
p3717
S'other_useful_information'
p3718
sS'511442498661933056'
p3719
S'sympathy_and_emotional_support'
p3720
sS'511439230376374272'
p3721
S'infrastructure_and_utilities_damage'
p3722
sS'511424531987456000'
p3723
S'infrastructure_and_utilities_damage'
p3724
sS'511451954900242432'
p3725
S'donation_needs_or_offers_or_volunteering_services'
p3726
sS'511431840545001474'
p3727
S'infrastructure_and_utilities_damage'
p3728
sS'511437644753276928'
p3729
S'infrastructure_and_utilities_damage'
p3730
sS'511454990150696960'
p3731
S'infrastructure_and_utilities_damage'
p3732
sS'511457610764013569'
p3733
S'missing_trapped_or_found_people'
p3734
sS'511448016973078529'
p3735
S'infrastructure_and_utilities_damage'
p3736
sS'511455677693562880'
p3737
S'other_useful_information'
p3738
sS'511452439363346432'
p3739
S'other_useful_information'
p3740
sS'511447621630959616'
p3741
S'infrastructure_and_utilities_damage'
p3742
sS'511442256310849536'
p3743
S'infrastructure_and_utilities_damage'
p3744
sS'511454843719122944'
p3745
S'donation_needs_or_offers_or_volunteering_services'
p3746
sS'511447365367369729'
p3747
S'donation_needs_or_offers_or_volunteering_services'
p3748
sS'511436735591776256'
p3749
S'sympathy_and_emotional_support'
p3750
sS'511448091195498496'
p3751
S'infrastructure_and_utilities_damage'
p3752
sS'511448386252570624'
p3753
S'infrastructure_and_utilities_damage'
p3754
sS'511457400704880640'
p3755
S'donation_needs_or_offers_or_volunteering_services'
p3756
sS'511447889063579648'
p3757
S'infrastructure_and_utilities_damage'
p3758
sS'511448164922978304'
p3759
S'infrastructure_and_utilities_damage'
p3760
sS'511443432179388416'
p3761
S'displaced_people_and_evacuations'
p3762
sS'511425200789803008'
p3763
S'infrastructure_and_utilities_damage'
p3764
sS'511423866590085120'
p3765
S'other_useful_information'
p3766
sS'511429060161830913'
p3767
S'missing_trapped_or_found_people'
p3768
sS'511449513857257472'
p3769
S'infrastructure_and_utilities_damage'
p3770
sS'511457183226007552'
p3771
S'infrastructure_and_utilities_damage'
p3772
sS'511428881073467392'
p3773
S'infrastructure_and_utilities_damage'
p3774
sS'511449146822123521'
p3775
S'infrastructure_and_utilities_damage'
p3776
sS'511438434607439873'
p3777
S'displaced_people_and_evacuations'
p3778
sS'511453930350333952'
p3779
S'infrastructure_and_utilities_damage'
p3780
sS'511443596369989632'
p3781
S'other_useful_information'
p3782
sS'511447500700807168'
p3783
S'donation_needs_or_offers_or_volunteering_services'
p3784
sS'511426661561430016'
p3785
S'infrastructure_and_utilities_damage'
p3786
sS'511442181371203585'
p3787
S'infrastructure_and_utilities_damage'
p3788
sS'511446013022715904'
p3789
S'donation_needs_or_offers_or_volunteering_services'
p3790
sS'511424698266034176'
p3791
S'infrastructure_and_utilities_damage'
p3792
sS'511442445511311360'
p3793
S'other_useful_information'
p3794
sS'511454661543350272'
p3795
S'donation_needs_or_offers_or_volunteering_services'
p3796
sS'511438230332248065'
p3797
S'other_useful_information'
p3798
sS'511439897186422784'
p3799
S'missing_trapped_or_found_people'
p3800
sS'511459249382514688'
p3801
S'other_useful_information'
p3802
sS'511439415541919744'
p3803
S'caution_and_advice'
p3804
sS'511434738096406528'
p3805
S'not_related_or_irrelevant'
p3806
sS'511426275484106752'
p3807
S'donation_needs_or_offers_or_volunteering_services'
p3808
sS'511438852809306112'
p3809
S'other_useful_information'
p3810
sS'511431795649175552'
p3811
S'infrastructure_and_utilities_damage'
p3812
sS'511457928428388353'
p3813
S'other_useful_information'
p3814
sS'511435878221099008'
p3815
S'sympathy_and_emotional_support'
p3816
sS'511456811275137024'
p3817
S'sympathy_and_emotional_support'
p3818
sS'511448877799866368'
p3819
S'other_useful_information'
p3820
sS'511426446511050752'
p3821
S'other_useful_information'
p3822
sS'511439564523569152'
p3823
S'sympathy_and_emotional_support'
p3824
sS'511453614083014656'
p3825
S'missing_trapped_or_found_people'
p3826
sS'511424380002631680'
p3827
S'infrastructure_and_utilities_damage'
p3828
sS'511439891188547584'
p3829
S'other_useful_information'
p3830
sS'511434874280886272'
p3831
S'other_useful_information'
p3832
sS'511447354625368064'
p3833
S'injured_or_dead_people'
p3834
sS'511446899191070721'
p3835
S'injured_or_dead_people'
p3836
sS'511423775246942208'
p3837
S'displaced_people_and_evacuations'
p3838
sS'511424000560336896'
p3839
S'sympathy_and_emotional_support'
p3840
sS'511430248106569728'
p3841
S'caution_and_advice'
p3842
sS'511448559770542080'
p3843
S'caution_and_advice'
p3844
sS'511450175038976000'
p3845
S'infrastructure_and_utilities_damage'
p3846
sS'511447469142855680'
p3847
S'infrastructure_and_utilities_damage'
p3848
sS'511446603610456064'
p3849
S'displaced_people_and_evacuations'
p3850
sS'511439448270438400'
p3851
S'infrastructure_and_utilities_damage'
p3852
sS'511453425591005184'
p3853
S'sympathy_and_emotional_support'
p3854
sS'511455269998850048'
p3855
S'infrastructure_and_utilities_damage'
p3856
sS'511450704813125633'
p3857
S'infrastructure_and_utilities_damage'
p3858
sS'511442388896608256'
p3859
S'infrastructure_and_utilities_damage'
p3860
sS'511432160322940928'
p3861
S'other_useful_information'
p3862
sS'511447968449171456'
p3863
S'infrastructure_and_utilities_damage'
p3864
sS'511459210065104897'
p3865
S'infrastructure_and_utilities_damage'
p3866
sS'511441608307253249'
p3867
S'infrastructure_and_utilities_damage'
p3868
sS'511443356656730112'
p3869
S'displaced_people_and_evacuations'
p3870
sS'511428923587301376'
p3871
S'infrastructure_and_utilities_damage'
p3872
sS'511446452762324992'
p3873
S'displaced_people_and_evacuations'
p3874
sS'511442438624657408'
p3875
S'sympathy_and_emotional_support'
p3876
sS'511446277171982336'
p3877
S'infrastructure_and_utilities_damage'
p3878
sS'511438827731582976'
p3879
S'other_useful_information'
p3880
sS'511453051778260992'
p3881
S'infrastructure_and_utilities_damage'
p3882
sS'511455105405968384'
p3883
S'other_useful_information'
p3884
sS'511445344115494913'
p3885
S'other_useful_information'
p3886
sS'511445439435264000'
p3887
S'other_useful_information'
p3888
sS'511448901824823296'
p3889
S'infrastructure_and_utilities_damage'
p3890
sS'511434437179879424'
p3891
S'not_related_or_irrelevant'
p3892
sS'511435557650432000'
p3893
S'other_useful_information'
p3894
sS'511445758013636608'
p3895
S'infrastructure_and_utilities_damage'
p3896
sS'511426968022052865'
p3897
S'infrastructure_and_utilities_damage'
p3898
sS'511433463027601408'
p3899
S'other_useful_information'
p3900
sS'511444164744347648'
p3901
S'other_useful_information'
p3902
sS'511458019092463616'
p3903
S'other_useful_information'
p3904
sS'511456276727857152'
p3905
S'displaced_people_and_evacuations'
p3906
sS'511444994792898560'
p3907
S'infrastructure_and_utilities_damage'
p3908
sS'511446471829225472'
p3909
S'infrastructure_and_utilities_damage'
p3910
sS'511428951072595968'
p3911
S'injured_or_dead_people'
p3912
sS'511432277213982720'
p3913
S'other_useful_information'
p3914
sS'511434588951179264'
p3915
S'other_useful_information'
p3916
sS'511445278100975616'
p3917
S'donation_needs_or_offers_or_volunteering_services'
p3918
sS'511440378226954240'
p3919
S'sympathy_and_emotional_support'
p3920
sS'511424887572144128'
p3921
S'infrastructure_and_utilities_damage'
p3922
sS'511446541786038272'
p3923
S'infrastructure_and_utilities_damage'
p3924
sS'511451200521117696'
p3925
S'other_useful_information'
p3926
sS'511448250469990400'
p3927
S'not_related_or_irrelevant'
p3928
sS'511459356173697024'
p3929
S'infrastructure_and_utilities_damage'
p3930
sS'511427995794276352'
p3931
S'caution_and_advice'
p3932
sS'511447420807299072'
p3933
S'infrastructure_and_utilities_damage'
p3934
sS'511449334630846464'
p3935
S'infrastructure_and_utilities_damage'
p3936
sS'511442567809216513'
p3937
S'infrastructure_and_utilities_damage'
p3938
sS'511438475246043136'
p3939
S'infrastructure_and_utilities_damage'
p3940
sS'511424559556608000'
p3941
S'other_useful_information'
p3942
sS'511459232508825600'
p3943
S'sympathy_and_emotional_support'
p3944
sS'511430945182736384'
p3945
S'injured_or_dead_people'
p3946
sS'511444018652545024'
p3947
S'infrastructure_and_utilities_damage'
p3948
sS'511453826638176256'
p3949
S'infrastructure_and_utilities_damage'
p3950
sS'511440929870200832'
p3951
S'other_useful_information'
p3952
sS'511450799042727936'
p3953
S'other_useful_information'
p3954
sS'511459579570692096'
p3955
S'sympathy_and_emotional_support'
p3956
sS'511424537154449409'
p3957
S'missing_trapped_or_found_people'
p3958
sS'511442946840076289'
p3959
S'infrastructure_and_utilities_damage'
p3960
sS'511443414324228097'
p3961
S'infrastructure_and_utilities_damage'
p3962
sS'511432540541190144'
p3963
S'infrastructure_and_utilities_damage'
p3964
sS'511447722348396544'
p3965
S'infrastructure_and_utilities_damage'
p3966
sS'511453192094502912'
p3967
S'displaced_people_and_evacuations'
p3968
sS'511442220495679488'
p3969
S'infrastructure_and_utilities_damage'
p3970
sS'511447345696096256'
p3971
S'infrastructure_and_utilities_damage'
p3972
sS'511434241759260672'
p3973
S'not_related_or_irrelevant'
p3974
sS'511455209781198848'
p3975
S'other_useful_information'
p3976
sS'511455445085855744'
p3977
S'infrastructure_and_utilities_damage'
p3978
sS'511425211007119360'
p3979
S'sympathy_and_emotional_support'
p3980
sS'511444609616969728'
p3981
S'infrastructure_and_utilities_damage'
p3982
sS'511440300611747840'
p3983
S'infrastructure_and_utilities_damage'
p3984
sS'511450614279045120'
p3985
S'infrastructure_and_utilities_damage'
p3986
sS'511434354552496128'
p3987
S'infrastructure_and_utilities_damage'
p3988
sS'511459669685334016'
p3989
S'infrastructure_and_utilities_damage'
p3990
sS'511425048104931328'
p3991
S'other_useful_information'
p3992
sS'511437298844839936'
p3993
S'missing_trapped_or_found_people'
p3994
sS'511442358404009985'
p3995
S'sympathy_and_emotional_support'
p3996
sS'511447125100879874'
p3997
S'other_useful_information'
p3998
sS'511426428051550208'
p3999
S'other_useful_information'
p4000
s.