(dp0
S'511487068094988288'
p1
S'Caution and advice'
p2
sS'511486459153772544'
p3
S'Other relevant information'
p4
sS'511485823041028096'
p5
S'Other relevant information'
p6
sS'511544611718717440'
p7
S'Infrastructure and utilities'
p8
sS'511546008262569985'
p9
S'Caution and advice'
p10
sS'511488323723223040'
p11
S'Other relevant information'
p12
sS'511487012767928321'
p13
S'Other relevant information'
p14
sS'511489614629322752'
p15
S'Other relevant information'
p16
sS'511559033010933760'
p17
S'Caution and advice'
p18
sS'511544623336919040'
p19
S'Caution and advice'
p20
sS'511489170221461504'
p21
S'Other relevant information'
p22
sS'511501666454355969'
p23
S'Other relevant information'
p24
sS'511488443403481088'
p25
S'Other relevant information'
p26
sS'511557067958931456'
p27
S'Caution and advice'
p28
sS'511486276483420160'
p29
S'Displaced people'
p30
sS'511489601949540352'
p31
S'Other relevant information'
p32
sS'511545838993432577'
p33
S'Caution and advice'
p34
sS'511486371798601728'
p35
S'Sympathy and emotional support'
p36
sS'511481629932785664'
p37
S'Other relevant information'
p38
sS'511486468330508290'
p39
S'Other relevant information'
p40
sS'511552365250367488'
p41
S'Other relevant information'
p42
sS'511489818665435136'
p43
S'Other relevant information'
p44
sS'511488492250365952'
p45
S'Other relevant information'
p46
sS'511501196948144128'
p47
S'Sympathy and emotional support'
p48
sS'511486213736628224'
p49
S'Caution and advice'
p50
sS'511481898250801152'
p51
S'Caution and advice'
p52
sS'511486318699102209'
p53
S'Infrastructure and utilities'
p54
sS'511486934665805824'
p55
S'Other relevant information'
p56
sS'511497195234000896'
p57
S'Caution and advice'
p58
sS'511552456950423552'
p59
S'Other relevant information'
p60
sS'511546773840490496'
p61
S'Other relevant information'
p62
sS'511488879648456704'
p63
S'Caution and advice'
p64
sS'511517955167756289'
p65
S'Other relevant information'
p66
sS'511488937148162048'
p67
S'Other relevant information'
p68
sS'511485940821659649'
p69
S'Other relevant information'
p70
sS'511549533893840896'
p71
S'Other relevant information'
p72
sS'511500969591709696'
p73
S'Other relevant information'
p74
sS'511559798194597889'
p75
S'Caution and advice'
p76
sS'511489216774012928'
p77
S'Personal updates'
p78
sS'511502868319571968'
p79
S'Sympathy and emotional support'
p80
sS'511487080665743360'
p81
S'Other relevant information'
p82
sS'511542815097368576'
p83
S'Infrastructure and utilities'
p84
sS'511489194439737345'
p85
S'Other relevant information'
p86
sS'511503732031623170'
p87
S'Caution and advice'
p88
sS'511485752266739712'
p89
S'Not related or irrelevant'
p90
sS'511552910954889216'
p91
S'Shelter and supplies'
p92
sS'511555071944187904'
p93
S'Infrastructure and utilities'
p94
sS'511546716160806912'
p95
S'Other relevant information'
p96
sS'511505880668700673'
p97
S'Other relevant information'
p98
sS'511541675370369024'
p99
S'Other relevant information'
p100
sS'511488887559311360'
p101
S'Caution and advice'
p102
sS'511539474124128257'
p103
S'Other relevant information'
p104
sS'511560317684686848'
p105
S'Other relevant information'
p106
sS'511547267644686336'
p107
S'Other relevant information'
p108
sS'511556579636686850'
p109
S'Other relevant information'
p110
sS'511548961208139776'
p111
S'Other relevant information'
p112
sS'511550264440930304'
p113
S'Other relevant information'
p114
sS'511488899697242112'
p115
S'Caution and advice'
p116
sS'511552814393212929'
p117
S'Infrastructure and utilities'
p118
sS'511498785151647744'
p119
S'Other relevant information'
p120
sS'511560659457175552'
p121
S'Sympathy and emotional support'
p122
sS'511552294047850496'
p123
S'Shelter and supplies'
p124
sS'511482284130959360'
p125
S'Other relevant information'
p126
sS'511550316769079296'
p127
S'Infrastructure and utilities'
p128
sS'511486630088044546'
p129
S'Other relevant information'
p130
sS'511561617591791616'
p131
S'Other relevant information'
p132
sS'511503396491116545'
p133
S'Infrastructure and utilities'
p134
sS'511486115506036736'
p135
S'Other relevant information'
p136
sS'511499284223496192'
p137
S'Other relevant information'
p138
sS'511489522660823040'
p139
S'Other relevant information'
p140
sS'511489510840889344'
p141
S'Other relevant information'
p142
sS'511485734327713792'
p143
S'Other relevant information'
p144
sS'511489516318650368'
p145
S'Other relevant information'
p146
sS'511488794517073920'
p147
S'Other relevant information'
p148
sS'511499714051989504'
p149
S'Other relevant information'
p150
sS'511548165477388288'
p151
S'Other relevant information'
p152
sS'511545273806770178'
p153
S'Not related or irrelevant'
p154
sS'511556387022053376'
p155
S'Infrastructure and utilities'
p156
sS'511562149320458241'
p157
S'Other relevant information'
p158
sS'511497421244092416'
p159
S'Other relevant information'
p160
sS'511489301969137664'
p161
S'Other relevant information'
p162
sS'511547776304283649'
p163
S'Sympathy and emotional support'
p164
sS'511559044570828800'
p165
S'Caution and advice'
p166
sS'511487623609991168'
p167
S'Other relevant information'
p168
sS'511500648752226304'
p169
S'Sympathy and emotional support'
p170
sS'511486583112220673'
p171
S'Infrastructure and utilities'
p172
sS'511497157321302016'
p173
S'Displaced people'
p174
sS'511485841605423104'
p175
S'Sympathy and emotional support'
p176
sS'511556757798146048'
p177
S'Sympathy and emotional support'
p178
sS'511561921183903744'
p179
S'Other relevant information'
p180
sS'511555279339937792'
p181
S'Caution and advice'
p182
sS'511487131198709760'
p183
S'Personal updates'
p184
sS'511538673020854272'
p185
S'Infrastructure and utilities'
p186
sS'511556152388112384'
p187
S'Sympathy and emotional support'
p188
sS'511487838727069696'
p189
S'Caution and advice'
p190
sS'511490115190149120'
p191
S'Other relevant information'
p192
sS'511504955421646851'
p193
S'Other relevant information'
p194
sS'511486031741206528'
p195
S'Other relevant information'
p196
sS'511489029418659841'
p197
S'Caution and advice'
p198
sS'511506035295932416'
p199
S'Caution and advice'
p200
sS'511557159071805440'
p201
S'Caution and advice'
p202
sS'511485346962747392'
p203
S'Other relevant information'
p204
sS'511546724842627072'
p205
S'Other relevant information'
p206
sS'511487847250272257'
p207
S'Caution and advice'
p208
sS'511504981837348864'
p209
S'Other relevant information'
p210
sS'511485710374010880'
p211
S'Other relevant information'
p212
sS'511558301499523072'
p213
S'Shelter and supplies'
p214
sS'511488708525449216'
p215
S'Personal updates'
p216
sS'511486826818048000'
p217
S'Other relevant information'
p218
sS'511537264183508992'
p219
S'Other relevant information'
p220
sS'511488438584225792'
p221
S'Other relevant information'
p222
sS'511487208365494272'
p223
S'Other relevant information'
p224
sS'511503001513906176'
p225
S'Infrastructure and utilities'
p226
sS'511488716343635969'
p227
S'Caution and advice'
p228
sS'511488066326761473'
p229
S'Infrastructure and utilities'
p230
sS'511487234034663424'
p231
S'Other relevant information'
p232
sS'511554152279715840'
p233
S'Other relevant information'
p234
sS'511487011908501504'
p235
S'Other relevant information'
p236
sS'511481866415648768'
p237
S'Caution and advice'
p238
sS'511497917870272512'
p239
S'Other relevant information'
p240
sS'511488180671901696'
p241
S'Other relevant information'
p242
sS'511489482030190592'
p243
S'Other relevant information'
p244
sS'511482264815800320'
p245
S'Other relevant information'
p246
sS'511486674749390848'
p247
S'Sympathy and emotional support'
p248
sS'511502193384783872'
p249
S'Sympathy and emotional support'
p250
sS'511487458379190273'
p251
S'Displaced people'
p252
sS'511486378039734272'
p253
S'Displaced people'
p254
sS'511488350063431681'
p255
S'Other relevant information'
p256
sS'511488151508893697'
p257
S'Other relevant information'
p258
sS'511552631525765120'
p259
S'Other relevant information'
p260
sS'511502518707556352'
p261
S'Not related or irrelevant'
p262
sS'511503033365049344'
p263
S'Sympathy and emotional support'
p264
sS'511485850291830784'
p265
S'Other relevant information'
p266
sS'511488074048884736'
p267
S'Other relevant information'
p268
sS'511555357668544512'
p269
S'Caution and advice'
p270
sS'511487595789156352'
p271
S'Other relevant information'
p272
sS'511540361324687360'
p273
S'Other relevant information'
p274
sS'511557081904599040'
p275
S'Caution and advice'
p276
sS'511489818099195904'
p277
S'Sympathy and emotional support'
p278
sS'511497621853048832'
p279
S'Other relevant information'
p280
sS'511486733704122369'
p281
S'Displaced people'
p282
sS'511545443311177729'
p283
S'Other relevant information'
p284
sS'511497045795151872'
p285
S'Caution and advice'
p286
sS'511487066719264769'
p287
S'Other relevant information'
p288
sS'511489115666132992'
p289
S'Other relevant information'
p290
sS'511486037940383744'
p291
S'Other relevant information'
p292
sS'511560102516899841'
p293
S'Infrastructure and utilities'
p294
sS'511560221513089024'
p295
S'Sympathy and emotional support'
p296
sS'511551588570525697'
p297
S'Caution and advice'
p298
sS'511488874804047872'
p299
S'Other relevant information'
p300
sS'511502577725620224'
p301
S'Sympathy and emotional support'
p302
sS'511487530651615232'
p303
S'Displaced people'
p304
sS'511488427242827776'
p305
S'Other relevant information'
p306
sS'511556052224315392'
p307
S'Infrastructure and utilities'
p308
sS'511556350673829888'
p309
S'Caution and advice'
p310
sS'511539422417137664'
p311
S'Caution and advice'
p312
sS'511486153019494401'
p313
S'Other relevant information'
p314
sS'511488716863332352'
p315
S'Displaced people'
p316
sS'511482289444765696'
p317
S'Not related or irrelevant'
p318
sS'511489680672825344'
p319
S'Other relevant information'
p320
sS'511545402437287936'
p321
S'Caution and advice'
p322
sS'511486236117450752'
p323
S'Other relevant information'
p324
sS'511484906279415808'
p325
S'Other relevant information'
p326
sS'511539214689656835'
p327
S'Infrastructure and utilities'
p328
sS'511543100842328064'
p329
S'Caution and advice'
p330
sS'511551984675983360'
p331
S'Caution and advice'
p332
sS'511487980411060226'
p333
S'Other relevant information'
p334
sS'511539693926629376'
p335
S'Other relevant information'
p336
sS'511488103761330176'
p337
S'Displaced people'
p338
sS'511482511013466112'
p339
S'Other relevant information'
p340
sS'511489881646702592'
p341
S'Other relevant information'
p342
sS'511534231114510336'
p343
S'Other relevant information'
p344
sS'511489171832049664'
p345
S'Other relevant information'
p346
sS'511487885904990208'
p347
S'Caution and advice'
p348
sS'511487204573863936'
p349
S'Caution and advice'
p350
sS'511485390432133120'
p351
S'Other relevant information'
p352
sS'511487688713977856'
p353
S'Other relevant information'
p354
sS'511487814694088704'
p355
S'Infrastructure and utilities'
p356
sS'511543346313957376'
p357
S'Other relevant information'
p358
sS'511501464607281152'
p359
S'Other relevant information'
p360
sS'511530880880234497'
p361
S'Other relevant information'
p362
sS'511487317656502273'
p363
S'Other relevant information'
p364
sS'511501810293420032'
p365
S'Other relevant information'
p366
s.