(dp0
S'382835050464567296'
p1
S'injured_or_dead_people'
p2
sS'382814938156105729'
p3
S'donation_needs_or_offers_or_volunteering_services'
p4
sS'382836752941322240'
p5
S'other_useful_information'
p6
sS'382814617447436288'
p7
S'injured_or_dead_people'
p8
sS'382819453362130944'
p9
S'other_useful_information'
p10
sS'382814074439868419'
p11
S'sympathy_and_emotional_support'
p12
sS'382837466874785792'
p13
S'other_useful_information'
p14
sS'382828570315587585'
p15
S'injured_or_dead_people'
p16
sS'382823434939404290'
p17
S'donation_needs_or_offers_or_volunteering_services'
p18
sS'382833620592783360'
p19
S'sympathy_and_emotional_support'
p20
sS'382837614836858880'
p21
S'other_useful_information'
p22
sS'382830403679055873'
p23
S'other_useful_information'
p24
sS'382825383713722368'
p25
S'not_related_or_irrelevant'
p26
sS'382826048968081408'
p27
S'injured_or_dead_people'
p28
sS'382825361777512448'
p29
S'injured_or_dead_people'
p30
sS'382832173742850048'
p31
S'displaced_people_and_evacuations'
p32
sS'382831591342366720'
p33
S'sympathy_and_emotional_support'
p34
sS'382817491925622784'
p35
S'donation_needs_or_offers_or_volunteering_services'
p36
sS'382835754302308353'
p37
S'not_related_or_irrelevant'
p38
sS'382818512819200000'
p39
S'sympathy_and_emotional_support'
p40
sS'382823788565372928'
p41
S'other_useful_information'
p42
sS'382828011680059393'
p43
S'not_related_or_irrelevant'
p44
sS'382832589410533376'
p45
S'other_useful_information'
p46
sS'382827173603590144'
p47
S'not_related_or_irrelevant'
p48
sS'382822296672423937'
p49
S'other_useful_information'
p50
sS'382831603182882816'
p51
S'injured_or_dead_people'
p52
sS'382824107605516288'
p53
S'not_related_or_irrelevant'
p54
sS'382816679132020736'
p55
S'sympathy_and_emotional_support'
p56
sS'382817828422033408'
p57
S'not_related_or_irrelevant'
p58
sS'382820391666081792'
p59
S'other_useful_information'
p60
sS'382828545116241920'
p61
S'not_related_or_irrelevant'
p62
sS'382835334100570112'
p63
S'sympathy_and_emotional_support'
p64
sS'382816452325019649'
p65
S'other_useful_information'
p66
sS'382827393947152384'
p67
S'injured_or_dead_people'
p68
sS'382831107940429824'
p69
S'sympathy_and_emotional_support'
p70
sS'382833426552074240'
p71
S'not_related_or_irrelevant'
p72
sS'382815878179344384'
p73
S'donation_needs_or_offers_or_volunteering_services'
p74
sS'382834441069932544'
p75
S'donation_needs_or_offers_or_volunteering_services'
p76
sS'382821132958572545'
p77
S'caution_and_advice'
p78
sS'382830174997204993'
p79
S'injured_or_dead_people'
p80
sS'382833046451273729'
p81
S'other_useful_information'
p82
sS'382826548887187456'
p83
S'other_useful_information'
p84
sS'382830921159680000'
p85
S'other_useful_information'
p86
sS'382823553936404480'
p87
S'other_useful_information'
p88
sS'382819649781764096'
p89
S'other_useful_information'
p90
sS'382823277200015360'
p91
S'donation_needs_or_offers_or_volunteering_services'
p92
sS'382823479763927040'
p93
S'other_useful_information'
p94
sS'382814141620043776'
p95
S'other_useful_information'
p96
sS'382825313786662912'
p97
S'sympathy_and_emotional_support'
p98
sS'382813467528282112'
p99
S'injured_or_dead_people'
p100
sS'382832345562087425'
p101
S'sympathy_and_emotional_support'
p102
sS'382827594057404417'
p103
S'donation_needs_or_offers_or_volunteering_services'
p104
sS'382836129026039808'
p105
S'injured_or_dead_people'
p106
sS'382836912069050368'
p107
S'injured_or_dead_people'
p108
sS'382837314747400192'
p109
S'not_related_or_irrelevant'
p110
sS'382833738255974400'
p111
S'other_useful_information'
p112
sS'382834973797253120'
p113
S'donation_needs_or_offers_or_volunteering_services'
p114
sS'382813565054226432'
p115
S'not_related_or_irrelevant'
p116
sS'382822628487987201'
p117
S'other_useful_information'
p118
sS'382829222630129664'
p119
S'other_useful_information'
p120
sS'382813776304541697'
p121
S'other_useful_information'
p122
sS'382815862509826048'
p123
S'donation_needs_or_offers_or_volunteering_services'
p124
sS'382832053361717248'
p125
S'not_related_or_irrelevant'
p126
sS'382829991115108353'
p127
S'injured_or_dead_people'
p128
sS'382831377218928640'
p129
S'injured_or_dead_people'
p130
sS'382827949512462336'
p131
S'other_useful_information'
p132
sS'382822408068927488'
p133
S'injured_or_dead_people'
p134
sS'382820893656764416'
p135
S'not_related_or_irrelevant'
p136
sS'382817353882292224'
p137
S'other_useful_information'
p138
sS'382834662479245312'
p139
S'donation_needs_or_offers_or_volunteering_services'
p140
sS'382824699837034496'
p141
S'not_related_or_irrelevant'
p142
sS'382836203109613569'
p143
S'other_useful_information'
p144
sS'382823501549543424'
p145
S'injured_or_dead_people'
p146
sS'382829333112315904'
p147
S'injured_or_dead_people'
p148
sS'382826124763340800'
p149
S'other_useful_information'
p150
sS'382820222182637568'
p151
S'not_related_or_irrelevant'
p152
sS'382819430117675008'
p153
S'caution_and_advice'
p154
sS'382820450587668480'
p155
S'other_useful_information'
p156
sS'382833754890182656'
p157
S'donation_needs_or_offers_or_volunteering_services'
p158
sS'382813466014121984'
p159
S'not_related_or_irrelevant'
p160
sS'382822435646484481'
p161
S'donation_needs_or_offers_or_volunteering_services'
p162
sS'382832497002037248'
p163
S'other_useful_information'
p164
sS'382824577685942272'
p165
S'donation_needs_or_offers_or_volunteering_services'
p166
sS'382824408731377664'
p167
S'injured_or_dead_people'
p168
sS'382835026809081857'
p169
S'injured_or_dead_people'
p170
sS'382827962930069504'
p171
S'injured_or_dead_people'
p172
sS'382814118056431616'
p173
S'not_related_or_irrelevant'
p174
sS'382824366855430144'
p175
S'displaced_people_and_evacuations'
p176
sS'382832825759981568'
p177
S'injured_or_dead_people'
p178
sS'382825083984543746'
p179
S'injured_or_dead_people'
p180
sS'382827232793989120'
p181
S'other_useful_information'
p182
sS'382828047248130048'
p183
S'other_useful_information'
p184
sS'382825766683021312'
p185
S'other_useful_information'
p186
sS'382832044759207937'
p187
S'other_useful_information'
p188
sS'382833448114978816'
p189
S'injured_or_dead_people'
p190
sS'382831884192845824'
p191
S'injured_or_dead_people'
p192
sS'382832503297687552'
p193
S'other_useful_information'
p194
sS'382826942258348033'
p195
S'injured_or_dead_people'
p196
sS'382815093714870272'
p197
S'other_useful_information'
p198
sS'382828593929142272'
p199
S'not_related_or_irrelevant'
p200
sS'382834675254702081'
p201
S'infrastructure_and_utilities_damage'
p202
sS'382814178768990208'
p203
S'not_related_or_irrelevant'
p204
sS'382824516789215232'
p205
S'other_useful_information'
p206
sS'382829291991748608'
p207
S'not_related_or_irrelevant'
p208
sS'382836194499121152'
p209
S'other_useful_information'
p210
sS'382830045191884800'
p211
S'donation_needs_or_offers_or_volunteering_services'
p212
sS'382825365854777344'
p213
S'not_related_or_irrelevant'
p214
sS'382833245814919168'
p215
S'sympathy_and_emotional_support'
p216
sS'382831059877892096'
p217
S'other_useful_information'
p218
sS'382819659411509249'
p219
S'other_useful_information'
p220
sS'382832007442468864'
p221
S'other_useful_information'
p222
sS'382828265850671104'
p223
S'not_related_or_irrelevant'
p224
sS'382835488731975680'
p225
S'other_useful_information'
p226
sS'382814939666083841'
p227
S'not_related_or_irrelevant'
p228
sS'382826800860385280'
p229
S'sympathy_and_emotional_support'
p230
sS'382831034381127680'
p231
S'sympathy_and_emotional_support'
p232
sS'382822449156325377'
p233
S'other_useful_information'
p234
sS'382819139858870272'
p235
S'injured_or_dead_people'
p236
sS'382829180205158401'
p237
S'injured_or_dead_people'
p238
sS'382834575711297537'
p239
S'sympathy_and_emotional_support'
p240
sS'382825330488004608'
p241
S'donation_needs_or_offers_or_volunteering_services'
p242
sS'382837411496992768'
p243
S'other_useful_information'
p244
sS'382825466354102273'
p245
S'other_useful_information'
p246
sS'382819137501659136'
p247
S'not_related_or_irrelevant'
p248
sS'382834954981224448'
p249
S'other_useful_information'
p250
sS'382828369567428608'
p251
S'not_related_or_irrelevant'
p252
sS'382816557119717376'
p253
S'other_useful_information'
p254
sS'382824029599858688'
p255
S'injured_or_dead_people'
p256
sS'382829942431813632'
p257
S'sympathy_and_emotional_support'
p258
sS'382821202982862848'
p259
S'donation_needs_or_offers_or_volunteering_services'
p260
sS'382835526648098816'
p261
S'donation_needs_or_offers_or_volunteering_services'
p262
sS'382832223625281536'
p263
S'other_useful_information'
p264
sS'382815850040143872'
p265
S'sympathy_and_emotional_support'
p266
sS'382816167368196096'
p267
S'donation_needs_or_offers_or_volunteering_services'
p268
sS'382837200976887808'
p269
S'injured_or_dead_people'
p270
sS'382813514881982464'
p271
S'not_related_or_irrelevant'
p272
sS'382837568527560704'
p273
S'not_related_or_irrelevant'
p274
sS'382827530350501888'
p275
S'donation_needs_or_offers_or_volunteering_services'
p276
sS'382822552768233472'
p277
S'caution_and_advice'
p278
sS'382834448997163009'
p279
S'other_useful_information'
p280
sS'382836823040335873'
p281
S'sympathy_and_emotional_support'
p282
sS'382837140033269760'
p283
S'injured_or_dead_people'
p284
sS'382813775604105216'
p285
S'injured_or_dead_people'
p286
sS'382832357398417408'
p287
S'other_useful_information'
p288
sS'382829988153950208'
p289
S'injured_or_dead_people'
p290
sS'382817490184978432'
p291
S'caution_and_advice'
p292
sS'382819657843220480'
p293
S'other_useful_information'
p294
sS'382832126997311488'
p295
S'not_related_or_irrelevant'
p296
sS'382817833874231296'
p297
S'other_useful_information'
p298
sS'382815856595832832'
p299
S'sympathy_and_emotional_support'
p300
sS'382816620055248896'
p301
S'other_useful_information'
p302
sS'382830145759109120'
p303
S'not_related_or_irrelevant'
p304
sS'382814523507621888'
p305
S'injured_or_dead_people'
p306
sS'382837546691993600'
p307
S'not_related_or_irrelevant'
p308
sS'382833289439879169'
p309
S'other_useful_information'
p310
sS'382815548230221826'
p311
S'other_useful_information'
p312
sS'382827850664902656'
p313
S'donation_needs_or_offers_or_volunteering_services'
p314
sS'382827495055450113'
p315
S'donation_needs_or_offers_or_volunteering_services'
p316
sS'382821174960717825'
p317
S'donation_needs_or_offers_or_volunteering_services'
p318
sS'382824987276890113'
p319
S'injured_or_dead_people'
p320
sS'382835554397589504'
p321
S'not_related_or_irrelevant'
p322
sS'382829046557454336'
p323
S'not_related_or_irrelevant'
p324
sS'382832532070211584'
p325
S'other_useful_information'
p326
sS'382815067294543872'
p327
S'injured_or_dead_people'
p328
sS'382833289418903552'
p329
S'not_related_or_irrelevant'
p330
sS'382823177295888384'
p331
S'other_useful_information'
p332
sS'382824979240611840'
p333
S'other_useful_information'
p334
sS'382828364740165632'
p335
S'sympathy_and_emotional_support'
p336
sS'382819867776122880'
p337
S'other_useful_information'
p338
sS'382827271184474112'
p339
S'injured_or_dead_people'
p340
sS'382827352821993472'
p341
S'donation_needs_or_offers_or_volunteering_services'
p342
sS'382823448646807552'
p343
S'donation_needs_or_offers_or_volunteering_services'
p344
sS'382835409358553088'
p345
S'other_useful_information'
p346
sS'382824599034920960'
p347
S'caution_and_advice'
p348
sS'382828101111410688'
p349
S'donation_needs_or_offers_or_volunteering_services'
p350
sS'382815134047272960'
p351
S'donation_needs_or_offers_or_volunteering_services'
p352
sS'382835751185940480'
p353
S'other_useful_information'
p354
sS'382830420314030080'
p355
S'other_useful_information'
p356
sS'382822908147822592'
p357
S'other_useful_information'
p358
sS'382836484774318080'
p359
S'other_useful_information'
p360
sS'382819355035447296'
p361
S'other_useful_information'
p362
sS'382831441035673600'
p363
S'other_useful_information'
p364
sS'382832810026758144'
p365
S'other_useful_information'
p366
sS'382837428857221120'
p367
S'sympathy_and_emotional_support'
p368
sS'382836234814369792'
p369
S'other_useful_information'
p370
sS'382826467203104770'
p371
S'not_related_or_irrelevant'
p372
sS'382829216821026818'
p373
S'sympathy_and_emotional_support'
p374
sS'382824871849254912'
p375
S'infrastructure_and_utilities_damage'
p376
sS'382826916119867392'
p377
S'not_related_or_irrelevant'
p378
sS'382816210012098560'
p379
S'not_related_or_irrelevant'
p380
sS'382823233105297408'
p381
S'donation_needs_or_offers_or_volunteering_services'
p382
sS'382819696611188736'
p383
S'other_useful_information'
p384
sS'382830239136497664'
p385
S'other_useful_information'
p386
sS'382816715907678209'
p387
S'not_related_or_irrelevant'
p388
sS'382831639245516800'
p389
S'other_useful_information'
p390
sS'382828496147734528'
p391
S'other_useful_information'
p392
sS'382821445631356928'
p393
S'other_useful_information'
p394
sS'382836097358643201'
p395
S'not_related_or_irrelevant'
p396
sS'382836987465461760'
p397
S'not_related_or_irrelevant'
p398
sS'382814746774626304'
p399
S'not_related_or_irrelevant'
p400
sS'382825135696142336'
p401
S'sympathy_and_emotional_support'
p402
sS'382814425574805504'
p403
S'injured_or_dead_people'
p404
sS'382831701464195072'
p405
S'donation_needs_or_offers_or_volunteering_services'
p406
sS'382828131624574976'
p407
S'injured_or_dead_people'
p408
sS'382818128243085312'
p409
S'injured_or_dead_people'
p410
sS'382835741526470656'
p411
S'not_related_or_irrelevant'
p412
sS'382823169301544960'
p413
S'sympathy_and_emotional_support'
p414
sS'382817968205205504'
p415
S'sympathy_and_emotional_support'
p416
sS'382813569597071360'
p417
S'injured_or_dead_people'
p418
sS'382836582157676544'
p419
S'other_useful_information'
p420
sS'382826692802510848'
p421
S'other_useful_information'
p422
sS'382834872177262592'
p423
S'not_related_or_irrelevant'
p424
sS'382825979397570560'
p425
S'injured_or_dead_people'
p426
sS'382821963229454336'
p427
S'other_useful_information'
p428
sS'382819717985353728'
p429
S'injured_or_dead_people'
p430
sS'382824518193934337'
p431
S'injured_or_dead_people'
p432
sS'382817160017772544'
p433
S'donation_needs_or_offers_or_volunteering_services'
p434
sS'382822450658308096'
p435
S'not_related_or_irrelevant'
p436
sS'382817175712436224'
p437
S'donation_needs_or_offers_or_volunteering_services'
p438
sS'382832990763483140'
p439
S'not_related_or_irrelevant'
p440
sS'382831700071690240'
p441
S'other_useful_information'
p442
sS'382837307000512512'
p443
S'other_useful_information'
p444
sS'382833642214797312'
p445
S'not_related_or_irrelevant'
p446
sS'382818532578574336'
p447
S'other_useful_information'
p448
sS'382814989817364480'
p449
S'other_useful_information'
p450
sS'382833148922314753'
p451
S'other_useful_information'
p452
sS'382826322441277440'
p453
S'other_useful_information'
p454
sS'382814017099558912'
p455
S'other_useful_information'
p456
sS'382833193680117760'
p457
S'other_useful_information'
p458
sS'382815488935342082'
p459
S'other_useful_information'
p460
sS'382816846363123713'
p461
S'not_related_or_irrelevant'
p462
sS'382830396435464192'
p463
S'injured_or_dead_people'
p464
sS'382820135687716864'
p465
S'not_related_or_irrelevant'
p466
sS'382834112006197248'
p467
S'not_related_or_irrelevant'
p468
sS'382826203318464512'
p469
S'other_useful_information'
p470
sS'382830992987144192'
p471
S'donation_needs_or_offers_or_volunteering_services'
p472
sS'382826464975941632'
p473
S'other_useful_information'
p474
sS'382813945913831424'
p475
S'caution_and_advice'
p476
sS'382814125899784192'
p477
S'other_useful_information'
p478
sS'382831582572064768'
p479
S'not_related_or_irrelevant'
p480
sS'382823945667215360'
p481
S'injured_or_dead_people'
p482
sS'382832700555411457'
p483
S'other_useful_information'
p484
sS'382837286297415680'
p485
S'injured_or_dead_people'
p486
sS'382827926854856704'
p487
S'other_useful_information'
p488
sS'382834465409871872'
p489
S'not_related_or_irrelevant'
p490
sS'382823900356550657'
p491
S'not_related_or_irrelevant'
p492
sS'382836898806632449'
p493
S'sympathy_and_emotional_support'
p494
sS'382836962047963136'
p495
S'injured_or_dead_people'
p496
sS'382822855915741185'
p497
S'other_useful_information'
p498
sS'382829133992312832'
p499
S'other_useful_information'
p500
sS'382817340909682688'
p501
S'injured_or_dead_people'
p502
sS'382818597196017664'
p503
S'other_useful_information'
p504
sS'382833219730935809'
p505
S'sympathy_and_emotional_support'
p506
sS'382831034540494848'
p507
S'other_useful_information'
p508
sS'382826257169514496'
p509
S'donation_needs_or_offers_or_volunteering_services'
p510
sS'382825203262185473'
p511
S'donation_needs_or_offers_or_volunteering_services'
p512
sS'382816578271592448'
p513
S'other_useful_information'
p514
sS'382824341152333826'
p515
S'other_useful_information'
p516
sS'382826325351751680'
p517
S'other_useful_information'
p518
sS'382832227085590528'
p519
S'donation_needs_or_offers_or_volunteering_services'
p520
sS'382833268410048512'
p521
S'not_related_or_irrelevant'
p522
sS'382829694951124993'
p523
S'not_related_or_irrelevant'
p524
sS'382827078770782208'
p525
S'other_useful_information'
p526
sS'382816512249044992'
p527
S'other_useful_information'
p528
sS'382823256426045440'
p529
S'injured_or_dead_people'
p530
sS'382823092864966656'
p531
S'not_related_or_irrelevant'
p532
sS'382822501417365505'
p533
S'injured_or_dead_people'
p534
sS'382818218240274432'
p535
S'other_useful_information'
p536
sS'382829260735385602'
p537
S'other_useful_information'
p538
sS'382831744631590912'
p539
S'not_related_or_irrelevant'
p540
sS'382832485190488064'
p541
S'infrastructure_and_utilities_damage'
p542
sS'382830094768566273'
p543
S'injured_or_dead_people'
p544
sS'382825680892723200'
p545
S'not_related_or_irrelevant'
p546
sS'382814978098483200'
p547
S'not_related_or_irrelevant'
p548
sS'382827272191090688'
p549
S'not_related_or_irrelevant'
p550
sS'382818613763112960'
p551
S'other_useful_information'
p552
sS'382832836480614400'
p553
S'injured_or_dead_people'
p554
sS'382827410401787904'
p555
S'other_useful_information'
p556
sS'382814148851023872'
p557
S'sympathy_and_emotional_support'
p558
sS'382826107398930432'
p559
S'sympathy_and_emotional_support'
p560
sS'382817862349377537'
p561
S'other_useful_information'
p562
sS'382814634090037248'
p563
S'other_useful_information'
p564
sS'382828083020980224'
p565
S'not_related_or_irrelevant'
p566
sS'382822933896241152'
p567
S'injured_or_dead_people'
p568
sS'382831806103293953'
p569
S'injured_or_dead_people'
p570
sS'382818823495102464'
p571
S'injured_or_dead_people'
p572
sS'382827662109986816'
p573
S'donation_needs_or_offers_or_volunteering_services'
p574
sS'382817283846209537'
p575
S'donation_needs_or_offers_or_volunteering_services'
p576
sS'382825788300460032'
p577
S'other_useful_information'
p578
sS'382817147962925057'
p579
S'other_useful_information'
p580
sS'382832850825150464'
p581
S'donation_needs_or_offers_or_volunteering_services'
p582
sS'382826947744501761'
p583
S'caution_and_advice'
p584
sS'382823600816156672'
p585
S'caution_and_advice'
p586
sS'382837306920423426'
p587
S'other_useful_information'
p588
sS'382837419802132480'
p589
S'other_useful_information'
p590
sS'382834115864559616'
p591
S'injured_or_dead_people'
p592
sS'382820202452246528'
p593
S'other_useful_information'
p594
sS'382816951141015552'
p595
S'infrastructure_and_utilities_damage'
p596
sS'382823078025519104'
p597
S'not_related_or_irrelevant'
p598
sS'382815731915554816'
p599
S'donation_needs_or_offers_or_volunteering_services'
p600
sS'382837479147335681'
p601
S'other_useful_information'
p602
sS'382827402876825600'
p603
S'donation_needs_or_offers_or_volunteering_services'
p604
sS'382835779392651264'
p605
S'injured_or_dead_people'
p606
sS'382827808248307712'
p607
S'other_useful_information'
p608
sS'382825110932955136'
p609
S'donation_needs_or_offers_or_volunteering_services'
p610
sS'382824558723862528'
p611
S'not_related_or_irrelevant'
p612
sS'382836570157371393'
p613
S'injured_or_dead_people'
p614
sS'382821134179110912'
p615
S'injured_or_dead_people'
p616
sS'382817014873485313'
p617
S'other_useful_information'
p618
sS'382833930333724672'
p619
S'other_useful_information'
p620
sS'382816993713213441'
p621
S'other_useful_information'
p622
sS'382825658574835713'
p623
S'other_useful_information'
p624
sS'382829764895342592'
p625
S'injured_or_dead_people'
p626
sS'382828747075747840'
p627
S'injured_or_dead_people'
p628
sS'382828676938596352'
p629
S'other_useful_information'
p630
sS'382827072655482880'
p631
S'injured_or_dead_people'
p632
sS'382820174677946368'
p633
S'injured_or_dead_people'
p634
sS'382831594534629376'
p635
S'sympathy_and_emotional_support'
p636
sS'382826981064462336'
p637
S'other_useful_information'
p638
sS'382824376837881856'
p639
S'other_useful_information'
p640
sS'382825934996262912'
p641
S'other_useful_information'
p642
sS'382829901499203584'
p643
S'not_related_or_irrelevant'
p644
sS'382828117393289216'
p645
S'not_related_or_irrelevant'
p646
sS'382836649521995776'
p647
S'injured_or_dead_people'
p648
sS'382824623353507840'
p649
S'other_useful_information'
p650
sS'382823506645250048'
p651
S'injured_or_dead_people'
p652
sS'382837388764250112'
p653
S'not_related_or_irrelevant'
p654
sS'382815408903843840'
p655
S'injured_or_dead_people'
p656
sS'382819534685491200'
p657
S'injured_or_dead_people'
p658
sS'382819703540183040'
p659
S'donation_needs_or_offers_or_volunteering_services'
p660
sS'382826794182656000'
p661
S'not_related_or_irrelevant'
p662
sS'382818933092261888'
p663
S'caution_and_advice'
p664
sS'382817065624543233'
p665
S'injured_or_dead_people'
p666
sS'382831267487956992'
p667
S'injured_or_dead_people'
p668
sS'382821569916981248'
p669
S'injured_or_dead_people'
p670
sS'382834356907040768'
p671
S'not_related_or_irrelevant'
p672
sS'382832340869087232'
p673
S'other_useful_information'
p674
sS'382827730858831873'
p675
S'other_useful_information'
p676
sS'382816204877885440'
p677
S'donation_needs_or_offers_or_volunteering_services'
p678
sS'382816180055977984'
p679
S'injured_or_dead_people'
p680
sS'382822236907773952'
p681
S'other_useful_information'
p682
sS'382835615349604352'
p683
S'other_useful_information'
p684
sS'382832635627978752'
p685
S'not_related_or_irrelevant'
p686
sS'382830146526269440'
p687
S'not_related_or_irrelevant'
p688
sS'382820570724720640'
p689
S'injured_or_dead_people'
p690
sS'382833495459909632'
p691
S'other_useful_information'
p692
sS'382821327062589440'
p693
S'donation_needs_or_offers_or_volunteering_services'
p694
sS'382825755492626432'
p695
S'not_related_or_irrelevant'
p696
sS'382818911332212736'
p697
S'injured_or_dead_people'
p698
sS'382837605697474560'
p699
S'other_useful_information'
p700
sS'382829141193527296'
p701
S'other_useful_information'
p702
sS'382832937458470912'
p703
S'sympathy_and_emotional_support'
p704
sS'382822319519170560'
p705
S'injured_or_dead_people'
p706
sS'382818856621723648'
p707
S'caution_and_advice'
p708
sS'382815139314937856'
p709
S'injured_or_dead_people'
p710
sS'382818525020045313'
p711
S'donation_needs_or_offers_or_volunteering_services'
p712
sS'382833700854980608'
p713
S'not_related_or_irrelevant'
p714
sS'382818497744490496'
p715
S'other_useful_information'
p716
sS'382833041149665280'
p717
S'other_useful_information'
p718
sS'382833808212361217'
p719
S'injured_or_dead_people'
p720
sS'382832139336560640'
p721
S'other_useful_information'
p722
sS'382823099097300993'
p723
S'not_related_or_irrelevant'
p724
sS'382833311564840960'
p725
S'displaced_people_and_evacuations'
p726
sS'382831540532961280'
p727
S'donation_needs_or_offers_or_volunteering_services'
p728
sS'382820921540476928'
p729
S'injured_or_dead_people'
p730
sS'382818992143867905'
p731
S'other_useful_information'
p732
sS'382828529601089536'
p733
S'not_related_or_irrelevant'
p734
sS'382829349365239808'
p735
S'injured_or_dead_people'
p736
sS'382828350878011392'
p737
S'donation_needs_or_offers_or_volunteering_services'
p738
sS'382825080499470336'
p739
S'donation_needs_or_offers_or_volunteering_services'
p740
sS'382815654471938048'
p741
S'donation_needs_or_offers_or_volunteering_services'
p742
sS'382831889435738112'
p743
S'not_related_or_irrelevant'
p744
sS'382826683109498880'
p745
S'donation_needs_or_offers_or_volunteering_services'
p746
sS'382831351264604160'
p747
S'other_useful_information'
p748
sS'382830343553679360'
p749
S'injured_or_dead_people'
p750
sS'382827729357651968'
p751
S'not_related_or_irrelevant'
p752
sS'382836979164905472'
p753
S'other_useful_information'
p754
sS'382831160658640897'
p755
S'donation_needs_or_offers_or_volunteering_services'
p756
sS'382827615242842112'
p757
S'sympathy_and_emotional_support'
p758
sS'382833535372886016'
p759
S'other_useful_information'
p760
sS'382831083630657537'
p761
S'injured_or_dead_people'
p762
sS'382823165795508224'
p763
S'not_related_or_irrelevant'
p764
sS'382822963080200193'
p765
S'other_useful_information'
p766
sS'382831227914301440'
p767
S'not_related_or_irrelevant'
p768
sS'382831413642690560'
p769
S'not_related_or_irrelevant'
p770
sS'382826645821726720'
p771
S'injured_or_dead_people'
p772
sS'382821843012308992'
p773
S'other_useful_information'
p774
sS'382835613960896512'
p775
S'donation_needs_or_offers_or_volunteering_services'
p776
sS'382831508936867840'
p777
S'other_useful_information'
p778
sS'382833195890139136'
p779
S'sympathy_and_emotional_support'
p780
sS'382829746192531456'
p781
S'other_useful_information'
p782
sS'382822285281067008'
p783
S'injured_or_dead_people'
p784
sS'382834687120375808'
p785
S'other_useful_information'
p786
sS'382834940695425024'
p787
S'donation_needs_or_offers_or_volunteering_services'
p788
sS'382826142472105984'
p789
S'donation_needs_or_offers_or_volunteering_services'
p790
sS'382829531041517568'
p791
S'other_useful_information'
p792
sS'382828262092587008'
p793
S'donation_needs_or_offers_or_volunteering_services'
p794
sS'382831708724531200'
p795
S'injured_or_dead_people'
p796
sS'382822749301141504'
p797
S'injured_or_dead_people'
p798
sS'382814146691346432'
p799
S'not_related_or_irrelevant'
p800
sS'382823983022108672'
p801
S'injured_or_dead_people'
p802
sS'382816126389866497'
p803
S'donation_needs_or_offers_or_volunteering_services'
p804
sS'382834660708855809'
p805
S'other_useful_information'
p806
sS'382815045748400128'
p807
S'not_related_or_irrelevant'
p808
sS'382827810764509184'
p809
S'donation_needs_or_offers_or_volunteering_services'
p810
sS'382833054357917696'
p811
S'donation_needs_or_offers_or_volunteering_services'
p812
sS'382830374813855745'
p813
S'other_useful_information'
p814
sS'382826775677771776'
p815
S'sympathy_and_emotional_support'
p816
sS'382821232032219136'
p817
S'other_useful_information'
p818
sS'382815137997942784'
p819
S'other_useful_information'
p820
sS'382813719941484544'
p821
S'caution_and_advice'
p822
sS'382836639502200832'
p823
S'infrastructure_and_utilities_damage'
p824
sS'382814158682877952'
p825
S'other_useful_information'
p826
sS'382826855503392768'
p827
S'injured_or_dead_people'
p828
sS'382833954409041920'
p829
S'injured_or_dead_people'
p830
sS'382830152813903872'
p831
S'injured_or_dead_people'
p832
sS'382836263696748544'
p833
S'other_useful_information'
p834
sS'382814800163508224'
p835
S'donation_needs_or_offers_or_volunteering_services'
p836
sS'382824739473227776'
p837
S'injured_or_dead_people'
p838
sS'382819043113046016'
p839
S'injured_or_dead_people'
p840
sS'382828468238422018'
p841
S'infrastructure_and_utilities_damage'
p842
sS'382826096070115328'
p843
S'injured_or_dead_people'
p844
sS'382813812040409089'
p845
S'other_useful_information'
p846
sS'382832054939176960'
p847
S'injured_or_dead_people'
p848
sS'382823962151243776'
p849
S'other_useful_information'
p850
sS'382826035135266818'
p851
S'other_useful_information'
p852
sS'382836322995408897'
p853
S'other_useful_information'
p854
sS'382819645721690113'
p855
S'injured_or_dead_people'
p856
sS'382836196944404480'
p857
S'injured_or_dead_people'
p858
sS'382822759954673664'
p859
S'caution_and_advice'
p860
sS'382827557982593024'
p861
S'other_useful_information'
p862
sS'382829480164593664'
p863
S'sympathy_and_emotional_support'
p864
sS'382823754432143361'
p865
S'injured_or_dead_people'
p866
sS'382832029772943360'
p867
S'not_related_or_irrelevant'
p868
sS'382823394325979136'
p869
S'sympathy_and_emotional_support'
p870
sS'382833737777827840'
p871
S'other_useful_information'
p872
sS'382822857799368704'
p873
S'donation_needs_or_offers_or_volunteering_services'
p874
sS'382824348572057600'
p875
S'other_useful_information'
p876
sS'382825369369198592'
p877
S'other_useful_information'
p878
sS'382824615275671552'
p879
S'other_useful_information'
p880
sS'382821025354108928'
p881
S'injured_or_dead_people'
p882
sS'382822879311564801'
p883
S'other_useful_information'
p884
sS'382823867040808961'
p885
S'other_useful_information'
p886
sS'382815658540818432'
p887
S'other_useful_information'
p888
sS'382819652004352000'
p889
S'injured_or_dead_people'
p890
sS'382831682296233984'
p891
S'not_related_or_irrelevant'
p892
sS'382819355571937281'
p893
S'other_useful_information'
p894
sS'382836250467528704'
p895
S'other_useful_information'
p896
sS'382817875024965632'
p897
S'injured_or_dead_people'
p898
sS'382833129519865856'
p899
S'other_useful_information'
p900
sS'382822075297058816'
p901
S'not_related_or_irrelevant'
p902
sS'382823345521442816'
p903
S'other_useful_information'
p904
sS'382816039899521024'
p905
S'caution_and_advice'
p906
sS'382836185674309632'
p907
S'injured_or_dead_people'
p908
sS'382818044294496256'
p909
S'not_related_or_irrelevant'
p910
sS'382825324070719488'
p911
S'donation_needs_or_offers_or_volunteering_services'
p912
sS'382815462645440512'
p913
S'other_useful_information'
p914
sS'382830322540244992'
p915
S'not_related_or_irrelevant'
p916
sS'382827789939769344'
p917
S'other_useful_information'
p918
sS'382822712013758464'
p919
S'other_useful_information'
p920
sS'382828744161124352'
p921
S'not_related_or_irrelevant'
p922
sS'382824614373498880'
p923
S'not_related_or_irrelevant'
p924
sS'382832804716769280'
p925
S'injured_or_dead_people'
p926
sS'382813501729017856'
p927
S'other_useful_information'
p928
sS'382825687913988096'
p929
S'donation_needs_or_offers_or_volunteering_services'
p930
sS'382836313562435584'
p931
S'other_useful_information'
p932
sS'382817190937763840'
p933
S'other_useful_information'
p934
sS'382832078767026176'
p935
S'donation_needs_or_offers_or_volunteering_services'
p936
sS'382819537588326400'
p937
S'other_useful_information'
p938
sS'382824857865830400'
p939
S'not_related_or_irrelevant'
p940
sS'382825531730702336'
p941
S'injured_or_dead_people'
p942
sS'382817810939789312'
p943
S'other_useful_information'
p944
sS'382822450951880704'
p945
S'injured_or_dead_people'
p946
sS'382832713864314880'
p947
S'caution_and_advice'
p948
sS'382822841030148096'
p949
S'other_useful_information'
p950
sS'382824413600575488'
p951
S'not_related_or_irrelevant'
p952
sS'382828995047620608'
p953
S'injured_or_dead_people'
p954
sS'382818707967578112'
p955
S'donation_needs_or_offers_or_volunteering_services'
p956
sS'382831281723031553'
p957
S'donation_needs_or_offers_or_volunteering_services'
p958
sS'382836555997396992'
p959
S'other_useful_information'
p960
sS'382823900662341632'
p961
S'other_useful_information'
p962
sS'382833167163740160'
p963
S'injured_or_dead_people'
p964
sS'382822113901424641'
p965
S'other_useful_information'
p966
sS'382822317627150336'
p967
S'donation_needs_or_offers_or_volunteering_services'
p968
sS'382819579510403072'
p969
S'injured_or_dead_people'
p970
sS'382826945139843072'
p971
S'not_related_or_irrelevant'
p972
sS'382827047674208256'
p973
S'not_related_or_irrelevant'
p974
sS'382835495174037504'
p975
S'infrastructure_and_utilities_damage'
p976
sS'382822886446096384'
p977
S'donation_needs_or_offers_or_volunteering_services'
p978
sS'382814134032531456'
p979
S'displaced_people_and_evacuations'
p980
sS'382828233550331905'
p981
S'not_related_or_irrelevant'
p982
sS'382816788473729024'
p983
S'donation_needs_or_offers_or_volunteering_services'
p984
sS'382816301028089856'
p985
S'not_related_or_irrelevant'
p986
sS'382818557643730944'
p987
S'donation_needs_or_offers_or_volunteering_services'
p988
sS'382830110740455424'
p989
S'displaced_people_and_evacuations'
p990
sS'382828265695477760'
p991
S'donation_needs_or_offers_or_volunteering_services'
p992
sS'382824758938984448'
p993
S'other_useful_information'
p994
sS'382819854081732608'
p995
S'donation_needs_or_offers_or_volunteering_services'
p996
sS'382827851294068737'
p997
S'other_useful_information'
p998
sS'382817043637993472'
p999
S'other_useful_information'
p1000
sS'382831983727890432'
p1001
S'other_useful_information'
p1002
sS'382822916418973696'
p1003
S'not_related_or_irrelevant'
p1004
sS'382816203741622272'
p1005
S'other_useful_information'
p1006
sS'382831951578546176'
p1007
S'other_useful_information'
p1008
sS'382814940223926272'
p1009
S'other_useful_information'
p1010
sS'382835589399080961'
p1011
S'donation_needs_or_offers_or_volunteering_services'
p1012
sS'382824629049778176'
p1013
S'infrastructure_and_utilities_damage'
p1014
sS'382815604484620288'
p1015
S'injured_or_dead_people'
p1016
sS'382822764786089984'
p1017
S'donation_needs_or_offers_or_volunteering_services'
p1018
sS'382833028764270592'
p1019
S'other_useful_information'
p1020
sS'382828736733020160'
p1021
S'other_useful_information'
p1022
sS'382825287861276672'
p1023
S'displaced_people_and_evacuations'
p1024
sS'382814060385161216'
p1025
S'caution_and_advice'
p1026
sS'382821772698984448'
p1027
S'other_useful_information'
p1028
sS'382832561291939840'
p1029
S'injured_or_dead_people'
p1030
sS'382832411672711168'
p1031
S'other_useful_information'
p1032
sS'382836685257453568'
p1033
S'donation_needs_or_offers_or_volunteering_services'
p1034
sS'382830882069176320'
p1035
S'other_useful_information'
p1036
sS'382814086519869441'
p1037
S'not_related_or_irrelevant'
p1038
sS'382823828373508097'
p1039
S'other_useful_information'
p1040
sS'382834863117959168'
p1041
S'infrastructure_and_utilities_damage'
p1042
sS'382836701371965441'
p1043
S'injured_or_dead_people'
p1044
sS'382835612673642496'
p1045
S'not_related_or_irrelevant'
p1046
sS'382828528070586368'
p1047
S'injured_or_dead_people'
p1048
sS'382819348764577792'
p1049
S'other_useful_information'
p1050
sS'382836834620805121'
p1051
S'not_related_or_irrelevant'
p1052
sS'382835871919001601'
p1053
S'donation_needs_or_offers_or_volunteering_services'
p1054
sS'382824150001127424'
p1055
S'caution_and_advice'
p1056
sS'382818883595689984'
p1057
S'displaced_people_and_evacuations'
p1058
sS'382819489512828928'
p1059
S'donation_needs_or_offers_or_volunteering_services'
p1060
sS'382833066646831105'
p1061
S'infrastructure_and_utilities_damage'
p1062
sS'382825477603201027'
p1063
S'injured_or_dead_people'
p1064
sS'382814115276025856'
p1065
S'not_related_or_irrelevant'
p1066
sS'382835136427208704'
p1067
S'donation_needs_or_offers_or_volunteering_services'
p1068
sS'382819389768097792'
p1069
S'other_useful_information'
p1070
sS'382815649736953856'
p1071
S'other_useful_information'
p1072
sS'382816267591110657'
p1073
S'not_related_or_irrelevant'
p1074
sS'382832131266719744'
p1075
S'injured_or_dead_people'
p1076
sS'382815302993842176'
p1077
S'donation_needs_or_offers_or_volunteering_services'
p1078
sS'382833940785938432'
p1079
S'other_useful_information'
p1080
sS'382813587410259968'
p1081
S'injured_or_dead_people'
p1082
sS'382834415325310976'
p1083
S'other_useful_information'
p1084
sS'382831413290344448'
p1085
S'other_useful_information'
p1086
sS'382830108761153536'
p1087
S'not_related_or_irrelevant'
p1088
sS'382833935040143360'
p1089
S'sympathy_and_emotional_support'
p1090
sS'382814138235236352'
p1091
S'other_useful_information'
p1092
sS'382837196773814272'
p1093
S'injured_or_dead_people'
p1094
sS'382814374018031616'
p1095
S'other_useful_information'
p1096
sS'382836550423154688'
p1097
S'injured_or_dead_people'
p1098
sS'382833358088069120'
p1099
S'other_useful_information'
p1100
sS'382834494732242944'
p1101
S'donation_needs_or_offers_or_volunteering_services'
p1102
sS'382834788819677184'
p1103
S'injured_or_dead_people'
p1104
sS'382837300935131136'
p1105
S'other_useful_information'
p1106
sS'382833580163862528'
p1107
S'other_useful_information'
p1108
sS'382824222411980801'
p1109
S'injured_or_dead_people'
p1110
sS'382815962438713344'
p1111
S'other_useful_information'
p1112
sS'382826124117831680'
p1113
S'not_related_or_irrelevant'
p1114
sS'382818785037529088'
p1115
S'caution_and_advice'
p1116
sS'382833105431564288'
p1117
S'not_related_or_irrelevant'
p1118
sS'382822368126595072'
p1119
S'other_useful_information'
p1120
sS'382813702132867072'
p1121
S'other_useful_information'
p1122
sS'382831675408785409'
p1123
S'other_useful_information'
p1124
sS'382814482314973185'
p1125
S'sympathy_and_emotional_support'
p1126
sS'382834796722139136'
p1127
S'other_useful_information'
p1128
sS'382818268131885056'
p1129
S'sympathy_and_emotional_support'
p1130
sS'382835659867963392'
p1131
S'injured_or_dead_people'
p1132
sS'382835147994701824'
p1133
S'other_useful_information'
p1134
sS'382818648995274752'
p1135
S'injured_or_dead_people'
p1136
sS'382830861798105088'
p1137
S'donation_needs_or_offers_or_volunteering_services'
p1138
sS'382824525324619776'
p1139
S'not_related_or_irrelevant'
p1140
sS'382836279315939328'
p1141
S'other_useful_information'
p1142
sS'382815140665491456'
p1143
S'injured_or_dead_people'
p1144
sS'382822305250148352'
p1145
S'donation_needs_or_offers_or_volunteering_services'
p1146
sS'382832217816182784'
p1147
S'not_related_or_irrelevant'
p1148
sS'382835130899103744'
p1149
S'donation_needs_or_offers_or_volunteering_services'
p1150
sS'382814863774326784'
p1151
S'other_useful_information'
p1152
sS'382824680748363776'
p1153
S'other_useful_information'
p1154
sS'382823434503217153'
p1155
S'injured_or_dead_people'
p1156
sS'382827132931424256'
p1157
S'caution_and_advice'
p1158
sS'382835096140906496'
p1159
S'injured_or_dead_people'
p1160
sS'382836963964747776'
p1161
S'not_related_or_irrelevant'
p1162
sS'382829540323520512'
p1163
S'not_related_or_irrelevant'
p1164
sS'382830305247498240'
p1165
S'other_useful_information'
p1166
sS'382828825387618305'
p1167
S'donation_needs_or_offers_or_volunteering_services'
p1168
sS'382814125673693184'
p1169
S'not_related_or_irrelevant'
p1170
sS'382835213073534978'
p1171
S'donation_needs_or_offers_or_volunteering_services'
p1172
sS'382832682604183552'
p1173
S'not_related_or_irrelevant'
p1174
sS'382822618291658752'
p1175
S'injured_or_dead_people'
p1176
sS'382825674056404992'
p1177
S'injured_or_dead_people'
p1178
sS'382815607491923968'
p1179
S'injured_or_dead_people'
p1180
sS'382831439605411840'
p1181
S'other_useful_information'
p1182
sS'382831622136950785'
p1183
S'donation_needs_or_offers_or_volunteering_services'
p1184
sS'382827072747753472'
p1185
S'other_useful_information'
p1186
sS'382835676779413505'
p1187
S'other_useful_information'
p1188
sS'382832700673253377'
p1189
S'other_useful_information'
p1190
sS'382835485611008000'
p1191
S'not_related_or_irrelevant'
p1192
sS'382826845575467008'
p1193
S'other_useful_information'
p1194
sS'382835582595919872'
p1195
S'not_related_or_irrelevant'
p1196
sS'382818735285080064'
p1197
S'not_related_or_irrelevant'
p1198
sS'382825441863958528'
p1199
S'injured_or_dead_people'
p1200
sS'382814901263015937'
p1201
S'not_related_or_irrelevant'
p1202
sS'382814998864478208'
p1203
S'donation_needs_or_offers_or_volunteering_services'
p1204
sS'382836292452491265'
p1205
S'other_useful_information'
p1206
sS'382817678903083008'
p1207
S'other_useful_information'
p1208
sS'382832608289095680'
p1209
S'not_related_or_irrelevant'
p1210
sS'382834856419291136'
p1211
S'other_useful_information'
p1212
sS'382824241579556864'
p1213
S'injured_or_dead_people'
p1214
sS'382818181821509632'
p1215
S'injured_or_dead_people'
p1216
sS'382825174703161345'
p1217
S'caution_and_advice'
p1218
sS'382816005744889857'
p1219
S'donation_needs_or_offers_or_volunteering_services'
p1220
sS'382819940501164032'
p1221
S'injured_or_dead_people'
p1222
sS'382826837300105216'
p1223
S'caution_and_advice'
p1224
sS'382836208155754496'
p1225
S'sympathy_and_emotional_support'
p1226
sS'382830524882243584'
p1227
S'other_useful_information'
p1228
sS'382813742683398144'
p1229
S'injured_or_dead_people'
p1230
sS'382836873820778496'
p1231
S'caution_and_advice'
p1232
sS'382822369699840000'
p1233
S'not_related_or_irrelevant'
p1234
sS'382814132225191936'
p1235
S'donation_needs_or_offers_or_volunteering_services'
p1236
sS'382822391438508032'
p1237
S'other_useful_information'
p1238
sS'382825863890599936'
p1239
S'other_useful_information'
p1240
sS'382815139994415104'
p1241
S'donation_needs_or_offers_or_volunteering_services'
p1242
sS'382832652388024321'
p1243
S'other_useful_information'
p1244
sS'382814116127465472'
p1245
S'donation_needs_or_offers_or_volunteering_services'
p1246
sS'382832753974050816'
p1247
S'other_useful_information'
p1248
sS'382830294060892160'
p1249
S'other_useful_information'
p1250
sS'382819713413152769'
p1251
S'donation_needs_or_offers_or_volunteering_services'
p1252
sS'382822369766961152'
p1253
S'sympathy_and_emotional_support'
p1254
sS'382832254893817856'
p1255
S'not_related_or_irrelevant'
p1256
sS'382818341951254529'
p1257
S'sympathy_and_emotional_support'
p1258
sS'382823351544471553'
p1259
S'caution_and_advice'
p1260
sS'382834998643933184'
p1261
S'other_useful_information'
p1262
sS'382830365171138560'
p1263
S'other_useful_information'
p1264
sS'382828070735855617'
p1265
S'not_related_or_irrelevant'
p1266
sS'382821063916138497'
p1267
S'other_useful_information'
p1268
sS'382817951738388480'
p1269
S'injured_or_dead_people'
p1270
sS'382837523417821185'
p1271
S'donation_needs_or_offers_or_volunteering_services'
p1272
sS'382832371088633856'
p1273
S'injured_or_dead_people'
p1274
sS'382831529380315137'
p1275
S'other_useful_information'
p1276
sS'382834577271554048'
p1277
S'sympathy_and_emotional_support'
p1278
sS'382819486929526784'
p1279
S'donation_needs_or_offers_or_volunteering_services'
p1280
sS'382831335552720896'
p1281
S'donation_needs_or_offers_or_volunteering_services'
p1282
sS'382827723099340800'
p1283
S'injured_or_dead_people'
p1284
sS'382830287362592768'
p1285
S'donation_needs_or_offers_or_volunteering_services'
p1286
sS'382827637162266624'
p1287
S'injured_or_dead_people'
p1288
sS'382823313489559552'
p1289
S'donation_needs_or_offers_or_volunteering_services'
p1290
sS'382827245951131649'
p1291
S'not_related_or_irrelevant'
p1292
sS'382817398459342848'
p1293
S'sympathy_and_emotional_support'
p1294
sS'382823795461197824'
p1295
S'injured_or_dead_people'
p1296
sS'382813532305096705'
p1297
S'other_useful_information'
p1298
sS'382827738941251584'
p1299
S'injured_or_dead_people'
p1300
sS'382837306651983872'
p1301
S'donation_needs_or_offers_or_volunteering_services'
p1302
sS'382829993727774720'
p1303
S'donation_needs_or_offers_or_volunteering_services'
p1304
sS'382832750883241984'
p1305
S'other_useful_information'
p1306
sS'382821205574946816'
p1307
S'donation_needs_or_offers_or_volunteering_services'
p1308
sS'382816197588168704'
p1309
S'donation_needs_or_offers_or_volunteering_services'
p1310
sS'382820590014693377'
p1311
S'caution_and_advice'
p1312
sS'382831394457522176'
p1313
S'injured_or_dead_people'
p1314
sS'382826894028058624'
p1315
S'other_useful_information'
p1316
sS'382830118541852673'
p1317
S'injured_or_dead_people'
p1318
sS'382828258284564480'
p1319
S'donation_needs_or_offers_or_volunteering_services'
p1320
sS'382814136285274112'
p1321
S'other_useful_information'
p1322
sS'382813873113284608'
p1323
S'other_useful_information'
p1324
sS'382827577288577024'
p1325
S'not_related_or_irrelevant'
p1326
sS'382836063871311872'
p1327
S'other_useful_information'
p1328
sS'382831925016006656'
p1329
S'infrastructure_and_utilities_damage'
p1330
sS'382831695990255616'
p1331
S'other_useful_information'
p1332
sS'382836332638527488'
p1333
S'other_useful_information'
p1334
sS'382820055131893760'
p1335
S'other_useful_information'
p1336
sS'382825143849861120'
p1337
S'other_useful_information'
p1338
sS'382837439435669504'
p1339
S'other_useful_information'
p1340
sS'382821473083064320'
p1341
S'donation_needs_or_offers_or_volunteering_services'
p1342
sS'382832560704733184'
p1343
S'not_related_or_irrelevant'
p1344
sS'382827161679187969'
p1345
S'other_useful_information'
p1346
sS'382833223291912192'
p1347
S'sympathy_and_emotional_support'
p1348
sS'382832800669642752'
p1349
S'donation_needs_or_offers_or_volunteering_services'
p1350
sS'382830197738708992'
p1351
S'other_useful_information'
p1352
sS'382837321294286849'
p1353
S'other_useful_information'
p1354
sS'382835955167551489'
p1355
S'other_useful_information'
p1356
sS'382835466141437952'
p1357
S'injured_or_dead_people'
p1358
sS'382815054980075521'
p1359
S'injured_or_dead_people'
p1360
sS'382823526622711808'
p1361
S'caution_and_advice'
p1362
sS'382825455612854272'
p1363
S'not_related_or_irrelevant'
p1364
sS'382822705407750144'
p1365
S'other_useful_information'
p1366
sS'382829038186020864'
p1367
S'injured_or_dead_people'
p1368
sS'382824142942134272'
p1369
S'caution_and_advice'
p1370
sS'382818090523701248'
p1371
S'other_useful_information'
p1372
sS'382823723872833536'
p1373
S'donation_needs_or_offers_or_volunteering_services'
p1374
sS'382835061324021760'
p1375
S'not_related_or_irrelevant'
p1376
sS'382824857555062784'
p1377
S'other_useful_information'
p1378
sS'382831622724136960'
p1379
S'injured_or_dead_people'
p1380
sS'382826722720505856'
p1381
S'injured_or_dead_people'
p1382
sS'382828540321742848'
p1383
S'injured_or_dead_people'
p1384
sS'382828682563559424'
p1385
S'other_useful_information'
p1386
sS'382837536667607040'
p1387
S'other_useful_information'
p1388
sS'382837370212843520'
p1389
S'injured_or_dead_people'
p1390
sS'382818607836565504'
p1391
S'other_useful_information'
p1392
sS'382814450119876608'
p1393
S'donation_needs_or_offers_or_volunteering_services'
p1394
sS'382832558582403072'
p1395
S'other_useful_information'
p1396
sS'382818877274861568'
p1397
S'not_related_or_irrelevant'
p1398
sS'382835850486095872'
p1399
S'other_useful_information'
p1400
sS'382820527212994560'
p1401
S'other_useful_information'
p1402
sS'382835045956059136'
p1403
S'other_useful_information'
p1404
sS'382828266114916352'
p1405
S'other_useful_information'
p1406
sS'382823759033270272'
p1407
S'other_useful_information'
p1408
sS'382829954276540416'
p1409
S'not_related_or_irrelevant'
p1410
sS'382833671449104384'
p1411
S'other_useful_information'
p1412
sS'382826270704156672'
p1413
S'other_useful_information'
p1414
sS'382817747765186560'
p1415
S'not_related_or_irrelevant'
p1416
sS'382836831576158208'
p1417
S'other_useful_information'
p1418
sS'382821448697384960'
p1419
S'displaced_people_and_evacuations'
p1420
sS'382831344222367744'
p1421
S'donation_needs_or_offers_or_volunteering_services'
p1422
sS'382820983347761152'
p1423
S'donation_needs_or_offers_or_volunteering_services'
p1424
sS'382826768362528769'
p1425
S'not_related_or_irrelevant'
p1426
sS'382823037638574080'
p1427
S'injured_or_dead_people'
p1428
sS'382836200286871552'
p1429
S'injured_or_dead_people'
p1430
sS'382825149793202176'
p1431
S'other_useful_information'
p1432
sS'382832110685261824'
p1433
S'other_useful_information'
p1434
sS'382827339383840768'
p1435
S'injured_or_dead_people'
p1436
sS'382825523791282176'
p1437
S'not_related_or_irrelevant'
p1438
sS'382814538812641280'
p1439
S'injured_or_dead_people'
p1440
sS'382820364788969472'
p1441
S'injured_or_dead_people'
p1442
sS'382814335048773632'
p1443
S'caution_and_advice'
p1444
sS'382814615500902400'
p1445
S'injured_or_dead_people'
p1446
sS'382817630614073346'
p1447
S'not_related_or_irrelevant'
p1448
sS'382830610693521408'
p1449
S'other_useful_information'
p1450
sS'382830458188210176'
p1451
S'other_useful_information'
p1452
sS'382828967738482688'
p1453
S'not_related_or_irrelevant'
p1454
sS'382826013954039808'
p1455
S'other_useful_information'
p1456
sS'382817997858959361'
p1457
S'other_useful_information'
p1458
sS'382823928952938496'
p1459
S'sympathy_and_emotional_support'
p1460
sS'382819416959758338'
p1461
S'donation_needs_or_offers_or_volunteering_services'
p1462
sS'382835725437136898'
p1463
S'donation_needs_or_offers_or_volunteering_services'
p1464
sS'382818299219673089'
p1465
S'donation_needs_or_offers_or_volunteering_services'
p1466
sS'382834043509026816'
p1467
S'other_useful_information'
p1468
sS'382830913140191233'
p1469
S'other_useful_information'
p1470
sS'382827851910619136'
p1471
S'sympathy_and_emotional_support'
p1472
sS'382837106491412480'
p1473
S'donation_needs_or_offers_or_volunteering_services'
p1474
sS'382823095863504896'
p1475
S'other_useful_information'
p1476
sS'382817541351301120'
p1477
S'donation_needs_or_offers_or_volunteering_services'
p1478
sS'382821091774705666'
p1479
S'donation_needs_or_offers_or_volunteering_services'
p1480
sS'382833615165345792'
p1481
S'injured_or_dead_people'
p1482
sS'382815602164781056'
p1483
S'other_useful_information'
p1484
sS'382828907579596800'
p1485
S'other_useful_information'
p1486
sS'382827234610139136'
p1487
S'not_related_or_irrelevant'
p1488
sS'382830716582510592'
p1489
S'injured_or_dead_people'
p1490
sS'382823025717940224'
p1491
S'not_related_or_irrelevant'
p1492
sS'382836884126183425'
p1493
S'other_useful_information'
p1494
sS'382822453338075136'
p1495
S'donation_needs_or_offers_or_volunteering_services'
p1496
sS'382827260900032512'
p1497
S'other_useful_information'
p1498
sS'382828320339288064'
p1499
S'other_useful_information'
p1500
sS'382834237411299328'
p1501
S'injured_or_dead_people'
p1502
sS'382831346109788160'
p1503
S'donation_needs_or_offers_or_volunteering_services'
p1504
sS'382829394156199936'
p1505
S'other_useful_information'
p1506
sS'382822198098280448'
p1507
S'other_useful_information'
p1508
sS'382835307730567169'
p1509
S'not_related_or_irrelevant'
p1510
sS'382833014000320512'
p1511
S'other_useful_information'
p1512
sS'382813530396700672'
p1513
S'other_useful_information'
p1514
sS'382836073879326720'
p1515
S'donation_needs_or_offers_or_volunteering_services'
p1516
sS'382828211123388416'
p1517
S'not_related_or_irrelevant'
p1518
sS'382815904834539520'
p1519
S'donation_needs_or_offers_or_volunteering_services'
p1520
sS'382822442881671169'
p1521
S'injured_or_dead_people'
p1522
sS'382827130796519424'
p1523
S'injured_or_dead_people'
p1524
sS'382833163904360448'
p1525
S'not_related_or_irrelevant'
p1526
sS'382816079367512064'
p1527
S'other_useful_information'
p1528
sS'382818863072960512'
p1529
S'sympathy_and_emotional_support'
p1530
sS'382833112696111104'
p1531
S'donation_needs_or_offers_or_volunteering_services'
p1532
sS'382816331961077761'
p1533
S'not_related_or_irrelevant'
p1534
sS'382829191927848960'
p1535
S'injured_or_dead_people'
p1536
sS'382832765148090368'
p1537
S'injured_or_dead_people'
p1538
sS'382826047361662976'
p1539
S'infrastructure_and_utilities_damage'
p1540
sS'382829421314334722'
p1541
S'injured_or_dead_people'
p1542
sS'382819933010137088'
p1543
S'other_useful_information'
p1544
sS'382836862546493440'
p1545
S'other_useful_information'
p1546
sS'382827910098591744'
p1547
S'not_related_or_irrelevant'
p1548
sS'382832069862121472'
p1549
S'donation_needs_or_offers_or_volunteering_services'
p1550
sS'382834108214562816'
p1551
S'sympathy_and_emotional_support'
p1552
sS'382833832644575232'
p1553
S'not_related_or_irrelevant'
p1554
sS'382829465921126400'
p1555
S'donation_needs_or_offers_or_volunteering_services'
p1556
sS'382837009577832449'
p1557
S'infrastructure_and_utilities_damage'
p1558
sS'382829569369055232'
p1559
S'other_useful_information'
p1560
sS'382825243313979392'
p1561
S'other_useful_information'
p1562
sS'382816597565382656'
p1563
S'sympathy_and_emotional_support'
p1564
sS'382825690108026880'
p1565
S'injured_or_dead_people'
p1566
sS'382837027760504832'
p1567
S'donation_needs_or_offers_or_volunteering_services'
p1568
sS'382834371494821889'
p1569
S'other_useful_information'
p1570
sS'382837486143041536'
p1571
S'donation_needs_or_offers_or_volunteering_services'
p1572
sS'382820501821067265'
p1573
S'injured_or_dead_people'
p1574
sS'382828296259383296'
p1575
S'other_useful_information'
p1576
sS'382832877378867200'
p1577
S'other_useful_information'
p1578
sS'382820883040960512'
p1579
S'donation_needs_or_offers_or_volunteering_services'
p1580
sS'382814190421168128'
p1581
S'injured_or_dead_people'
p1582
sS'382833413721292800'
p1583
S'other_useful_information'
p1584
sS'382836569742118912'
p1585
S'donation_needs_or_offers_or_volunteering_services'
p1586
sS'382817013355515905'
p1587
S'other_useful_information'
p1588
sS'382836738521329664'
p1589
S'donation_needs_or_offers_or_volunteering_services'
p1590
sS'382817375956901888'
p1591
S'other_useful_information'
p1592
sS'382828906039889920'
p1593
S'injured_or_dead_people'
p1594
sS'382832973088702464'
p1595
S'other_useful_information'
p1596
sS'382818363480633344'
p1597
S'injured_or_dead_people'
p1598
sS'382826242409377792'
p1599
S'not_related_or_irrelevant'
p1600
sS'382827528869539840'
p1601
S'other_useful_information'
p1602
sS'382833725933113344'
p1603
S'other_useful_information'
p1604
sS'382833155616432129'
p1605
S'not_related_or_irrelevant'
p1606
sS'382828657154093056'
p1607
S'donation_needs_or_offers_or_volunteering_services'
p1608
sS'382833973690261504'
p1609
S'sympathy_and_emotional_support'
p1610
sS'382823358226006016'
p1611
S'caution_and_advice'
p1612
sS'382821853745516544'
p1613
S'other_useful_information'
p1614
sS'382827194818363394'
p1615
S'not_related_or_irrelevant'
p1616
sS'382826678986084352'
p1617
S'donation_needs_or_offers_or_volunteering_services'
p1618
sS'382814949988249600'
p1619
S'other_useful_information'
p1620
sS'382822733857296386'
p1621
S'other_useful_information'
p1622
sS'382832974552911872'
p1623
S'not_related_or_irrelevant'
p1624
sS'382823011025297408'
p1625
S'not_related_or_irrelevant'
p1626
sS'382816756458221569'
p1627
S'not_related_or_irrelevant'
p1628
sS'382820573673320448'
p1629
S'other_useful_information'
p1630
sS'382828147558723585'
p1631
S'other_useful_information'
p1632
sS'382831470231822336'
p1633
S'other_useful_information'
p1634
sS'382825177324998656'
p1635
S'donation_needs_or_offers_or_volunteering_services'
p1636
sS'382834396614504448'
p1637
S'other_useful_information'
p1638
sS'382825980412170240'
p1639
S'other_useful_information'
p1640
sS'382837282337607680'
p1641
S'sympathy_and_emotional_support'
p1642
sS'382814154165612544'
p1643
S'donation_needs_or_offers_or_volunteering_services'
p1644
sS'382833746203787264'
p1645
S'other_useful_information'
p1646
sS'382830023494733824'
p1647
S'sympathy_and_emotional_support'
p1648
sS'382831931198808064'
p1649
S'other_useful_information'
p1650
sS'382827096688848896'
p1651
S'injured_or_dead_people'
p1652
sS'382825639180386304'
p1653
S'sympathy_and_emotional_support'
p1654
sS'382831604059475968'
p1655
S'not_related_or_irrelevant'
p1656
sS'382831097651814400'
p1657
S'other_useful_information'
p1658
sS'382826716328374272'
p1659
S'other_useful_information'
p1660
sS'382837032612950016'
p1661
S'not_related_or_irrelevant'
p1662
sS'382822918637748224'
p1663
S'other_useful_information'
p1664
sS'382836715607441409'
p1665
S'donation_needs_or_offers_or_volunteering_services'
p1666
sS'382834100312489984'
p1667
S'infrastructure_and_utilities_damage'
p1668
sS'382825934111252481'
p1669
S'not_related_or_irrelevant'
p1670
sS'382834284240703488'
p1671
S'injured_or_dead_people'
p1672
sS'382831140631224320'
p1673
S'not_related_or_irrelevant'
p1674
sS'382816763546587137'
p1675
S'other_useful_information'
p1676
sS'382830885491339265'
p1677
S'other_useful_information'
p1678
sS'382828749987008512'
p1679
S'other_useful_information'
p1680
sS'382820253484322817'
p1681
S'donation_needs_or_offers_or_volunteering_services'
p1682
sS'382834444647673856'
p1683
S'donation_needs_or_offers_or_volunteering_services'
p1684
sS'382819801800126464'
p1685
S'not_related_or_irrelevant'
p1686
sS'382823822929301504'
p1687
S'not_related_or_irrelevant'
p1688
sS'382829634942795777'
p1689
S'other_useful_information'
p1690
sS'382833144623140864'
p1691
S'injured_or_dead_people'
p1692
sS'382817392088588288'
p1693
S'not_related_or_irrelevant'
p1694
sS'382837177484210176'
p1695
S'not_related_or_irrelevant'
p1696
sS'382818101982953472'
p1697
S'injured_or_dead_people'
p1698
sS'382819199414177792'
p1699
S'not_related_or_irrelevant'
p1700
sS'382830249479647233'
p1701
S'injured_or_dead_people'
p1702
sS'382814514682413056'
p1703
S'sympathy_and_emotional_support'
p1704
sS'382827051150888960'
p1705
S'injured_or_dead_people'
p1706
sS'382817970868588544'
p1707
S'injured_or_dead_people'
p1708
sS'382815657425117184'
p1709
S'not_related_or_irrelevant'
p1710
sS'382824848008818688'
p1711
S'sympathy_and_emotional_support'
p1712
sS'382830281398681600'
p1713
S'donation_needs_or_offers_or_volunteering_services'
p1714
sS'382829594820096000'
p1715
S'injured_or_dead_people'
p1716
sS'382837010882240512'
p1717
S'not_related_or_irrelevant'
p1718
sS'382832613716537344'
p1719
S'not_related_or_irrelevant'
p1720
sS'382837022076829696'
p1721
S'not_related_or_irrelevant'
p1722
sS'382831898004697088'
p1723
S'not_related_or_irrelevant'
p1724
sS'382814074104328192'
p1725
S'other_useful_information'
p1726
sS'382835217985044480'
p1727
S'donation_needs_or_offers_or_volunteering_services'
p1728
sS'382833420948484096'
p1729
S'other_useful_information'
p1730
sS'382831248466780161'
p1731
S'other_useful_information'
p1732
sS'382828534105788416'
p1733
S'other_useful_information'
p1734
sS'382815055781588992'
p1735
S'donation_needs_or_offers_or_volunteering_services'
p1736
sS'382816420356030465'
p1737
S'donation_needs_or_offers_or_volunteering_services'
p1738
sS'382835318841298944'
p1739
S'donation_needs_or_offers_or_volunteering_services'
p1740
sS'382830977719873536'
p1741
S'other_useful_information'
p1742
sS'382822562331623424'
p1743
S'not_related_or_irrelevant'
p1744
sS'382836704409026560'
p1745
S'sympathy_and_emotional_support'
p1746
sS'382824798923280384'
p1747
S'caution_and_advice'
p1748
sS'382827806888968192'
p1749
S'sympathy_and_emotional_support'
p1750
sS'382832373471010817'
p1751
S'other_useful_information'
p1752
sS'382835167494410240'
p1753
S'donation_needs_or_offers_or_volunteering_services'
p1754
sS'382821410076639232'
p1755
S'donation_needs_or_offers_or_volunteering_services'
p1756
sS'382827625837625344'
p1757
S'not_related_or_irrelevant'
p1758
sS'382834150392074240'
p1759
S'other_useful_information'
p1760
sS'382814114860367872'
p1761
S'injured_or_dead_people'
p1762
sS'382828526761553920'
p1763
S'other_useful_information'
p1764
sS'382824795257057280'
p1765
S'donation_needs_or_offers_or_volunteering_services'
p1766
sS'382814873727410176'
p1767
S'other_useful_information'
p1768
sS'382824143483199488'
p1769
S'donation_needs_or_offers_or_volunteering_services'
p1770
sS'382822451391901697'
p1771
S'other_useful_information'
p1772
sS'382830785545252864'
p1773
S'injured_or_dead_people'
p1774
sS'382833847433306114'
p1775
S'not_related_or_irrelevant'
p1776
sS'382833363016380416'
p1777
S'other_useful_information'
p1778
sS'382822400942817281'
p1779
S'injured_or_dead_people'
p1780
sS'382835051597029376'
p1781
S'injured_or_dead_people'
p1782
sS'382835881008451584'
p1783
S'injured_or_dead_people'
p1784
sS'382829618509537280'
p1785
S'other_useful_information'
p1786
sS'382830690900791296'
p1787
S'not_related_or_irrelevant'
p1788
sS'382832173276860417'
p1789
S'other_useful_information'
p1790
sS'382819523000143872'
p1791
S'injured_or_dead_people'
p1792
sS'382827348887748608'
p1793
S'sympathy_and_emotional_support'
p1794
sS'382820886296145920'
p1795
S'donation_needs_or_offers_or_volunteering_services'
p1796
sS'382822418383110144'
p1797
S'other_useful_information'
p1798
sS'382833449830072321'
p1799
S'not_related_or_irrelevant'
p1800
sS'382834142356189184'
p1801
S'injured_or_dead_people'
p1802
sS'382827149977079808'
p1803
S'donation_needs_or_offers_or_volunteering_services'
p1804
sS'382832317690937344'
p1805
S'not_related_or_irrelevant'
p1806
sS'382833115892547584'
p1807
S'other_useful_information'
p1808
sS'382825780025516032'
p1809
S'caution_and_advice'
p1810
sS'382825997885640704'
p1811
S'injured_or_dead_people'
p1812
sS'382824810750816256'
p1813
S'injured_or_dead_people'
p1814
sS'382826669519949824'
p1815
S'other_useful_information'
p1816
sS'382815636151214080'
p1817
S'not_related_or_irrelevant'
p1818
sS'382833282989441024'
p1819
S'not_related_or_irrelevant'
p1820
sS'382814540481560576'
p1821
S'not_related_or_irrelevant'
p1822
sS'382821855024799744'
p1823
S'other_useful_information'
p1824
sS'382827632129478656'
p1825
S'other_useful_information'
p1826
sS'382834842616233984'
p1827
S'not_related_or_irrelevant'
p1828
sS'382827984186789888'
p1829
S'not_related_or_irrelevant'
p1830
sS'382828524454690816'
p1831
S'donation_needs_or_offers_or_volunteering_services'
p1832
sS'382837450076217344'
p1833
S'injured_or_dead_people'
p1834
sS'382831370684600320'
p1835
S'not_related_or_irrelevant'
p1836
sS'382817794351714304'
p1837
S'donation_needs_or_offers_or_volunteering_services'
p1838
sS'382828249682018305'
p1839
S'other_useful_information'
p1840
sS'382820462830424064'
p1841
S'donation_needs_or_offers_or_volunteering_services'
p1842
sS'382816897206878208'
p1843
S'injured_or_dead_people'
p1844
sS'382832696885805056'
p1845
S'injured_or_dead_people'
p1846
sS'382830349224386560'
p1847
S'not_related_or_irrelevant'
p1848
sS'382835694663516161'
p1849
S'injured_or_dead_people'
p1850
sS'382825784458489856'
p1851
S'infrastructure_and_utilities_damage'
p1852
sS'382837046131191808'
p1853
S'sympathy_and_emotional_support'
p1854
sS'382826944808878080'
p1855
S'other_useful_information'
p1856
sS'382824779642044416'
p1857
S'other_useful_information'
p1858
sS'382829287084027905'
p1859
S'other_useful_information'
p1860
sS'382835089136439296'
p1861
S'other_useful_information'
p1862
sS'382826566239014913'
p1863
S'caution_and_advice'
p1864
sS'382821653098409984'
p1865
S'injured_or_dead_people'
p1866
sS'382816198226096128'
p1867
S'not_related_or_irrelevant'
p1868
sS'382827132658782209'
p1869
S'sympathy_and_emotional_support'
p1870
sS'382813437513834497'
p1871
S'donation_needs_or_offers_or_volunteering_services'
p1872
sS'382827965064937472'
p1873
S'donation_needs_or_offers_or_volunteering_services'
p1874
sS'382823210846150656'
p1875
S'injured_or_dead_people'
p1876
sS'382815263483506688'
p1877
S'not_related_or_irrelevant'
p1878
sS'382826802516746240'
p1879
S'donation_needs_or_offers_or_volunteering_services'
p1880
sS'382828373766328320'
p1881
S'donation_needs_or_offers_or_volunteering_services'
p1882
sS'382832877097869312'
p1883
S'other_useful_information'
p1884
sS'382829224996139008'
p1885
S'sympathy_and_emotional_support'
p1886
sS'382819798436290560'
p1887
S'donation_needs_or_offers_or_volunteering_services'
p1888
sS'382828950730199040'
p1889
S'other_useful_information'
p1890
sS'382822233908867072'
p1891
S'other_useful_information'
p1892
sS'382827218302685184'
p1893
S'injured_or_dead_people'
p1894
sS'382821401637695488'
p1895
S'sympathy_and_emotional_support'
p1896
sS'382828265548701696'
p1897
S'other_useful_information'
p1898
sS'382828374802313217'
p1899
S'other_useful_information'
p1900
sS'382829300409724929'
p1901
S'missing_trapped_or_found_people'
p1902
sS'382829426997592065'
p1903
S'not_related_or_irrelevant'
p1904
sS'382819534761369600'
p1905
S'other_useful_information'
p1906
sS'382830194567815168'
p1907
S'other_useful_information'
p1908
sS'382827320894955521'
p1909
S'not_related_or_irrelevant'
p1910
sS'382835814918782976'
p1911
S'injured_or_dead_people'
p1912
sS'382827131350171648'
p1913
S'other_useful_information'
p1914
sS'382825364138885120'
p1915
S'other_useful_information'
p1916
sS'382817115780026369'
p1917
S'other_useful_information'
p1918
sS'382829358987378688'
p1919
S'donation_needs_or_offers_or_volunteering_services'
p1920
sS'382834176783036416'
p1921
S'not_related_or_irrelevant'
p1922
sS'382837290029957120'
p1923
S'not_related_or_irrelevant'
p1924
sS'382837135822577664'
p1925
S'not_related_or_irrelevant'
p1926
sS'382834281514401794'
p1927
S'other_useful_information'
p1928
sS'382815117575872513'
p1929
S'other_useful_information'
p1930
sS'382816958065815552'
p1931
S'injured_or_dead_people'
p1932
sS'382824474376413185'
p1933
S'other_useful_information'
p1934
sS'382825813974204416'
p1935
S'other_useful_information'
p1936
sS'382834214187446273'
p1937
S'injured_or_dead_people'
p1938
sS'382834216116830209'
p1939
S'other_useful_information'
p1940
sS'382825905464561664'
p1941
S'other_useful_information'
p1942
sS'382826576506671104'
p1943
S'injured_or_dead_people'
p1944
sS'382833952911659008'
p1945
S'not_related_or_irrelevant'
p1946
sS'382814062196703232'
p1947
S'not_related_or_irrelevant'
p1948
sS'382826887967285248'
p1949
S'sympathy_and_emotional_support'
p1950
sS'382827563091243008'
p1951
S'sympathy_and_emotional_support'
p1952
sS'382818105329610752'
p1953
S'other_useful_information'
p1954
sS'382824013350719489'
p1955
S'donation_needs_or_offers_or_volunteering_services'
p1956
sS'382833584609837057'
p1957
S'donation_needs_or_offers_or_volunteering_services'
p1958
sS'382832415191756800'
p1959
S'injured_or_dead_people'
p1960
sS'382831349477826560'
p1961
S'other_useful_information'
p1962
sS'382814341247938562'
p1963
S'other_useful_information'
p1964
sS'382816510604898304'
p1965
S'caution_and_advice'
p1966
sS'382829865608966144'
p1967
S'not_related_or_irrelevant'
p1968
sS'382821303302254592'
p1969
S'other_useful_information'
p1970
sS'382816752398528512'
p1971
S'other_useful_information'
p1972
sS'382822312401063936'
p1973
S'not_related_or_irrelevant'
p1974
sS'382815020603543552'
p1975
S'injured_or_dead_people'
p1976
sS'382837583362809856'
p1977
S'donation_needs_or_offers_or_volunteering_services'
p1978
sS'382832697862651904'
p1979
S'other_useful_information'
p1980
sS'382832788719689729'
p1981
S'not_related_or_irrelevant'
p1982
sS'382834389111291905'
p1983
S'donation_needs_or_offers_or_volunteering_services'
p1984
sS'382827689696329728'
p1985
S'other_useful_information'
p1986
sS'382829446958710784'
p1987
S'other_useful_information'
p1988
sS'382818570058489857'
p1989
S'not_related_or_irrelevant'
p1990
sS'382828938256338944'
p1991
S'other_useful_information'
p1992
sS'382827251332820992'
p1993
S'injured_or_dead_people'
p1994
sS'382830413779320832'
p1995
S'donation_needs_or_offers_or_volunteering_services'
p1996
sS'382814739367084032'
p1997
S'not_related_or_irrelevant'
p1998
sS'382836123174985728'
p1999
S'other_useful_information'
p2000
sS'382831863489785856'
p2001
S'other_useful_information'
p2002
sS'382824528927526912'
p2003
S'donation_needs_or_offers_or_volunteering_services'
p2004
sS'382828189266874368'
p2005
S'not_related_or_irrelevant'
p2006
sS'382830961110835200'
p2007
S'other_useful_information'
p2008
sS'382836547306799105'
p2009
S'injured_or_dead_people'
p2010
sS'382828525029720064'
p2011
S'caution_and_advice'
p2012
sS'382822965307383809'
p2013
S'displaced_people_and_evacuations'
p2014
sS'382818724408860672'
p2015
S'injured_or_dead_people'
p2016
sS'382816856631169024'
p2017
S'other_useful_information'
p2018
sS'382821213820944384'
p2019
S'caution_and_advice'
p2020
sS'382827482082054146'
p2021
S'other_useful_information'
p2022
sS'382825848165789697'
p2023
S'other_useful_information'
p2024
sS'382827296588963841'
p2025
S'other_useful_information'
p2026
sS'382831790072684544'
p2027
S'other_useful_information'
p2028
sS'382827996341481473'
p2029
S'other_useful_information'
p2030
sS'382822646053756928'
p2031
S'injured_or_dead_people'
p2032
sS'382834638906863616'
p2033
S'other_useful_information'
p2034
sS'382815792200306688'
p2035
S'other_useful_information'
p2036
sS'382824100538109952'
p2037
S'not_related_or_irrelevant'
p2038
sS'382833006060503040'
p2039
S'other_useful_information'
p2040
sS'382825894504443904'
p2041
S'not_related_or_irrelevant'
p2042
sS'382816989795741696'
p2043
S'donation_needs_or_offers_or_volunteering_services'
p2044
sS'382833044891398144'
p2045
S'other_useful_information'
p2046
sS'382834893752778754'
p2047
S'injured_or_dead_people'
p2048
sS'382819969337028608'
p2049
S'injured_or_dead_people'
p2050
sS'382816891938406400'
p2051
S'injured_or_dead_people'
p2052
sS'382832759531515905'
p2053
S'injured_or_dead_people'
p2054
sS'382835308217118720'
p2055
S'other_useful_information'
p2056
sS'382825536562528256'
p2057
S'other_useful_information'
p2058
sS'382827140141826048'
p2059
S'caution_and_advice'
p2060
sS'382819555363414018'
p2061
S'other_useful_information'
p2062
sS'382814827439071232'
p2063
S'not_related_or_irrelevant'
p2064
sS'382832371328118784'
p2065
S'injured_or_dead_people'
p2066
sS'382818189995827200'
p2067
S'infrastructure_and_utilities_damage'
p2068
sS'382822686445305856'
p2069
S'injured_or_dead_people'
p2070
sS'382818652929544192'
p2071
S'not_related_or_irrelevant'
p2072
sS'382831182217371649'
p2073
S'other_useful_information'
p2074
sS'382829124794208256'
p2075
S'other_useful_information'
p2076
sS'382835427154997248'
p2077
S'other_useful_information'
p2078
sS'382819616265084928'
p2079
S'not_related_or_irrelevant'
p2080
sS'382829554751922176'
p2081
S'other_useful_information'
p2082
sS'382833790105960448'
p2083
S'other_useful_information'
p2084
sS'382824649039806464'
p2085
S'other_useful_information'
p2086
sS'382823444015882241'
p2087
S'other_useful_information'
p2088
sS'382834432669155328'
p2089
S'other_useful_information'
p2090
sS'382832176292982784'
p2091
S'other_useful_information'
p2092
sS'382826277922557952'
p2093
S'injured_or_dead_people'
p2094
sS'382818939296038912'
p2095
S'injured_or_dead_people'
p2096
sS'382832930638553088'
p2097
S'other_useful_information'
p2098
sS'382822446862458880'
p2099
S'other_useful_information'
p2100
sS'382830313040527360'
p2101
S'other_useful_information'
p2102
sS'382830377158471680'
p2103
S'caution_and_advice'
p2104
sS'382834572591132672'
p2105
S'injured_or_dead_people'
p2106
sS'382831949921783809'
p2107
S'other_useful_information'
p2108
sS'382816433455259648'
p2109
S'not_related_or_irrelevant'
p2110
sS'382818298846384128'
p2111
S'other_useful_information'
p2112
sS'382822351655546881'
p2113
S'donation_needs_or_offers_or_volunteering_services'
p2114
sS'382831666265591808'
p2115
S'not_related_or_irrelevant'
p2116
sS'382816923525709824'
p2117
S'donation_needs_or_offers_or_volunteering_services'
p2118
sS'382815351211175936'
p2119
S'donation_needs_or_offers_or_volunteering_services'
p2120
sS'382834773011742720'
p2121
S'injured_or_dead_people'
p2122
sS'382832307213971456'
p2123
S'other_useful_information'
p2124
sS'382836341546819584'
p2125
S'other_useful_information'
p2126
sS'382834143278948353'
p2127
S'donation_needs_or_offers_or_volunteering_services'
p2128
sS'382833962877333504'
p2129
S'other_useful_information'
p2130
sS'382813445495586816'
p2131
S'other_useful_information'
p2132
sS'382833286516453376'
p2133
S'not_related_or_irrelevant'
p2134
sS'382817718493138944'
p2135
S'donation_needs_or_offers_or_volunteering_services'
p2136
sS'382815402826268672'
p2137
S'donation_needs_or_offers_or_volunteering_services'
p2138
sS'382836256859627521'
p2139
S'donation_needs_or_offers_or_volunteering_services'
p2140
sS'382820463467970560'
p2141
S'injured_or_dead_people'
p2142
sS'382825435362775040'
p2143
S'other_useful_information'
p2144
sS'382832056008331264'
p2145
S'other_useful_information'
p2146
sS'382833633951617025'
p2147
S'other_useful_information'
p2148
sS'382828170690699264'
p2149
S'sympathy_and_emotional_support'
p2150
sS'382815442080776193'
p2151
S'other_useful_information'
p2152
sS'382836020552929280'
p2153
S'other_useful_information'
p2154
sS'382816821529018369'
p2155
S'other_useful_information'
p2156
sS'382813561875361792'
p2157
S'missing_trapped_or_found_people'
p2158
sS'382829840254377985'
p2159
S'other_useful_information'
p2160
sS'382833528603676672'
p2161
S'not_related_or_irrelevant'
p2162
sS'382813401845485568'
p2163
S'not_related_or_irrelevant'
p2164
sS'382827323114151936'
p2165
S'not_related_or_irrelevant'
p2166
sS'382824719826702337'
p2167
S'caution_and_advice'
p2168
sS'382828023872909312'
p2169
S'not_related_or_irrelevant'
p2170
sS'382822142481825792'
p2171
S'not_related_or_irrelevant'
p2172
sS'382827990163656704'
p2173
S'sympathy_and_emotional_support'
p2174
sS'382828104575508480'
p2175
S'sympathy_and_emotional_support'
p2176
sS'382824943534489600'
p2177
S'other_useful_information'
p2178
sS'382834607357321218'
p2179
S'other_useful_information'
p2180
sS'382814530809511936'
p2181
S'injured_or_dead_people'
p2182
sS'382833171412185088'
p2183
S'other_useful_information'
p2184
sS'382831899615297537'
p2185
S'injured_or_dead_people'
p2186
sS'382828997010526208'
p2187
S'donation_needs_or_offers_or_volunteering_services'
p2188
sS'382831565882925057'
p2189
S'donation_needs_or_offers_or_volunteering_services'
p2190
sS'382833059210334208'
p2191
S'other_useful_information'
p2192
sS'382832049255874560'
p2193
S'other_useful_information'
p2194
sS'382828785923805184'
p2195
S'not_related_or_irrelevant'
p2196
sS'382827953970610176'
p2197
S'injured_or_dead_people'
p2198
sS'382816685335801856'
p2199
S'donation_needs_or_offers_or_volunteering_services'
p2200
sS'382834679407071233'
p2201
S'other_useful_information'
p2202
sS'382829431435169793'
p2203
S'other_useful_information'
p2204
sS'382816114889465856'
p2205
S'infrastructure_and_utilities_damage'
p2206
sS'382823308858642432'
p2207
S'not_related_or_irrelevant'
p2208
sS'382833823299280896'
p2209
S'other_useful_information'
p2210
sS'382823144479657984'
p2211
S'injured_or_dead_people'
p2212
sS'382835224964759552'
p2213
S'other_useful_information'
p2214
sS'382836318905958401'
p2215
S'donation_needs_or_offers_or_volunteering_services'
p2216
sS'382814241843343361'
p2217
S'donation_needs_or_offers_or_volunteering_services'
p2218
sS'382834094108733442'
p2219
S'donation_needs_or_offers_or_volunteering_services'
p2220
sS'382814800293543938'
p2221
S'other_useful_information'
p2222
sS'382819884511797248'
p2223
S'injured_or_dead_people'
p2224
sS'382834953987182593'
p2225
S'sympathy_and_emotional_support'
p2226
sS'382831566658867200'
p2227
S'donation_needs_or_offers_or_volunteering_services'
p2228
sS'382836240057262082'
p2229
S'not_related_or_irrelevant'
p2230
sS'382832307167830016'
p2231
S'caution_and_advice'
p2232
sS'382817217185710080'
p2233
S'other_useful_information'
p2234
sS'382821090160308224'
p2235
S'caution_and_advice'
p2236
sS'382818993813204993'
p2237
S'other_useful_information'
p2238
sS'382834865538105344'
p2239
S'sympathy_and_emotional_support'
p2240
sS'382817095710294016'
p2241
S'other_useful_information'
p2242
sS'382834538747273216'
p2243
S'not_related_or_irrelevant'
p2244
sS'382828491827187713'
p2245
S'donation_needs_or_offers_or_volunteering_services'
p2246
sS'382818273932218368'
p2247
S'donation_needs_or_offers_or_volunteering_services'
p2248
sS'382832816301420544'
p2249
S'other_useful_information'
p2250
sS'382829910718685184'
p2251
S'other_useful_information'
p2252
sS'382815477837225984'
p2253
S'injured_or_dead_people'
p2254
sS'382824447696453632'
p2255
S'donation_needs_or_offers_or_volunteering_services'
p2256
sS'382815843706343424'
p2257
S'donation_needs_or_offers_or_volunteering_services'
p2258
sS'382828256249933824'
p2259
S'injured_or_dead_people'
p2260
sS'382828003946160128'
p2261
S'donation_needs_or_offers_or_volunteering_services'
p2262
sS'382830796144250880'
p2263
S'not_related_or_irrelevant'
p2264
sS'382826576770908160'
p2265
S'injured_or_dead_people'
p2266
sS'382831989302128641'
p2267
S'not_related_or_irrelevant'
p2268
sS'382832222924840960'
p2269
S'other_useful_information'
p2270
sS'382825983273082880'
p2271
S'injured_or_dead_people'
p2272
sS'382815973708816385'
p2273
S'other_useful_information'
p2274
sS'382814979281670144'
p2275
S'caution_and_advice'
p2276
sS'382826335610994688'
p2277
S'other_useful_information'
p2278
sS'382831701874860032'
p2279
S'donation_needs_or_offers_or_volunteering_services'
p2280
sS'382818413627711490'
p2281
S'donation_needs_or_offers_or_volunteering_services'
p2282
sS'382818703777099777'
p2283
S'donation_needs_or_offers_or_volunteering_services'
p2284
sS'382833038553792512'
p2285
S'sympathy_and_emotional_support'
p2286
sS'382831857869402112'
p2287
S'not_related_or_irrelevant'
p2288
sS'382823952776560640'
p2289
S'not_related_or_irrelevant'
p2290
sS'382817400300658688'
p2291
S'not_related_or_irrelevant'
p2292
sS'382817080698888192'
p2293
S'other_useful_information'
p2294
sS'382829088689242112'
p2295
S'other_useful_information'
p2296
sS'382822566240350208'
p2297
S'not_related_or_irrelevant'
p2298
sS'382835038502387712'
p2299
S'injured_or_dead_people'
p2300
sS'382820264959959040'
p2301
S'donation_needs_or_offers_or_volunteering_services'
p2302
sS'382829210232176640'
p2303
S'injured_or_dead_people'
p2304
sS'382834479326593024'
p2305
S'other_useful_information'
p2306
sS'382828888210296832'
p2307
S'other_useful_information'
p2308
sS'382829221539639296'
p2309
S'not_related_or_irrelevant'
p2310
sS'382822006825451520'
p2311
S'donation_needs_or_offers_or_volunteering_services'
p2312
sS'382823063404179456'
p2313
S'other_useful_information'
p2314
sS'382826513550147584'
p2315
S'injured_or_dead_people'
p2316
sS'382822817563045889'
p2317
S'other_useful_information'
p2318
sS'382817198709809152'
p2319
S'not_related_or_irrelevant'
p2320
sS'382816842097516545'
p2321
S'other_useful_information'
p2322
sS'382834502193930241'
p2323
S'not_related_or_irrelevant'
p2324
sS'382831191348355072'
p2325
S'other_useful_information'
p2326
sS'382833365092925440'
p2327
S'caution_and_advice'
p2328
sS'382814531753639936'
p2329
S'not_related_or_irrelevant'
p2330
sS'382818961488097280'
p2331
S'other_useful_information'
p2332
sS'382813932437917696'
p2333
S'donation_needs_or_offers_or_volunteering_services'
p2334
sS'382831073337802752'
p2335
S'other_useful_information'
p2336
sS'382818604695044097'
p2337
S'caution_and_advice'
p2338
sS'382814975292481537'
p2339
S'injured_or_dead_people'
p2340
sS'382826366502465536'
p2341
S'other_useful_information'
p2342
sS'382830395236311040'
p2343
S'not_related_or_irrelevant'
p2344
sS'382827137423917056'
p2345
S'other_useful_information'
p2346
sS'382816399183577088'
p2347
S'other_useful_information'
p2348
sS'382829230884532224'
p2349
S'sympathy_and_emotional_support'
p2350
sS'382832200452157440'
p2351
S'not_related_or_irrelevant'
p2352
sS'382830792629837824'
p2353
S'injured_or_dead_people'
p2354
sS'382828992270991360'
p2355
S'other_useful_information'
p2356
sS'382825988595650560'
p2357
S'other_useful_information'
p2358
sS'382815751411089408'
p2359
S'not_related_or_irrelevant'
p2360
sS'382821252731109377'
p2361
S'sympathy_and_emotional_support'
p2362
sS'382835733658345472'
p2363
S'not_related_or_irrelevant'
p2364
sS'382832120554479616'
p2365
S'other_useful_information'
p2366
sS'382821952085176321'
p2367
S'injured_or_dead_people'
p2368
sS'382832975735312384'
p2369
S'other_useful_information'
p2370
sS'382829006426345472'
p2371
S'other_useful_information'
p2372
sS'382823613922947072'
p2373
S'donation_needs_or_offers_or_volunteering_services'
p2374
sS'382824796389527552'
p2375
S'injured_or_dead_people'
p2376
sS'382819091054342144'
p2377
S'caution_and_advice'
p2378
sS'382832872278593536'
p2379
S'injured_or_dead_people'
p2380
sS'382825117812011008'
p2381
S'other_useful_information'
p2382
sS'382829837460992000'
p2383
S'injured_or_dead_people'
p2384
sS'382830122404831232'
p2385
S'other_useful_information'
p2386
sS'382831297858506752'
p2387
S'other_useful_information'
p2388
sS'382832634616766464'
p2389
S'sympathy_and_emotional_support'
p2390
sS'382830222082457600'
p2391
S'injured_or_dead_people'
p2392
sS'382822946068500480'
p2393
S'other_useful_information'
p2394
sS'382829934336802816'
p2395
S'not_related_or_irrelevant'
p2396
sS'382817013053149184'
p2397
S'not_related_or_irrelevant'
p2398
sS'382835715136323584'
p2399
S'donation_needs_or_offers_or_volunteering_services'
p2400
sS'382826163699466240'
p2401
S'other_useful_information'
p2402
sS'382834440374067200'
p2403
S'other_useful_information'
p2404
sS'382831082930204673'
p2405
S'not_related_or_irrelevant'
p2406
sS'382816065270874112'
p2407
S'other_useful_information'
p2408
sS'382837202754875392'
p2409
S'other_useful_information'
p2410
sS'382831017792245760'
p2411
S'other_useful_information'
p2412
sS'382818279854993408'
p2413
S'not_related_or_irrelevant'
p2414
sS'382833977704607744'
p2415
S'not_related_or_irrelevant'
p2416
sS'382829025095188480'
p2417
S'caution_and_advice'
p2418
sS'382826778185965568'
p2419
S'injured_or_dead_people'
p2420
sS'382821844107407360'
p2421
S'injured_or_dead_people'
p2422
sS'382826250697314304'
p2423
S'injured_or_dead_people'
p2424
sS'382837214042132480'
p2425
S'other_useful_information'
p2426
sS'382820554186981376'
p2427
S'not_related_or_irrelevant'
p2428
sS'382829330486669312'
p2429
S'not_related_or_irrelevant'
p2430
sS'382827484191801344'
p2431
S'donation_needs_or_offers_or_volunteering_services'
p2432
sS'382833525172748288'
p2433
S'not_related_or_irrelevant'
p2434
sS'382823639084564480'
p2435
S'other_useful_information'
p2436
sS'382830062246305793'
p2437
S'not_related_or_irrelevant'
p2438
sS'382835479814492160'
p2439
S'donation_needs_or_offers_or_volunteering_services'
p2440
sS'382816952563277824'
p2441
S'other_useful_information'
p2442
sS'382831653888208896'
p2443
S'not_related_or_irrelevant'
p2444
sS'382830745334460417'
p2445
S'other_useful_information'
p2446
sS'382833309086003200'
p2447
S'injured_or_dead_people'
p2448
sS'382814811999838208'
p2449
S'caution_and_advice'
p2450
sS'382836487064006657'
p2451
S'other_useful_information'
p2452
sS'382834043815231488'
p2453
S'other_useful_information'
p2454
sS'382815696188891136'
p2455
S'injured_or_dead_people'
p2456
sS'382829207472312320'
p2457
S'other_useful_information'
p2458
sS'382816648341630977'
p2459
S'caution_and_advice'
p2460
sS'382833140563460096'
p2461
S'other_useful_information'
p2462
sS'382827596565975040'
p2463
S'other_useful_information'
p2464
sS'382833059529490432'
p2465
S'other_useful_information'
p2466
sS'382832017668603904'
p2467
S'other_useful_information'
p2468
sS'382835090478202880'
p2469
S'other_useful_information'
p2470
sS'382836161086910465'
p2471
S'not_related_or_irrelevant'
p2472
sS'382818190318764032'
p2473
S'other_useful_information'
p2474
sS'382824406516367361'
p2475
S'other_useful_information'
p2476
sS'382834060822724611'
p2477
S'not_related_or_irrelevant'
p2478
sS'382836065666482176'
p2479
S'other_useful_information'
p2480
sS'382823842164797440'
p2481
S'injured_or_dead_people'
p2482
sS'382815393079111680'
p2483
S'other_useful_information'
p2484
sS'382818712610304001'
p2485
S'not_related_or_irrelevant'
p2486
sS'382828120849403905'
p2487
S'donation_needs_or_offers_or_volunteering_services'
p2488
sS'382832922627039232'
p2489
S'not_related_or_irrelevant'
p2490
sS'382829417602756608'
p2491
S'other_useful_information'
p2492
sS'382832032234995712'
p2493
S'other_useful_information'
p2494
sS'382819349150461953'
p2495
S'other_useful_information'
p2496
sS'382818393809641472'
p2497
S'donation_needs_or_offers_or_volunteering_services'
p2498
sS'382822978402385921'
p2499
S'not_related_or_irrelevant'
p2500
sS'382830853912424448'
p2501
S'other_useful_information'
p2502
sS'382814489831555072'
p2503
S'other_useful_information'
p2504
sS'382828910150299648'
p2505
S'injured_or_dead_people'
p2506
sS'382813388503412736'
p2507
S'other_useful_information'
p2508
sS'382825307046027264'
p2509
S'caution_and_advice'
p2510
sS'382821753694990336'
p2511
S'sympathy_and_emotional_support'
p2512
sS'382821134129180673'
p2513
S'injured_or_dead_people'
p2514
sS'382823138934812672'
p2515
S'donation_needs_or_offers_or_volunteering_services'
p2516
sS'382835913610780673'
p2517
S'other_useful_information'
p2518
sS'382828015102992384'
p2519
S'missing_trapped_or_found_people'
p2520
sS'382826583134068736'
p2521
S'injured_or_dead_people'
p2522
sS'382828948071006208'
p2523
S'injured_or_dead_people'
p2524
sS'382825786442387456'
p2525
S'other_useful_information'
p2526
sS'382830219968909312'
p2527
S'donation_needs_or_offers_or_volunteering_services'
p2528
sS'382836834914426881'
p2529
S'not_related_or_irrelevant'
p2530
sS'382824776424644608'
p2531
S'donation_needs_or_offers_or_volunteering_services'
p2532
sS'382819816102318080'
p2533
S'not_related_or_irrelevant'
p2534
sS'382823906735702018'
p2535
S'injured_or_dead_people'
p2536
sS'382828280937992192'
p2537
S'other_useful_information'
p2538
sS'382820917702713344'
p2539
S'caution_and_advice'
p2540
sS'382820720708833280'
p2541
S'caution_and_advice'
p2542
sS'382836237888790529'
p2543
S'not_related_or_irrelevant'
p2544
sS'382822862731493377'
p2545
S'other_useful_information'
p2546
sS'382834152875118592'
p2547
S'injured_or_dead_people'
p2548
sS'382827174715469824'
p2549
S'displaced_people_and_evacuations'
p2550
sS'382825850346819585'
p2551
S'injured_or_dead_people'
p2552
sS'382831180497707009'
p2553
S'other_useful_information'
p2554
sS'382813924208308224'
p2555
S'other_useful_information'
p2556
sS'382821812012216320'
p2557
S'not_related_or_irrelevant'
p2558
sS'382819779918065664'
p2559
S'other_useful_information'
p2560
sS'382834323264905216'
p2561
S'other_useful_information'
p2562
sS'382825628107808768'
p2563
S'other_useful_information'
p2564
sS'382818524965502976'
p2565
S'injured_or_dead_people'
p2566
sS'382836960596721665'
p2567
S'other_useful_information'
p2568
sS'382833167063089152'
p2569
S'not_related_or_irrelevant'
p2570
sS'382814752591732736'
p2571
S'injured_or_dead_people'
p2572
sS'382820887529271296'
p2573
S'injured_or_dead_people'
p2574
sS'382824718908137472'
p2575
S'other_useful_information'
p2576
sS'382827587334307840'
p2577
S'sympathy_and_emotional_support'
p2578
sS'382814858309140480'
p2579
S'injured_or_dead_people'
p2580
sS'382821678771761153'
p2581
S'injured_or_dead_people'
p2582
sS'382823598962257920'
p2583
S'donation_needs_or_offers_or_volunteering_services'
p2584
sS'382817159321092096'
p2585
S'other_useful_information'
p2586
sS'382821969093484544'
p2587
S'other_useful_information'
p2588
sS'382817502884945920'
p2589
S'injured_or_dead_people'
p2590
sS'382835984637112320'
p2591
S'not_related_or_irrelevant'
p2592
sS'382829560292974592'
p2593
S'other_useful_information'
p2594
sS'382823409350356992'
p2595
S'other_useful_information'
p2596
sS'382823709754810368'
p2597
S'injured_or_dead_people'
p2598
sS'382832757069475840'
p2599
S'other_useful_information'
p2600
sS'382825497291657216'
p2601
S'other_useful_information'
p2602
sS'382828205587308544'
p2603
S'donation_needs_or_offers_or_volunteering_services'
p2604
sS'382837129753018368'
p2605
S'not_related_or_irrelevant'
p2606
sS'382823382443495424'
p2607
S'other_useful_information'
p2608
sS'382815170478628865'
p2609
S'other_useful_information'
p2610
sS'382824384974843904'
p2611
S'injured_or_dead_people'
p2612
sS'382837627281354754'
p2613
S'other_useful_information'
p2614
sS'382821548920700928'
p2615
S'other_useful_information'
p2616
sS'382825785469308928'
p2617
S'not_related_or_irrelevant'
p2618
sS'382834948257742848'
p2619
S'other_useful_information'
p2620
sS'382819888986746880'
p2621
S'other_useful_information'
p2622
sS'382815776425525248'
p2623
S'other_useful_information'
p2624
sS'382829798881759232'
p2625
S'sympathy_and_emotional_support'
p2626
sS'382826231659380736'
p2627
S'not_related_or_irrelevant'
p2628
sS'382821502250270720'
p2629
S'not_related_or_irrelevant'
p2630
sS'382828408444436481'
p2631
S'other_useful_information'
p2632
sS'382830365683245057'
p2633
S'displaced_people_and_evacuations'
p2634
sS'382817042132258818'
p2635
S'other_useful_information'
p2636
sS'382827220072296448'
p2637
S'other_useful_information'
p2638
sS'382817478541189120'
p2639
S'other_useful_information'
p2640
sS'382835376261300224'
p2641
S'donation_needs_or_offers_or_volunteering_services'
p2642
sS'382813761330888704'
p2643
S'other_useful_information'
p2644
sS'382829588159930368'
p2645
S'donation_needs_or_offers_or_volunteering_services'
p2646
sS'382831903751286784'
p2647
S'donation_needs_or_offers_or_volunteering_services'
p2648
sS'382826087194968064'
p2649
S'donation_needs_or_offers_or_volunteering_services'
p2650
sS'382821085013868544'
p2651
S'other_useful_information'
p2652
sS'382828363968024578'
p2653
S'other_useful_information'
p2654
sS'382829029130129408'
p2655
S'injured_or_dead_people'
p2656
sS'382825340495609856'
p2657
S'sympathy_and_emotional_support'
p2658
sS'382822179752394752'
p2659
S'donation_needs_or_offers_or_volunteering_services'
p2660
sS'382832160769458176'
p2661
S'other_useful_information'
p2662
sS'382828051853475840'
p2663
S'injured_or_dead_people'
p2664
sS'382815535982858240'
p2665
S'donation_needs_or_offers_or_volunteering_services'
p2666
sS'382832987056128000'
p2667
S'injured_or_dead_people'
p2668
sS'382834099846537216'
p2669
S'other_useful_information'
p2670
sS'382816348276932609'
p2671
S'sympathy_and_emotional_support'
p2672
sS'382836697630654464'
p2673
S'other_useful_information'
p2674
sS'382837030662598656'
p2675
S'other_useful_information'
p2676
sS'382836134528573441'
p2677
S'injured_or_dead_people'
p2678
sS'382828589680721920'
p2679
S'other_useful_information'
p2680
sS'382836495943335937'
p2681
S'injured_or_dead_people'
p2682
sS'382819401092706304'
p2683
S'injured_or_dead_people'
p2684
sS'382822923163410432'
p2685
S'other_useful_information'
p2686
sS'382814365323247617'
p2687
S'not_related_or_irrelevant'
p2688
sS'382837533391851520'
p2689
S'injured_or_dead_people'
p2690
sS'382828935601745920'
p2691
S'other_useful_information'
p2692
sS'382823728662327296'
p2693
S'other_useful_information'
p2694
sS'382823885743611904'
p2695
S'donation_needs_or_offers_or_volunteering_services'
p2696
sS'382818795418419201'
p2697
S'donation_needs_or_offers_or_volunteering_services'
p2698
sS'382837614610358272'
p2699
S'other_useful_information'
p2700
sS'382814940936937472'
p2701
S'other_useful_information'
p2702
sS'382831259497418752'
p2703
S'not_related_or_irrelevant'
p2704
sS'382831103435743233'
p2705
S'other_useful_information'
p2706
sS'382827233595109376'
p2707
S'other_useful_information'
p2708
sS'382815155131662336'
p2709
S'not_related_or_irrelevant'
p2710
sS'382829896479023104'
p2711
S'donation_needs_or_offers_or_volunteering_services'
p2712
sS'382831514113044480'
p2713
S'other_useful_information'
p2714
sS'382814149165973504'
p2715
S'caution_and_advice'
p2716
sS'382816386000502784'
p2717
S'donation_needs_or_offers_or_volunteering_services'
p2718
sS'382828303620386818'
p2719
S'other_useful_information'
p2720
sS'382831311955968000'
p2721
S'not_related_or_irrelevant'
p2722
sS'382816229167099904'
p2723
S'other_useful_information'
p2724
sS'382826333799075840'
p2725
S'caution_and_advice'
p2726
sS'382832496338939904'
p2727
S'not_related_or_irrelevant'
p2728
sS'382831717364793344'
p2729
S'other_useful_information'
p2730
sS'382823780910788608'
p2731
S'donation_needs_or_offers_or_volunteering_services'
p2732
sS'382833643426947072'
p2733
S'other_useful_information'
p2734
sS'382824310865657856'
p2735
S'donation_needs_or_offers_or_volunteering_services'
p2736
sS'382822266196619264'
p2737
S'injured_or_dead_people'
p2738
sS'382813873679896576'
p2739
S'infrastructure_and_utilities_damage'
p2740
sS'382830630532169728'
p2741
S'other_useful_information'
p2742
sS'382837489897316352'
p2743
S'other_useful_information'
p2744
sS'382826615442382848'
p2745
S'donation_needs_or_offers_or_volunteering_services'
p2746
sS'382822363861364736'
p2747
S'infrastructure_and_utilities_damage'
p2748
sS'382819862109638657'
p2749
S'not_related_or_irrelevant'
p2750
sS'382825792713265152'
p2751
S'not_related_or_irrelevant'
p2752
sS'382825926566109184'
p2753
S'not_related_or_irrelevant'
p2754
sS'382824601300238336'
p2755
S'infrastructure_and_utilities_damage'
p2756
sS'382833541110702080'
p2757
S'other_useful_information'
p2758
sS'382834533772447744'
p2759
S'sympathy_and_emotional_support'
p2760
sS'382815450272649216'
p2761
S'not_related_or_irrelevant'
p2762
sS'382830093980418048'
p2763
S'other_useful_information'
p2764
sS'382837343792529408'
p2765
S'other_useful_information'
p2766
sS'382827344073084928'
p2767
S'other_useful_information'
p2768
sS'382818547132801024'
p2769
S'other_useful_information'
p2770
sS'382824667045568512'
p2771
S'sympathy_and_emotional_support'
p2772
sS'382834434648866816'
p2773
S'other_useful_information'
p2774
sS'382830744076570624'
p2775
S'donation_needs_or_offers_or_volunteering_services'
p2776
sS'382827205853597696'
p2777
S'caution_and_advice'
p2778
sS'382824690235871232'
p2779
S'other_useful_information'
p2780
sS'382831085500911616'
p2781
S'not_related_or_irrelevant'
p2782
sS'382824034121310208'
p2783
S'donation_needs_or_offers_or_volunteering_services'
p2784
sS'382827826426433536'
p2785
S'other_useful_information'
p2786
sS'382833858066276352'
p2787
S'other_useful_information'
p2788
sS'382816985530122240'
p2789
S'other_useful_information'
p2790
sS'382825443147382784'
p2791
S'other_useful_information'
p2792
sS'382817615241957376'
p2793
S'not_related_or_irrelevant'
p2794
sS'382816472713945088'
p2795
S'injured_or_dead_people'
p2796
sS'382815104850329600'
p2797
S'not_related_or_irrelevant'
p2798
sS'382836561743593472'
p2799
S'not_related_or_irrelevant'
p2800
sS'382832999655825408'
p2801
S'other_useful_information'
p2802
sS'382826657226031104'
p2803
S'injured_or_dead_people'
p2804
sS'382823974675034112'
p2805
S'other_useful_information'
p2806
sS'382825931930230785'
p2807
S'sympathy_and_emotional_support'
p2808
sS'382837403402002433'
p2809
S'other_useful_information'
p2810
sS'382835569912737792'
p2811
S'displaced_people_and_evacuations'
p2812
sS'382833591937269760'
p2813
S'other_useful_information'
p2814
sS'382828214147874816'
p2815
S'not_related_or_irrelevant'
p2816
sS'382837082202177536'
p2817
S'other_useful_information'
p2818
sS'382826995668635648'
p2819
S'displaced_people_and_evacuations'
p2820
sS'382825898506203136'
p2821
S'not_related_or_irrelevant'
p2822
sS'382822064878800896'
p2823
S'not_related_or_irrelevant'
p2824
sS'382829628219334657'
p2825
S'other_useful_information'
p2826
sS'382826125698666496'
p2827
S'other_useful_information'
p2828
sS'382830206433497088'
p2829
S'donation_needs_or_offers_or_volunteering_services'
p2830
sS'382815028006514688'
p2831
S'other_useful_information'
p2832
sS'382833768173961216'
p2833
S'other_useful_information'
p2834
sS'382813540366954497'
p2835
S'other_useful_information'
p2836
sS'382816317260066818'
p2837
S'sympathy_and_emotional_support'
p2838
sS'382828329620881408'
p2839
S'missing_trapped_or_found_people'
p2840
sS'382825460247592960'
p2841
S'other_useful_information'
p2842
sS'382822510674182144'
p2843
S'other_useful_information'
p2844
sS'382831674301497344'
p2845
S'other_useful_information'
p2846
sS'382832349265678336'
p2847
S'donation_needs_or_offers_or_volunteering_services'
p2848
sS'382815219891712000'
p2849
S'donation_needs_or_offers_or_volunteering_services'
p2850
sS'382830061809696768'
p2851
S'not_related_or_irrelevant'
p2852
sS'382815780041404416'
p2853
S'caution_and_advice'
p2854
sS'382819700377264129'
p2855
S'injured_or_dead_people'
p2856
sS'382832035888238592'
p2857
S'other_useful_information'
p2858
sS'382829975134433280'
p2859
S'donation_needs_or_offers_or_volunteering_services'
p2860
sS'382829797446934528'
p2861
S'sympathy_and_emotional_support'
p2862
sS'382818821993537537'
p2863
S'other_useful_information'
p2864
sS'382822163742330881'
p2865
S'donation_needs_or_offers_or_volunteering_services'
p2866
sS'382832747393212416'
p2867
S'donation_needs_or_offers_or_volunteering_services'
p2868
sS'382832850573082624'
p2869
S'injured_or_dead_people'
p2870
sS'382825568015618048'
p2871
S'other_useful_information'
p2872
sS'382831353542107136'
p2873
S'donation_needs_or_offers_or_volunteering_services'
p2874
sS'382830560957063168'
p2875
S'donation_needs_or_offers_or_volunteering_services'
p2876
sS'382820204994371584'
p2877
S'donation_needs_or_offers_or_volunteering_services'
p2878
sS'382822929647808512'
p2879
S'sympathy_and_emotional_support'
p2880
sS'382824991391113216'
p2881
S'donation_needs_or_offers_or_volunteering_services'
p2882
sS'382830033032597504'
p2883
S'other_useful_information'
p2884
sS'382836533276844032'
p2885
S'injured_or_dead_people'
p2886
sS'382819728919523329'
p2887
S'sympathy_and_emotional_support'
p2888
sS'382824985154166784'
p2889
S'other_useful_information'
p2890
sS'382814146620059648'
p2891
S'not_related_or_irrelevant'
p2892
sS'382836250794672128'
p2893
S'injured_or_dead_people'
p2894
sS'382828075542937601'
p2895
S'injured_or_dead_people'
p2896
sS'382817224739680256'
p2897
S'not_related_or_irrelevant'
p2898
sS'382836736595722240'
p2899
S'other_useful_information'
p2900
sS'382816843850719232'
p2901
S'not_related_or_irrelevant'
p2902
sS'382831501227724800'
p2903
S'caution_and_advice'
p2904
sS'382828125119205376'
p2905
S'other_useful_information'
p2906
sS'382832785108389888'
p2907
S'other_useful_information'
p2908
sS'382824038814322688'
p2909
S'donation_needs_or_offers_or_volunteering_services'
p2910
sS'382827048718172160'
p2911
S'other_useful_information'
p2912
sS'382835718650744833'
p2913
S'donation_needs_or_offers_or_volunteering_services'
p2914
sS'382814766852358145'
p2915
S'donation_needs_or_offers_or_volunteering_services'
p2916
sS'382818238532308993'
p2917
S'other_useful_information'
p2918
sS'382820971293323264'
p2919
S'other_useful_information'
p2920
sS'382835732886585344'
p2921
S'other_useful_information'
p2922
sS'382814695113379840'
p2923
S'other_useful_information'
p2924
sS'382823943276462080'
p2925
S'donation_needs_or_offers_or_volunteering_services'
p2926
sS'382821588863029248'
p2927
S'other_useful_information'
p2928
sS'382826049907601409'
p2929
S'injured_or_dead_people'
p2930
sS'382826435477389312'
p2931
S'donation_needs_or_offers_or_volunteering_services'
p2932
sS'382822073887760384'
p2933
S'other_useful_information'
p2934
sS'382813829719019521'
p2935
S'caution_and_advice'
p2936
sS'382823092617089024'
p2937
S'other_useful_information'
p2938
sS'382832766909313025'
p2939
S'other_useful_information'
p2940
sS'382832727772659712'
p2941
S'donation_needs_or_offers_or_volunteering_services'
p2942
sS'382828550505496576'
p2943
S'other_useful_information'
p2944
sS'382817422979260417'
p2945
S'sympathy_and_emotional_support'
p2946
sS'382837191509942272'
p2947
S'donation_needs_or_offers_or_volunteering_services'
p2948
sS'382830696818941953'
p2949
S'other_useful_information'
p2950
sS'382836782888280064'
p2951
S'donation_needs_or_offers_or_volunteering_services'
p2952
sS'382826955776995328'
p2953
S'other_useful_information'
p2954
sS'382835467357814784'
p2955
S'donation_needs_or_offers_or_volunteering_services'
p2956
sS'382829563664793600'
p2957
S'donation_needs_or_offers_or_volunteering_services'
p2958
sS'382814490053451776'
p2959
S'injured_or_dead_people'
p2960
sS'382815486313906177'
p2961
S'not_related_or_irrelevant'
p2962
sS'382823476471803904'
p2963
S'other_useful_information'
p2964
sS'382831068836945921'
p2965
S'other_useful_information'
p2966
sS'382828215334477824'
p2967
S'sympathy_and_emotional_support'
p2968
sS'382835746778124288'
p2969
S'donation_needs_or_offers_or_volunteering_services'
p2970
sS'382836458626641920'
p2971
S'injured_or_dead_people'
p2972
sS'382814179624628224'
p2973
S'donation_needs_or_offers_or_volunteering_services'
p2974
sS'382815716300177408'
p2975
S'other_useful_information'
p2976
sS'382831032476516352'
p2977
S'other_useful_information'
p2978
sS'382818672969920513'
p2979
S'donation_needs_or_offers_or_volunteering_services'
p2980
sS'382837087495815168'
p2981
S'other_useful_information'
p2982
sS'382829072549543937'
p2983
S'donation_needs_or_offers_or_volunteering_services'
p2984
sS'382832171200675840'
p2985
S'injured_or_dead_people'
p2986
sS'382834317225115648'
p2987
S'sympathy_and_emotional_support'
p2988
sS'382830191770599424'
p2989
S'not_related_or_irrelevant'
p2990
sS'382831970637475840'
p2991
S'sympathy_and_emotional_support'
p2992
sS'382822442785599488'
p2993
S'not_related_or_irrelevant'
p2994
sS'382826047722364928'
p2995
S'donation_needs_or_offers_or_volunteering_services'
p2996
sS'382836471087906819'
p2997
S'other_useful_information'
p2998
sS'382829808591572992'
p2999
S'other_useful_information'
p3000
sS'382828911370833921'
p3001
S'other_useful_information'
p3002
sS'382824091087953920'
p3003
S'not_related_or_irrelevant'
p3004
sS'382828967075401728'
p3005
S'injured_or_dead_people'
p3006
sS'382824277193793536'
p3007
S'other_useful_information'
p3008
sS'382817407091216386'
p3009
S'other_useful_information'
p3010
sS'382816095201001474'
p3011
S'donation_needs_or_offers_or_volunteering_services'
p3012
sS'382813914796290048'
p3013
S'caution_and_advice'
p3014
sS'382835310352420864'
p3015
S'other_useful_information'
p3016
sS'382830606402351105'
p3017
S'other_useful_information'
p3018
sS'382826953985634306'
p3019
S'donation_needs_or_offers_or_volunteering_services'
p3020
sS'382833826063712256'
p3021
S'other_useful_information'
p3022
sS'382833757935247360'
p3023
S'sympathy_and_emotional_support'
p3024
sS'382820595391418368'
p3025
S'injured_or_dead_people'
p3026
sS'382816078398648320'
p3027
S'other_useful_information'
p3028
sS'382816850884960256'
p3029
S'sympathy_and_emotional_support'
p3030
sS'382833033415757824'
p3031
S'not_related_or_irrelevant'
p3032
sS'382828352186241024'
p3033
S'injured_or_dead_people'
p3034
sS'382834642514378752'
p3035
S'donation_needs_or_offers_or_volunteering_services'
p3036
sS'382821223081586688'
p3037
S'caution_and_advice'
p3038
sS'382819460484067328'
p3039
S'other_useful_information'
p3040
sS'382825368840699904'
p3041
S'injured_or_dead_people'
p3042
sS'382816798799704064'
p3043
S'donation_needs_or_offers_or_volunteering_services'
p3044
sS'382833249820483584'
p3045
S'injured_or_dead_people'
p3046
sS'382836898974035969'
p3047
S'injured_or_dead_people'
p3048
sS'382816365205127168'
p3049
S'other_useful_information'
p3050
sS'382822888870387714'
p3051
S'injured_or_dead_people'
p3052
sS'382826379764854784'
p3053
S'injured_or_dead_people'
p3054
sS'382827838987976704'
p3055
S'sympathy_and_emotional_support'
p3056
sS'382836143777406976'
p3057
S'other_useful_information'
p3058
sS'382826846967971840'
p3059
S'other_useful_information'
p3060
sS'382832542065229824'
p3061
S'other_useful_information'
p3062
sS'382829371016613888'
p3063
S'other_useful_information'
p3064
sS'382827922144256000'
p3065
S'other_useful_information'
p3066
sS'382822836655509504'
p3067
S'other_useful_information'
p3068
sS'382836464335470592'
p3069
S'injured_or_dead_people'
p3070
sS'382833527613820928'
p3071
S'other_useful_information'
p3072
sS'382824019386314752'
p3073
S'caution_and_advice'
p3074
sS'382818006046212097'
p3075
S'other_useful_information'
p3076
sS'382835131716608000'
p3077
S'not_related_or_irrelevant'
p3078
sS'382826490271768576'
p3079
S'not_related_or_irrelevant'
p3080
sS'382831504750944256'
p3081
S'other_useful_information'
p3082
sS'382833052214644736'
p3083
S'donation_needs_or_offers_or_volunteering_services'
p3084
sS'382814062704226304'
p3085
S'injured_or_dead_people'
p3086
sS'382832727134711808'
p3087
S'donation_needs_or_offers_or_volunteering_services'
p3088
sS'382819259447267328'
p3089
S'caution_and_advice'
p3090
sS'382830734974537728'
p3091
S'other_useful_information'
p3092
sS'382813652752928768'
p3093
S'injured_or_dead_people'
p3094
sS'382833381232230401'
p3095
S'other_useful_information'
p3096
sS'382815237940187136'
p3097
S'donation_needs_or_offers_or_volunteering_services'
p3098
sS'382816646769160192'
p3099
S'donation_needs_or_offers_or_volunteering_services'
p3100
sS'382832669916430336'
p3101
S'not_related_or_irrelevant'
p3102
sS'382834575921004544'
p3103
S'other_useful_information'
p3104
sS'382823349220438016'
p3105
S'other_useful_information'
p3106
sS'382829053717520385'
p3107
S'not_related_or_irrelevant'
p3108
sS'382836357879435264'
p3109
S'other_useful_information'
p3110
sS'382835299602419712'
p3111
S'donation_needs_or_offers_or_volunteering_services'
p3112
sS'382814651580678144'
p3113
S'other_useful_information'
p3114
sS'382819556755914752'
p3115
S'other_useful_information'
p3116
sS'382828268455755776'
p3117
S'injured_or_dead_people'
p3118
sS'382824236785467392'
p3119
S'sympathy_and_emotional_support'
p3120
sS'382818744356986880'
p3121
S'other_useful_information'
p3122
sS'382823841241640961'
p3123
S'other_useful_information'
p3124
sS'382834562285334528'
p3125
S'donation_needs_or_offers_or_volunteering_services'
p3126
sS'382829977320038400'
p3127
S'injured_or_dead_people'
p3128
sS'382834998836879360'
p3129
S'other_useful_information'
p3130
sS'382831047849046016'
p3131
S'injured_or_dead_people'
p3132
sS'382835466095329280'
p3133
S'other_useful_information'
p3134
sS'382833021268660224'
p3135
S'not_related_or_irrelevant'
p3136
sS'382830094668271616'
p3137
S'other_useful_information'
p3138
sS'382813440655376384'
p3139
S'injured_or_dead_people'
p3140
sS'382814888776577024'
p3141
S'injured_or_dead_people'
p3142
sS'382821963841806336'
p3143
S'donation_needs_or_offers_or_volunteering_services'
p3144
sS'382824065834029056'
p3145
S'other_useful_information'
p3146
sS'382816558801620993'
p3147
S'other_useful_information'
p3148
sS'382822621441581057'
p3149
S'donation_needs_or_offers_or_volunteering_services'
p3150
sS'382825697854496768'
p3151
S'not_related_or_irrelevant'
p3152
sS'382834005021712384'
p3153
S'other_useful_information'
p3154
sS'382834837037789184'
p3155
S'injured_or_dead_people'
p3156
sS'382833050129678336'
p3157
S'injured_or_dead_people'
p3158
sS'382834263915499520'
p3159
S'injured_or_dead_people'
p3160
sS'382817132859256832'
p3161
S'other_useful_information'
p3162
sS'382829720397946880'
p3163
S'other_useful_information'
p3164
sS'382832736320249856'
p3165
S'donation_needs_or_offers_or_volunteering_services'
p3166
sS'382834428835164161'
p3167
S'donation_needs_or_offers_or_volunteering_services'
p3168
sS'382826098964168704'
p3169
S'other_useful_information'
p3170
sS'382816970250256384'
p3171
S'other_useful_information'
p3172
sS'382832227848974336'
p3173
S'other_useful_information'
p3174
sS'382833106060705793'
p3175
S'other_useful_information'
p3176
sS'382818065450151936'
p3177
S'sympathy_and_emotional_support'
p3178
sS'382820031005859840'
p3179
S'injured_or_dead_people'
p3180
sS'382836685656305664'
p3181
S'other_useful_information'
p3182
sS'382820017672187904'
p3183
S'not_related_or_irrelevant'
p3184
sS'382815509324263424'
p3185
S'other_useful_information'
p3186
sS'382823484914544640'
p3187
S'other_useful_information'
p3188
sS'382822231643934721'
p3189
S'injured_or_dead_people'
p3190
sS'382828475801169920'
p3191
S'not_related_or_irrelevant'
p3192
sS'382821954333712385'
p3193
S'other_useful_information'
p3194
sS'382829555641495552'
p3195
S'other_useful_information'
p3196
sS'382833930489315328'
p3197
S'other_useful_information'
p3198
sS'382826003959017473'
p3199
S'not_related_or_irrelevant'
p3200
sS'382833773345517568'
p3201
S'not_related_or_irrelevant'
p3202
sS'382833154764972033'
p3203
S'donation_needs_or_offers_or_volunteering_services'
p3204
sS'382824153595658241'
p3205
S'other_useful_information'
p3206
sS'382817282247770112'
p3207
S'injured_or_dead_people'
p3208
sS'382827129991221249'
p3209
S'other_useful_information'
p3210
sS'382832791848636416'
p3211
S'donation_needs_or_offers_or_volunteering_services'
p3212
sS'382835904806531072'
p3213
S'donation_needs_or_offers_or_volunteering_services'
p3214
sS'382815846189768704'
p3215
S'injured_or_dead_people'
p3216
sS'382833505144557568'
p3217
S'donation_needs_or_offers_or_volunteering_services'
p3218
sS'382814139623931904'
p3219
S'other_useful_information'
p3220
sS'382821615341297664'
p3221
S'sympathy_and_emotional_support'
p3222
sS'382818823092854784'
p3223
S'other_useful_information'
p3224
sS'382833507413671936'
p3225
S'injured_or_dead_people'
p3226
sS'382820757765500928'
p3227
S'other_useful_information'
p3228
sS'382821330787524608'
p3229
S'injured_or_dead_people'
p3230
sS'382815541372932096'
p3231
S'other_useful_information'
p3232
sS'382831407547940864'
p3233
S'injured_or_dead_people'
p3234
sS'382827180725899264'
p3235
S'sympathy_and_emotional_support'
p3236
sS'382836360484098048'
p3237
S'sympathy_and_emotional_support'
p3238
sS'382831498295906304'
p3239
S'other_useful_information'
p3240
sS'382828266727280640'
p3241
S'caution_and_advice'
p3242
sS'382824917198065664'
p3243
S'other_useful_information'
p3244
sS'382835908330139648'
p3245
S'other_useful_information'
p3246
sS'382820885280747520'
p3247
S'donation_needs_or_offers_or_volunteering_services'
p3248
sS'382832966101377024'
p3249
S'other_useful_information'
p3250
sS'382826692516925440'
p3251
S'other_useful_information'
p3252
sS'382813444011204608'
p3253
S'other_useful_information'
p3254
sS'382830160757530624'
p3255
S'not_related_or_irrelevant'
p3256
sS'382834241899614208'
p3257
S'other_useful_information'
p3258
sS'382828915384782848'
p3259
S'displaced_people_and_evacuations'
p3260
sS'382822728778006529'
p3261
S'not_related_or_irrelevant'
p3262
sS'382823210829377536'
p3263
S'injured_or_dead_people'
p3264
sS'382830586135474178'
p3265
S'donation_needs_or_offers_or_volunteering_services'
p3266
sS'382820720968880128'
p3267
S'other_useful_information'
p3268
sS'382814156857950208'
p3269
S'other_useful_information'
p3270
sS'382833254015180800'
p3271
S'not_related_or_irrelevant'
p3272
sS'382835171679948800'
p3273
S'other_useful_information'
p3274
sS'382827386322292736'
p3275
S'not_related_or_irrelevant'
p3276
sS'382832419658682368'
p3277
S'donation_needs_or_offers_or_volunteering_services'
p3278
sS'382827286871179264'
p3279
S'injured_or_dead_people'
p3280
sS'382813391435206659'
p3281
S'not_related_or_irrelevant'
p3282
sS'382831131865128960'
p3283
S'missing_trapped_or_found_people'
p3284
sS'382837378953781248'
p3285
S'injured_or_dead_people'
p3286
sS'382837626702938112'
p3287
S'other_useful_information'
p3288
sS'382815628953804800'
p3289
S'other_useful_information'
p3290
sS'382815170923610112'
p3291
S'sympathy_and_emotional_support'
p3292
sS'382818560420360192'
p3293
S'other_useful_information'
p3294
sS'382822886056001536'
p3295
S'donation_needs_or_offers_or_volunteering_services'
p3296
sS'382826360529362944'
p3297
S'other_useful_information'
p3298
sS'382826933471682560'
p3299
S'other_useful_information'
p3300
sS'382815940720611328'
p3301
S'caution_and_advice'
p3302
sS'382827132029640705'
p3303
S'other_useful_information'
p3304
sS'382825906336583680'
p3305
S'donation_needs_or_offers_or_volunteering_services'
p3306
sS'382814257760321538'
p3307
S'injured_or_dead_people'
p3308
sS'382831192644399105'
p3309
S'donation_needs_or_offers_or_volunteering_services'
p3310
sS'382836979466903552'
p3311
S'other_useful_information'
p3312
sS'382827764174188544'
p3313
S'other_useful_information'
p3314
sS'382817085069737984'
p3315
S'not_related_or_irrelevant'
p3316
sS'382830434167439360'
p3317
S'donation_needs_or_offers_or_volunteering_services'
p3318
sS'382827333419155457'
p3319
S'other_useful_information'
p3320
sS'382824374338060288'
p3321
S'other_useful_information'
p3322
sS'382831514704429056'
p3323
S'infrastructure_and_utilities_damage'
p3324
sS'382836771584634880'
p3325
S'injured_or_dead_people'
p3326
sS'382833100323303424'
p3327
S'other_useful_information'
p3328
sS'382835790444630018'
p3329
S'other_useful_information'
p3330
sS'382821314299301888'
p3331
S'sympathy_and_emotional_support'
p3332
sS'382831886852427776'
p3333
S'not_related_or_irrelevant'
p3334
sS'382833997023178752'
p3335
S'other_useful_information'
p3336
sS'382836142510710784'
p3337
S'donation_needs_or_offers_or_volunteering_services'
p3338
sS'382814369425285120'
p3339
S'infrastructure_and_utilities_damage'
p3340
sS'382835784673288192'
p3341
S'not_related_or_irrelevant'
p3342
sS'382830192340656128'
p3343
S'not_related_or_irrelevant'
p3344
sS'382826319022542848'
p3345
S'injured_or_dead_people'
p3346
sS'382826061513240576'
p3347
S'other_useful_information'
p3348
sS'382815388720828416'
p3349
S'not_related_or_irrelevant'
p3350
sS'382827303111499776'
p3351
S'not_related_or_irrelevant'
p3352
sS'382823137127452672'
p3353
S'caution_and_advice'
p3354
sS'382836859853750273'
p3355
S'not_related_or_irrelevant'
p3356
sS'382821717301010432'
p3357
S'other_useful_information'
p3358
sS'382836208088666112'
p3359
S'other_useful_information'
p3360
sS'382837394757517313'
p3361
S'not_related_or_irrelevant'
p3362
sS'382836574175502336'
p3363
S'injured_or_dead_people'
p3364
sS'382832045279698944'
p3365
S'injured_or_dead_people'
p3366
sS'382833266610274304'
p3367
S'injured_or_dead_people'
p3368
sS'382813996354510848'
p3369
S'other_useful_information'
p3370
sS'382814157248409600'
p3371
S'other_useful_information'
p3372
sS'382827978251456514'
p3373
S'donation_needs_or_offers_or_volunteering_services'
p3374
sS'382823992811597824'
p3375
S'injured_or_dead_people'
p3376
sS'382816829875712000'
p3377
S'other_useful_information'
p3378
sS'382818251648282624'
p3379
S'caution_and_advice'
p3380
sS'382824765288759296'
p3381
S'other_useful_information'
p3382
sS'382822042762223616'
p3383
S'infrastructure_and_utilities_damage'
p3384
sS'382830652967514112'
p3385
S'not_related_or_irrelevant'
p3386
sS'382822589388705792'
p3387
S'other_useful_information'
p3388
sS'382815813809364992'
p3389
S'other_useful_information'
p3390
sS'382836957916573698'
p3391
S'other_useful_information'
p3392
sS'382836475781316610'
p3393
S'other_useful_information'
p3394
sS'382829199159218176'
p3395
S'other_useful_information'
p3396
sS'382829302565199872'
p3397
S'injured_or_dead_people'
p3398
sS'382828295768645632'
p3399
S'injured_or_dead_people'
p3400
sS'382821409103572992'
p3401
S'injured_or_dead_people'
p3402
sS'382814938890129409'
p3403
S'not_related_or_irrelevant'
p3404
sS'382831706161827840'
p3405
S'other_useful_information'
p3406
sS'382828266148466688'
p3407
S'donation_needs_or_offers_or_volunteering_services'
p3408
sS'382822874022965248'
p3409
S'other_useful_information'
p3410
sS'382832136664793088'
p3411
S'sympathy_and_emotional_support'
p3412
sS'382831903893913600'
p3413
S'donation_needs_or_offers_or_volunteering_services'
p3414
sS'382813518602313729'
p3415
S'donation_needs_or_offers_or_volunteering_services'
p3416
sS'382835188457553920'
p3417
S'donation_needs_or_offers_or_volunteering_services'
p3418
sS'382831886885986304'
p3419
S'other_useful_information'
p3420
sS'382837519861051392'
p3421
S'donation_needs_or_offers_or_volunteering_services'
p3422
sS'382828266702110720'
p3423
S'other_useful_information'
p3424
sS'382836509960716289'
p3425
S'other_useful_information'
p3426
sS'382816284288643072'
p3427
S'injured_or_dead_people'
p3428
sS'382824300291817472'
p3429
S'donation_needs_or_offers_or_volunteering_services'
p3430
sS'382830925853126657'
p3431
S'other_useful_information'
p3432
sS'382834960173764608'
p3433
S'not_related_or_irrelevant'
p3434
sS'382836172827144192'
p3435
S'other_useful_information'
p3436
sS'382837443826679808'
p3437
S'injured_or_dead_people'
p3438
sS'382827276322496512'
p3439
S'injured_or_dead_people'
p3440
sS'382832559312220161'
p3441
S'injured_or_dead_people'
p3442
sS'382835027433644032'
p3443
S'not_related_or_irrelevant'
p3444
sS'382829951612764160'
p3445
S'not_related_or_irrelevant'
p3446
sS'382833921609990144'
p3447
S'not_related_or_irrelevant'
p3448
sS'382829402255421441'
p3449
S'not_related_or_irrelevant'
p3450
sS'382824592122736641'
p3451
S'donation_needs_or_offers_or_volunteering_services'
p3452
sS'382822699833102336'
p3453
S'donation_needs_or_offers_or_volunteering_services'
p3454
sS'382824366134018048'
p3455
S'donation_needs_or_offers_or_volunteering_services'
p3456
sS'382835425867751424'
p3457
S'donation_needs_or_offers_or_volunteering_services'
p3458
sS'382818570184323072'
p3459
S'other_useful_information'
p3460
sS'382833028864946176'
p3461
S'other_useful_information'
p3462
sS'382828873869586432'
p3463
S'other_useful_information'
p3464
sS'382830764226019328'
p3465
S'caution_and_advice'
p3466
sS'382819969848729600'
p3467
S'not_related_or_irrelevant'
p3468
sS'382818842822451200'
p3469
S'donation_needs_or_offers_or_volunteering_services'
p3470
sS'382818377015640065'
p3471
S'sympathy_and_emotional_support'
p3472
sS'382817638004449280'
p3473
S'other_useful_information'
p3474
sS'382814668257263616'
p3475
S'other_useful_information'
p3476
sS'382822283267428353'
p3477
S'donation_needs_or_offers_or_volunteering_services'
p3478
sS'382836120397959168'
p3479
S'not_related_or_irrelevant'
p3480
sS'382833168820486144'
p3481
S'other_useful_information'
p3482
sS'382836180070727680'
p3483
S'sympathy_and_emotional_support'
p3484
sS'382833036741464064'
p3485
S'donation_needs_or_offers_or_volunteering_services'
p3486
sS'382827203009855488'
p3487
S'other_useful_information'
p3488
sS'382836757927981056'
p3489
S'injured_or_dead_people'
p3490
sS'382820242289750017'
p3491
S'injured_or_dead_people'
p3492
sS'382833058048929793'
p3493
S'other_useful_information'
p3494
sS'382831787765813248'
p3495
S'other_useful_information'
p3496
sS'382828270846476288'
p3497
S'other_useful_information'
p3498
sS'382818747251429376'
p3499
S'donation_needs_or_offers_or_volunteering_services'
p3500
sS'382819416033214464'
p3501
S'displaced_people_and_evacuations'
p3502
sS'382836055218470912'
p3503
S'other_useful_information'
p3504
sS'382826273128460289'
p3505
S'donation_needs_or_offers_or_volunteering_services'
p3506
sS'382832919930093569'
p3507
S'other_useful_information'
p3508
sS'382836107895119872'
p3509
S'other_useful_information'
p3510
sS'382830868827754498'
p3511
S'injured_or_dead_people'
p3512
sS'382827665889038336'
p3513
S'not_related_or_irrelevant'
p3514
sS'382826958100262912'
p3515
S'not_related_or_irrelevant'
p3516
sS'382822149318512640'
p3517
S'other_useful_information'
p3518
sS'382829483205865472'
p3519
S'other_useful_information'
p3520
sS'382815466344816640'
p3521
S'donation_needs_or_offers_or_volunteering_services'
p3522
sS'382832560029462529'
p3523
S'donation_needs_or_offers_or_volunteering_services'
p3524
sS'382823176449036288'
p3525
S'injured_or_dead_people'
p3526
sS'382833085676408833'
p3527
S'other_useful_information'
p3528
sS'382830571040567296'
p3529
S'injured_or_dead_people'
p3530
sS'382824308478709761'
p3531
S'donation_needs_or_offers_or_volunteering_services'
p3532
sS'382814719683592193'
p3533
S'other_useful_information'
p3534
sS'382837272996884480'
p3535
S'sympathy_and_emotional_support'
p3536
sS'382824856879767553'
p3537
S'other_useful_information'
p3538
sS'382817293912518656'
p3539
S'not_related_or_irrelevant'
p3540
sS'382822265273843712'
p3541
S'not_related_or_irrelevant'
p3542
sS'382823472813969408'
p3543
S'not_related_or_irrelevant'
p3544
sS'382819363184599040'
p3545
S'injured_or_dead_people'
p3546
sS'382820144000413696'
p3547
S'other_useful_information'
p3548
sS'382836524947345408'
p3549
S'injured_or_dead_people'
p3550
sS'382818754838532096'
p3551
S'donation_needs_or_offers_or_volunteering_services'
p3552
sS'382819911031992320'
p3553
S'caution_and_advice'
p3554
sS'382830928994639872'
p3555
S'donation_needs_or_offers_or_volunteering_services'
p3556
sS'382827371436326912'
p3557
S'caution_and_advice'
p3558
sS'382821366077992960'
p3559
S'donation_needs_or_offers_or_volunteering_services'
p3560
sS'382831823149355008'
p3561
S'other_useful_information'
p3562
sS'382831504168349697'
p3563
S'other_useful_information'
p3564
sS'382813700375474176'
p3565
S'other_useful_information'
p3566
sS'382824825980727296'
p3567
S'not_related_or_irrelevant'
p3568
sS'382821885039611904'
p3569
S'other_useful_information'
p3570
sS'382816628846895104'
p3571
S'other_useful_information'
p3572
sS'382822405456285696'
p3573
S'other_useful_information'
p3574
sS'382834863529017344'
p3575
S'not_related_or_irrelevant'
p3576
sS'382817010331037696'
p3577
S'other_useful_information'
p3578
sS'382835418653151232'
p3579
S'not_related_or_irrelevant'
p3580
sS'382836049472262144'
p3581
S'other_useful_information'
p3582
sS'382817123409489920'
p3583
S'injured_or_dead_people'
p3584
sS'382827610814042112'
p3585
S'other_useful_information'
p3586
sS'382820963861004288'
p3587
S'not_related_or_irrelevant'
p3588
sS'382825177488179202'
p3589
S'other_useful_information'
p3590
sS'382824863750045696'
p3591
S'donation_needs_or_offers_or_volunteering_services'
p3592
sS'382822390117720064'
p3593
S'other_useful_information'
p3594
sS'382816083977441280'
p3595
S'not_related_or_irrelevant'
p3596
sS'382817567519154176'
p3597
S'not_related_or_irrelevant'
p3598
sS'382831367504920577'
p3599
S'not_related_or_irrelevant'
p3600
sS'382820570997334016'
p3601
S'other_useful_information'
p3602
sS'382837518955065344'
p3603
S'other_useful_information'
p3604
sS'382834176426532864'
p3605
S'other_useful_information'
p3606
sS'382818251467530240'
p3607
S'other_useful_information'
p3608
sS'382835743896240128'
p3609
S'other_useful_information'
p3610
sS'382830934225342464'
p3611
S'donation_needs_or_offers_or_volunteering_services'
p3612
sS'382821278589394945'
p3613
S'other_useful_information'
p3614
sS'382820955682115585'
p3615
S'other_useful_information'
p3616
sS'382832941522755584'
p3617
S'donation_needs_or_offers_or_volunteering_services'
p3618
sS'382835734572699648'
p3619
S'other_useful_information'
p3620
sS'382827549707223040'
p3621
S'not_related_or_irrelevant'
p3622
sS'382816138763046912'
p3623
S'injured_or_dead_people'
p3624
sS'382829998123786240'
p3625
S'other_useful_information'
p3626
sS'382814633213448192'
p3627
S'other_useful_information'
p3628
sS'382831495326355456'
p3629
S'infrastructure_and_utilities_damage'
p3630
sS'382836160160333824'
p3631
S'injured_or_dead_people'
p3632
sS'382818279934275585'
p3633
S'not_related_or_irrelevant'
p3634
sS'382827187826466816'
p3635
S'other_useful_information'
p3636
sS'382815529486254080'
p3637
S'injured_or_dead_people'
p3638
sS'382824316142120961'
p3639
S'other_useful_information'
p3640
sS'382817848319410176'
p3641
S'other_useful_information'
p3642
sS'382829839448674304'
p3643
S'injured_or_dead_people'
p3644
sS'382827908290453504'
p3645
S'other_useful_information'
p3646
sS'382823898813059072'
p3647
S'not_related_or_irrelevant'
p3648
sS'382830364106174464'
p3649
S'donation_needs_or_offers_or_volunteering_services'
p3650
sS'382826282750578688'
p3651
S'not_related_or_irrelevant'
p3652
sS'382821736732827648'
p3653
S'infrastructure_and_utilities_damage'
p3654
sS'382820878464983040'
p3655
S'not_related_or_irrelevant'
p3656
sS'382816885345361920'
p3657
S'other_useful_information'
p3658
sS'382836486011224064'
p3659
S'injured_or_dead_people'
p3660
sS'382832580489641985'
p3661
S'donation_needs_or_offers_or_volunteering_services'
p3662
sS'382814286654865408'
p3663
S'injured_or_dead_people'
p3664
sS'382835061478789121'
p3665
S'other_useful_information'
p3666
sS'382820852904914944'
p3667
S'not_related_or_irrelevant'
p3668
sS'382814164319993856'
p3669
S'other_useful_information'
p3670
sS'382827428478873601'
p3671
S'other_useful_information'
p3672
sS'382814495527038976'
p3673
S'donation_needs_or_offers_or_volunteering_services'
p3674
sS'382819638939504640'
p3675
S'other_useful_information'
p3676
sS'382832643383255040'
p3677
S'injured_or_dead_people'
p3678
sS'382832648353497089'
p3679
S'other_useful_information'
p3680
sS'382832824426192897'
p3681
S'donation_needs_or_offers_or_volunteering_services'
p3682
sS'382815884235915264'
p3683
S'injured_or_dead_people'
p3684
sS'382815297347911680'
p3685
S'injured_or_dead_people'
p3686
sS'382828307370098688'
p3687
S'infrastructure_and_utilities_damage'
p3688
sS'382825673892458496'
p3689
S'other_useful_information'
p3690
sS'382823316442333184'
p3691
S'other_useful_information'
p3692
sS'382835950831017984'
p3693
S'other_useful_information'
p3694
sS'382835377788035074'
p3695
S'sympathy_and_emotional_support'
p3696
sS'382822840338489344'
p3697
S'donation_needs_or_offers_or_volunteering_services'
p3698
sS'382836025531596801'
p3699
S'not_related_or_irrelevant'
p3700
sS'382833854773743616'
p3701
S'injured_or_dead_people'
p3702
sS'382825209805668352'
p3703
S'donation_needs_or_offers_or_volunteering_services'
p3704
sS'382828219730124801'
p3705
S'sympathy_and_emotional_support'
p3706
sS'382814414220824576'
p3707
S'donation_needs_or_offers_or_volunteering_services'
p3708
sS'382833974080327680'
p3709
S'donation_needs_or_offers_or_volunteering_services'
p3710
sS'382823053769863168'
p3711
S'caution_and_advice'
p3712
sS'382825209575014401'
p3713
S'other_useful_information'
p3714
sS'382836891944357888'
p3715
S'donation_needs_or_offers_or_volunteering_services'
p3716
sS'382834938858307584'
p3717
S'injured_or_dead_people'
p3718
sS'382834648650637312'
p3719
S'other_useful_information'
p3720
sS'382836284378845184'
p3721
S'not_related_or_irrelevant'
p3722
sS'382815369251282944'
p3723
S'caution_and_advice'
p3724
sS'382829908478922752'
p3725
S'other_useful_information'
p3726
sS'382822927441215488'
p3727
S'donation_needs_or_offers_or_volunteering_services'
p3728
sS'382824175255031809'
p3729
S'other_useful_information'
p3730
sS'382835928265670656'
p3731
S'injured_or_dead_people'
p3732
sS'382823389951307776'
p3733
S'caution_and_advice'
p3734
sS'382829776387715072'
p3735
S'sympathy_and_emotional_support'
p3736
sS'382826812192985088'
p3737
S'caution_and_advice'
p3738
sS'382822497021734913'
p3739
S'not_related_or_irrelevant'
p3740
sS'382822879940706305'
p3741
S'injured_or_dead_people'
p3742
sS'382813601024995328'
p3743
S'donation_needs_or_offers_or_volunteering_services'
p3744
sS'382824937808875520'
p3745
S'caution_and_advice'
p3746
sS'382825569555316736'
p3747
S'caution_and_advice'
p3748
sS'382815624936050688'
p3749
S'donation_needs_or_offers_or_volunteering_services'
p3750
sS'382828821705400320'
p3751
S'not_related_or_irrelevant'
p3752
sS'382814152969838592'
p3753
S'other_useful_information'
p3754
sS'382825999798267904'
p3755
S'other_useful_information'
p3756
sS'382818091605843969'
p3757
S'other_useful_information'
p3758
sS'382818659909246976'
p3759
S'injured_or_dead_people'
p3760
sS'382836264317497344'
p3761
S'not_related_or_irrelevant'
p3762
sS'382830171889614848'
p3763
S'not_related_or_irrelevant'
p3764
sS'382821133973991424'
p3765
S'sympathy_and_emotional_support'
p3766
sS'382823564032086017'
p3767
S'donation_needs_or_offers_or_volunteering_services'
p3768
sS'382816216571604992'
p3769
S'sympathy_and_emotional_support'
p3770
sS'382813501489946624'
p3771
S'injured_or_dead_people'
p3772
sS'382813540413095936'
p3773
S'injured_or_dead_people'
p3774
sS'382830304798330880'
p3775
S'other_useful_information'
p3776
sS'382829109702701057'
p3777
S'displaced_people_and_evacuations'
p3778
sS'382833545179574272'
p3779
S'other_useful_information'
p3780
sS'382813620356534272'
p3781
S'donation_needs_or_offers_or_volunteering_services'
p3782
sS'382837156487524352'
p3783
S'injured_or_dead_people'
p3784
sS'382836815616802816'
p3785
S'other_useful_information'
p3786
sS'382836521227026432'
p3787
S'infrastructure_and_utilities_damage'
p3788
sS'382818843955314688'
p3789
S'infrastructure_and_utilities_damage'
p3790
sS'382827172521443328'
p3791
S'other_useful_information'
p3792
sS'382818876301791232'
p3793
S'not_related_or_irrelevant'
p3794
sS'382837206093553664'
p3795
S'donation_needs_or_offers_or_volunteering_services'
p3796
sS'382833583385104384'
p3797
S'other_useful_information'
p3798
sS'382824014798143488'
p3799
S'other_useful_information'
p3800
sS'382817872516378625'
p3801
S'other_useful_information'
p3802
sS'382820018695995392'
p3803
S'other_useful_information'
p3804
sS'382824575886970880'
p3805
S'sympathy_and_emotional_support'
p3806
sS'382814144824479746'
p3807
S'other_useful_information'
p3808
sS'382827324007129088'
p3809
S'other_useful_information'
p3810
sS'382821342183436288'
p3811
S'other_useful_information'
p3812
sS'382820315513896961'
p3813
S'donation_needs_or_offers_or_volunteering_services'
p3814
sS'382816326265229312'
p3815
S'donation_needs_or_offers_or_volunteering_services'
p3816
sS'382821630965075968'
p3817
S'other_useful_information'
p3818
sS'382833488640372736'
p3819
S'donation_needs_or_offers_or_volunteering_services'
p3820
sS'382813788832940033'
p3821
S'injured_or_dead_people'
p3822
sS'382836168431120384'
p3823
S'donation_needs_or_offers_or_volunteering_services'
p3824
sS'382829292755111936'
p3825
S'not_related_or_irrelevant'
p3826
sS'382830585888010240'
p3827
S'other_useful_information'
p3828
sS'382827824026890240'
p3829
S'donation_needs_or_offers_or_volunteering_services'
p3830
sS'382831785198891008'
p3831
S'donation_needs_or_offers_or_volunteering_services'
p3832
sS'382814936030019584'
p3833
S'injured_or_dead_people'
p3834
sS'382822678396018688'
p3835
S'donation_needs_or_offers_or_volunteering_services'
p3836
sS'382818986829684736'
p3837
S'sympathy_and_emotional_support'
p3838
sS'382833589462659072'
p3839
S'other_useful_information'
p3840
sS'382827054477344768'
p3841
S'other_useful_information'
p3842
sS'382823137194569728'
p3843
S'injured_or_dead_people'
p3844
sS'382829489765748737'
p3845
S'donation_needs_or_offers_or_volunteering_services'
p3846
sS'382824957165580288'
p3847
S'other_useful_information'
p3848
sS'382814942023262208'
p3849
S'other_useful_information'
p3850
sS'382826735747989505'
p3851
S'not_related_or_irrelevant'
p3852
sS'382818191401299968'
p3853
S'other_useful_information'
p3854
sS'382822994461995009'
p3855
S'other_useful_information'
p3856
sS'382834532736458752'
p3857
S'other_useful_information'
p3858
sS'382827991710965760'
p3859
S'not_related_or_irrelevant'
p3860
sS'382826874810150912'
p3861
S'donation_needs_or_offers_or_volunteering_services'
p3862
sS'382834499480203264'
p3863
S'other_useful_information'
p3864
sS'382830862623981568'
p3865
S'not_related_or_irrelevant'
p3866
sS'382828936066916353'
p3867
S'caution_and_advice'
p3868
sS'382827300217044992'
p3869
S'other_useful_information'
p3870
sS'382834403254087681'
p3871
S'injured_or_dead_people'
p3872
sS'382826972281188352'
p3873
S'other_useful_information'
p3874
sS'382821274344386560'
p3875
S'injured_or_dead_people'
p3876
sS'382831362002419712'
p3877
S'donation_needs_or_offers_or_volunteering_services'
p3878
sS'382833313276526592'
p3879
S'other_useful_information'
p3880
sS'382817582266335232'
p3881
S'donation_needs_or_offers_or_volunteering_services'
p3882
sS'382815208005062656'
p3883
S'donation_needs_or_offers_or_volunteering_services'
p3884
sS'382834679499751425'
p3885
S'injured_or_dead_people'
p3886
sS'382832532816805888'
p3887
S'injured_or_dead_people'
p3888
sS'382827360061362177'
p3889
S'donation_needs_or_offers_or_volunteering_services'
p3890
sS'382834650290593792'
p3891
S'other_useful_information'
p3892
sS'382814060326043648'
p3893
S'donation_needs_or_offers_or_volunteering_services'
p3894
sS'382837044109537280'
p3895
S'not_related_or_irrelevant'
p3896
sS'382833541643386882'
p3897
S'other_useful_information'
p3898
sS'382833598707281920'
p3899
S'not_related_or_irrelevant'
p3900
sS'382837115068768256'
p3901
S'injured_or_dead_people'
p3902
sS'382820301035565056'
p3903
S'other_useful_information'
p3904
sS'382830320888070144'
p3905
S'donation_needs_or_offers_or_volunteering_services'
p3906
sS'382827083023396865'
p3907
S'other_useful_information'
p3908
sS'382837053022429185'
p3909
S'not_related_or_irrelevant'
p3910
sS'382826433829040129'
p3911
S'injured_or_dead_people'
p3912
sS'382813733623300096'
p3913
S'other_useful_information'
p3914
sS'382817097069244416'
p3915
S'not_related_or_irrelevant'
p3916
sS'382814839225077760'
p3917
S'other_useful_information'
p3918
sS'382821704713527297'
p3919
S'injured_or_dead_people'
p3920
sS'382828599063363584'
p3921
S'other_useful_information'
p3922
sS'382818313556226049'
p3923
S'donation_needs_or_offers_or_volunteering_services'
p3924
sS'382833591304351744'
p3925
S'other_useful_information'
p3926
sS'382816229137719296'
p3927
S'infrastructure_and_utilities_damage'
p3928
sS'382818398628884481'
p3929
S'donation_needs_or_offers_or_volunteering_services'
p3930
sS'382824571474546688'
p3931
S'not_related_or_irrelevant'
p3932
sS'382833647545356288'
p3933
S'donation_needs_or_offers_or_volunteering_services'
p3934
sS'382813848006180864'
p3935
S'other_useful_information'
p3936
sS'382820108147888128'
p3937
S'other_useful_information'
p3938
sS'382828611193290752'
p3939
S'injured_or_dead_people'
p3940
sS'382824259821002752'
p3941
S'other_useful_information'
p3942
sS'382824138953752576'
p3943
S'other_useful_information'
p3944
sS'382829197384638466'
p3945
S'other_useful_information'
p3946
sS'382828510592901120'
p3947
S'injured_or_dead_people'
p3948
sS'382826078450249728'
p3949
S'donation_needs_or_offers_or_volunteering_services'
p3950
sS'382827854578192387'
p3951
S'other_useful_information'
p3952
sS'382828185907625984'
p3953
S'injured_or_dead_people'
p3954
sS'382814128102182912'
p3955
S'other_useful_information'
p3956
sS'382828577626267648'
p3957
S'not_related_or_irrelevant'
p3958
sS'382829572636418048'
p3959
S'other_useful_information'
p3960
sS'382820461241184256'
p3961
S'donation_needs_or_offers_or_volunteering_services'
p3962
sS'382823181104742401'
p3963
S'donation_needs_or_offers_or_volunteering_services'
p3964
sS'382818716461068288'
p3965
S'not_related_or_irrelevant'
p3966
sS'382829706850369536'
p3967
S'not_related_or_irrelevant'
p3968
sS'382828128663388160'
p3969
S'other_useful_information'
p3970
sS'382830454421745665'
p3971
S'other_useful_information'
p3972
sS'382828266379169792'
p3973
S'donation_needs_or_offers_or_volunteering_services'
p3974
sS'382825054322438145'
p3975
S'caution_and_advice'
p3976
sS'382830787390754816'
p3977
S'not_related_or_irrelevant'
p3978
sS'382835270338367488'
p3979
S'sympathy_and_emotional_support'
p3980
sS'382834908617388033'
p3981
S'injured_or_dead_people'
p3982
sS'382823210234183680'
p3983
S'other_useful_information'
p3984
sS'382829167860912129'
p3985
S'sympathy_and_emotional_support'
p3986
sS'382822371444277249'
p3987
S'other_useful_information'
p3988
sS'382835614820745216'
p3989
S'not_related_or_irrelevant'
p3990
sS'382827896416391168'
p3991
S'other_useful_information'
p3992
sS'382832261953228800'
p3993
S'other_useful_information'
p3994
sS'382818308208091136'
p3995
S'caution_and_advice'
p3996
sS'382837500374294528'
p3997
S'other_useful_information'
p3998
sS'382819235749040129'
p3999
S'other_useful_information'
p4000
s.