(dp0
S'451188914863505408'
p1
S'injured_or_dead_people'
p2
sS'451188467200831489'
p3
S'other_useful_information'
p4
sS'451189507136946178'
p5
S'caution_and_advice'
p6
sS'451189859932061697'
p7
S'caution_and_advice'
p8
sS'451190312149729280'
p9
S'sympathy_and_emotional_support'
p10
sS'451189608303177728'
p11
S'sympathy_and_emotional_support'
p12
sS'451189278077227009'
p13
S'donation_needs_or_offers_or_volunteering_services'
p14
sS'451189993273581568'
p15
S'caution_and_advice'
p16
sS'451188034403201025'
p17
S'not_related_or_irrelevant'
p18
sS'451189852575629313'
p19
S'other_useful_information'
p20
sS'451188996110958593'
p21
S'other_useful_information'
p22
sS'451188716065665025'
p23
S'not_related_or_irrelevant'
p24
sS'451189396176658432'
p25
S'other_useful_information'
p26
sS'451187659151400961'
p27
S'sympathy_and_emotional_support'
p28
sS'451190447604367360'
p29
S'sympathy_and_emotional_support'
p30
sS'451189495648382976'
p31
S'other_useful_information'
p32
sS'451189330934239232'
p33
S'caution_and_advice'
p34
sS'451189991612227584'
p35
S'caution_and_advice'
p36
sS'451188369448374273'
p37
S'sympathy_and_emotional_support'
p38
sS'451189557409480704'
p39
S'sympathy_and_emotional_support'
p40
sS'451188854121586688'
p41
S'sympathy_and_emotional_support'
p42
sS'451188227337375744'
p43
S'caution_and_advice'
p44
sS'451188935813648384'
p45
S'sympathy_and_emotional_support'
p46
sS'451190177881681920'
p47
S'other_useful_information'
p48
sS'451188288339341312'
p49
S'sympathy_and_emotional_support'
p50
sS'451188597635682304'
p51
S'other_useful_information'
p52
sS'451188262166884352'
p53
S'sympathy_and_emotional_support'
p54
sS'451188032498962432'
p55
S'not_related_or_irrelevant'
p56
sS'451189926236028928'
p57
S'other_useful_information'
p58
sS'451190451614142464'
p59
S'other_useful_information'
p60
sS'451190078040473600'
p61
S'other_useful_information'
p62
sS'451188989026775040'
p63
S'sympathy_and_emotional_support'
p64
sS'451187880962961408'
p65
S'other_useful_information'
p66
sS'451188766942965761'
p67
S'not_related_or_irrelevant'
p68
sS'451190063544545280'
p69
S'sympathy_and_emotional_support'
p70
sS'451187770493779968'
p71
S'injured_or_dead_people'
p72
sS'451187718282698752'
p73
S'other_useful_information'
p74
sS'451187907613949952'
p75
S'not_related_or_irrelevant'
p76
sS'451189630889902080'
p77
S'sympathy_and_emotional_support'
p78
sS'451189659629273088'
p79
S'other_useful_information'
p80
sS'451188645970448384'
p81
S'injured_or_dead_people'
p82
sS'451189450803269633'
p83
S'not_related_or_irrelevant'
p84
sS'451189933303025664'
p85
S'other_useful_information'
p86
sS'451188731471753216'
p87
S'injured_or_dead_people'
p88
sS'451190391786573825'
p89
S'not_related_or_irrelevant'
p90
sS'451188824182620160'
p91
S'sympathy_and_emotional_support'
p92
sS'451189670445989888'
p93
S'caution_and_advice'
p94
sS'451189617153167361'
p95
S'other_useful_information'
p96
sS'451189959412576256'
p97
S'other_useful_information'
p98
sS'451189005082574849'
p99
S'injured_or_dead_people'
p100
sS'451189693045276672'
p101
S'sympathy_and_emotional_support'
p102
sS'451187722493779970'
p103
S'not_related_or_irrelevant'
p104
sS'451189170342723584'
p105
S'sympathy_and_emotional_support'
p106
sS'451188624688951296'
p107
S'other_useful_information'
p108
sS'451187755293233152'
p109
S'other_useful_information'
p110
sS'451189715820363776'
p111
S'sympathy_and_emotional_support'
p112
sS'451188092796686336'
p113
S'infrastructure_and_utilities_damage'
p114
sS'451188891056209920'
p115
S'not_related_or_irrelevant'
p116
sS'451190492110548993'
p117
S'not_related_or_irrelevant'
p118
sS'451189015921053696'
p119
S'caution_and_advice'
p120
sS'451189268568756224'
p121
S'sympathy_and_emotional_support'
p122
sS'451187741238120448'
p123
S'other_useful_information'
p124
sS'451187624586510336'
p125
S'other_useful_information'
p126
sS'451188730196676608'
p127
S'caution_and_advice'
p128
sS'451187860234719232'
p129
S'injured_or_dead_people'
p130
sS'451187791939252225'
p131
S'caution_and_advice'
p132
sS'451188876875673600'
p133
S'caution_and_advice'
p134
sS'451188686689165312'
p135
S'caution_and_advice'
p136
sS'451189898553200640'
p137
S'missing_trapped_or_found_people'
p138
sS'451189652842885120'
p139
S'injured_or_dead_people'
p140
sS'451188654929887232'
p141
S'other_useful_information'
p142
sS'451187717183795200'
p143
S'sympathy_and_emotional_support'
p144
sS'451188314121715712'
p145
S'caution_and_advice'
p146
sS'451188577003913216'
p147
S'other_useful_information'
p148
sS'451188338641604608'
p149
S'other_useful_information'
p150
sS'451188989064515584'
p151
S'not_related_or_irrelevant'
p152
sS'451187936298422272'
p153
S'not_related_or_irrelevant'
p154
sS'451189198490316800'
p155
S'sympathy_and_emotional_support'
p156
sS'451188826678243328'
p157
S'sympathy_and_emotional_support'
p158
sS'451189535909900288'
p159
S'caution_and_advice'
p160
sS'451187964216111104'
p161
S'sympathy_and_emotional_support'
p162
sS'451189045129801731'
p163
S'not_related_or_irrelevant'
p164
sS'451187845030756352'
p165
S'caution_and_advice'
p166
sS'451189580897587200'
p167
S'sympathy_and_emotional_support'
p168
sS'451189742554464256'
p169
S'displaced_people_and_evacuations'
p170
sS'451187704928034816'
p171
S'other_useful_information'
p172
sS'451188117504942080'
p173
S'sympathy_and_emotional_support'
p174
sS'451190552252276736'
p175
S'donation_needs_or_offers_or_volunteering_services'
p176
sS'451189597868158976'
p177
S'sympathy_and_emotional_support'
p178
sS'451187770837315584'
p179
S'other_useful_information'
p180
sS'451187757524987904'
p181
S'sympathy_and_emotional_support'
p182
sS'451188445474336769'
p183
S'sympathy_and_emotional_support'
p184
sS'451188469151571969'
p185
S'sympathy_and_emotional_support'
p186
sS'451187930296360960'
p187
S'infrastructure_and_utilities_damage'
p188
sS'451190452889219072'
p189
S'sympathy_and_emotional_support'
p190
sS'451188788056702976'
p191
S'caution_and_advice'
p192
sS'451189806089793536'
p193
S'injured_or_dead_people'
p194
sS'451187729842581504'
p195
S'not_related_or_irrelevant'
p196
sS'451188289156816896'
p197
S'sympathy_and_emotional_support'
p198
sS'451189851791310848'
p199
S'sympathy_and_emotional_support'
p200
sS'451188450134200320'
p201
S'other_useful_information'
p202
sS'451190048881270784'
p203
S'sympathy_and_emotional_support'
p204
sS'451188273356881920'
p205
S'caution_and_advice'
p206
sS'451188281490038785'
p207
S'sympathy_and_emotional_support'
p208
sS'451189283693789184'
p209
S'other_useful_information'
p210
sS'451189482990362624'
p211
S'other_useful_information'
p212
sS'451187640490942464'
p213
S'other_useful_information'
p214
sS'451190469008314370'
p215
S'displaced_people_and_evacuations'
p216
sS'451190251420389376'
p217
S'caution_and_advice'
p218
sS'451188121879588865'
p219
S'caution_and_advice'
p220
sS'451187866602053632'
p221
S'injured_or_dead_people'
p222
sS'451187674473574400'
p223
S'other_useful_information'
p224
sS'451190469696192512'
p225
S'not_related_or_irrelevant'
p226
sS'451188325462712320'
p227
S'caution_and_advice'
p228
sS'451190416248147968'
p229
S'sympathy_and_emotional_support'
p230
sS'451190364763074560'
p231
S'sympathy_and_emotional_support'
p232
sS'451190035727917057'
p233
S'sympathy_and_emotional_support'
p234
sS'451187624099577856'
p235
S'other_useful_information'
p236
sS'451187630277812224'
p237
S'other_useful_information'
p238
sS'451189231457533953'
p239
S'not_related_or_irrelevant'
p240
sS'451188003164418048'
p241
S'caution_and_advice'
p242
sS'451188394958524416'
p243
S'other_useful_information'
p244
sS'451189041300377600'
p245
S'not_related_or_irrelevant'
p246
sS'451189335304327168'
p247
S'not_related_or_irrelevant'
p248
sS'451190448283856897'
p249
S'caution_and_advice'
p250
sS'451189142928371712'
p251
S'caution_and_advice'
p252
sS'451187907412230146'
p253
S'other_useful_information'
p254
sS'451190298014539776'
p255
S'sympathy_and_emotional_support'
p256
sS'451188969573990400'
p257
S'sympathy_and_emotional_support'
p258
sS'451189274231468032'
p259
S'sympathy_and_emotional_support'
p260
sS'451188912996642816'
p261
S'caution_and_advice'
p262
sS'451188150220509184'
p263
S'other_useful_information'
p264
sS'451188414415925248'
p265
S'injured_or_dead_people'
p266
sS'451188592250200064'
p267
S'caution_and_advice'
p268
sS'451188361823547392'
p269
S'not_related_or_irrelevant'
p270
sS'451188615625072640'
p271
S'other_useful_information'
p272
sS'451188718011838464'
p273
S'sympathy_and_emotional_support'
p274
sS'451190069114982400'
p275
S'other_useful_information'
p276
sS'451187950869417984'
p277
S'injured_or_dead_people'
p278
sS'451189033247313920'
p279
S'sympathy_and_emotional_support'
p280
sS'451190482518167552'
p281
S'not_related_or_irrelevant'
p282
sS'451190392709726208'
p283
S'other_useful_information'
p284
sS'451189090818334720'
p285
S'sympathy_and_emotional_support'
p286
sS'451189878823211008'
p287
S'caution_and_advice'
p288
sS'451189233496375296'
p289
S'injured_or_dead_people'
p290
sS'451187949095632897'
p291
S'caution_and_advice'
p292
sS'451188165038989313'
p293
S'sympathy_and_emotional_support'
p294
sS'451189043582078977'
p295
S'other_useful_information'
p296
sS'451190489316749312'
p297
S'sympathy_and_emotional_support'
p298
sS'451187729460895744'
p299
S'other_useful_information'
p300
sS'451188259154976768'
p301
S'not_related_or_irrelevant'
p302
sS'451190286174396416'
p303
S'not_related_or_irrelevant'
p304
sS'451188955942109185'
p305
S'sympathy_and_emotional_support'
p306
sS'451189717900333056'
p307
S'other_useful_information'
p308
sS'451188124480049152'
p309
S'sympathy_and_emotional_support'
p310
sS'451187926664495104'
p311
S'sympathy_and_emotional_support'
p312
sS'451187882862968832'
p313
S'other_useful_information'
p314
sS'451188251861073922'
p315
S'caution_and_advice'
p316
sS'451188923038175232'
p317
S'caution_and_advice'
p318
sS'451187719767474176'
p319
S'sympathy_and_emotional_support'
p320
sS'451189993382625280'
p321
S'sympathy_and_emotional_support'
p322
sS'451188800577081344'
p323
S'caution_and_advice'
p324
sS'451190160441344002'
p325
S'sympathy_and_emotional_support'
p326
sS'451189958557302784'
p327
S'other_useful_information'
p328
sS'451189853946793984'
p329
S'sympathy_and_emotional_support'
p330
sS'451190374233800704'
p331
S'infrastructure_and_utilities_damage'
p332
sS'451187826626150400'
p333
S'not_related_or_irrelevant'
p334
sS'451190382773039104'
p335
S'sympathy_and_emotional_support'
p336
sS'451188778049077249'
p337
S'caution_and_advice'
p338
sS'451188148236611584'
p339
S'other_useful_information'
p340
sS'451190291345985536'
p341
S'injured_or_dead_people'
p342
sS'451188390730280960'
p343
S'other_useful_information'
p344
sS'451190404595990528'
p345
S'other_useful_information'
p346
sS'451188867035439104'
p347
S'caution_and_advice'
p348
sS'451188038618451968'
p349
S'other_useful_information'
p350
sS'451189676758409216'
p351
S'sympathy_and_emotional_support'
p352
sS'451187966917214208'
p353
S'displaced_people_and_evacuations'
p354
sS'451187923287695360'
p355
S'caution_and_advice'
p356
sS'451190419334766592'
p357
S'displaced_people_and_evacuations'
p358
sS'451188713179975680'
p359
S'other_useful_information'
p360
sS'451190122885558273'
p361
S'caution_and_advice'
p362
sS'451189738171793409'
p363
S'sympathy_and_emotional_support'
p364
sS'451188741856841728'
p365
S'other_useful_information'
p366
sS'451187739547795456'
p367
S'other_useful_information'
p368
sS'451190102619062272'
p369
S'other_useful_information'
p370
sS'451189811811205120'
p371
S'sympathy_and_emotional_support'
p372
sS'451188515960025088'
p373
S'sympathy_and_emotional_support'
p374
sS'451188326813679616'
p375
S'other_useful_information'
p376
sS'451189209173610497'
p377
S'injured_or_dead_people'
p378
sS'451190010696314880'
p379
S'sympathy_and_emotional_support'
p380
sS'451188971813339136'
p381
S'sympathy_and_emotional_support'
p382
sS'451190363030839297'
p383
S'other_useful_information'
p384
sS'451188728267280384'
p385
S'caution_and_advice'
p386
sS'451189630423949315'
p387
S'other_useful_information'
p388
sS'451187754693443584'
p389
S'not_related_or_irrelevant'
p390
sS'451188850350497792'
p391
S'sympathy_and_emotional_support'
p392
sS'451190276887834624'
p393
S'not_related_or_irrelevant'
p394
sS'451188934047838208'
p395
S'other_useful_information'
p396
sS'451189118513741824'
p397
S'sympathy_and_emotional_support'
p398
sS'451188367447699456'
p399
S'other_useful_information'
p400
sS'451189342611193856'
p401
S'not_related_or_irrelevant'
p402
sS'451189019301666816'
p403
S'other_useful_information'
p404
sS'451188326049906688'
p405
S'sympathy_and_emotional_support'
p406
sS'451188031966703616'
p407
S'injured_or_dead_people'
p408
sS'451187886566547456'
p409
S'not_related_or_irrelevant'
p410
sS'451189956623761408'
p411
S'caution_and_advice'
p412
sS'451187800902094848'
p413
S'not_related_or_irrelevant'
p414
sS'451190372610609152'
p415
S'other_useful_information'
p416
sS'451188709996523520'
p417
S'caution_and_advice'
p418
sS'451190213566795776'
p419
S'other_useful_information'
p420
sS'451190196181008384'
p421
S'not_related_or_irrelevant'
p422
sS'451189223786553344'
p423
S'other_useful_information'
p424
sS'451189951317544961'
p425
S'displaced_people_and_evacuations'
p426
sS'451187734720172032'
p427
S'other_useful_information'
p428
sS'451187725409218560'
p429
S'other_useful_information'
p430
sS'451188167384002560'
p431
S'caution_and_advice'
p432
sS'451189693489491968'
p433
S'not_related_or_irrelevant'
p434
sS'451188059531259904'
p435
S'other_useful_information'
p436
sS'451188621786509313'
p437
S'sympathy_and_emotional_support'
p438
sS'451187734452129792'
p439
S'other_useful_information'
p440
sS'451187995061006336'
p441
S'caution_and_advice'
p442
sS'451189854647230464'
p443
S'sympathy_and_emotional_support'
p444
sS'451188024655613952'
p445
S'injured_or_dead_people'
p446
sS'451188037041414144'
p447
S'other_useful_information'
p448
sS'451187734455926784'
p449
S'sympathy_and_emotional_support'
p450
sS'451187968263192576'
p451
S'not_related_or_irrelevant'
p452
sS'451188096756121600'
p453
S'caution_and_advice'
p454
sS'451187896276365312'
p455
S'not_related_or_irrelevant'
p456
sS'451190538184564736'
p457
S'sympathy_and_emotional_support'
p458
sS'451188033342025729'
p459
S'sympathy_and_emotional_support'
p460
sS'451194983698014208'
p461
S'infrastructure_and_utilities_damage'
p462
sS'451188574948696064'
p463
S'other_useful_information'
p464
sS'451188334648242177'
p465
S'caution_and_advice'
p466
sS'451190532220272640'
p467
S'not_related_or_irrelevant'
p468
sS'451190090341957632'
p469
S'displaced_people_and_evacuations'
p470
sS'451190407859159040'
p471
S'other_useful_information'
p472
sS'451189485137821696'
p473
S'sympathy_and_emotional_support'
p474
sS'451188309872902145'
p475
S'other_useful_information'
p476
sS'451190553884262400'
p477
S'other_useful_information'
p478
sS'451187945832054784'
p479
S'other_useful_information'
p480
sS'451188274686865408'
p481
S'sympathy_and_emotional_support'
p482
sS'451188246106501121'
p483
S'other_useful_information'
p484
sS'451189555564388352'
p485
S'sympathy_and_emotional_support'
p486
sS'451188525728145408'
p487
S'caution_and_advice'
p488
sS'451189814025404416'
p489
S'sympathy_and_emotional_support'
p490
sS'451189367747252224'
p491
S'not_related_or_irrelevant'
p492
sS'451188699427250176'
p493
S'caution_and_advice'
p494
sS'451190302288535554'
p495
S'caution_and_advice'
p496
sS'451188421550428160'
p497
S'donation_needs_or_offers_or_volunteering_services'
p498
sS'451189284804915200'
p499
S'not_related_or_irrelevant'
p500
sS'451187686075039744'
p501
S'sympathy_and_emotional_support'
p502
sS'451188857254322176'
p503
S'displaced_people_and_evacuations'
p504
sS'451188034088615936'
p505
S'other_useful_information'
p506
sS'451189842437632001'
p507
S'sympathy_and_emotional_support'
p508
sS'451189058841358336'
p509
S'not_related_or_irrelevant'
p510
sS'451188751222308864'
p511
S'other_useful_information'
p512
sS'451188136861638657'
p513
S'other_useful_information'
p514
sS'451190120142876672'
p515
S'not_related_or_irrelevant'
p516
sS'451187638515421184'
p517
S'not_related_or_irrelevant'
p518
sS'451189609389514752'
p519
S'displaced_people_and_evacuations'
p520
sS'451189444545347584'
p521
S'sympathy_and_emotional_support'
p522
sS'451189418930360320'
p523
S'not_related_or_irrelevant'
p524
sS'451187805885308928'
p525
S'not_related_or_irrelevant'
p526
sS'451187949976428545'
p527
S'injured_or_dead_people'
p528
sS'451189805863288833'
p529
S'other_useful_information'
p530
sS'451188259008577536'
p531
S'other_useful_information'
p532
sS'451189050087464960'
p533
S'injured_or_dead_people'
p534
sS'451190542236655616'
p535
S'other_useful_information'
p536
sS'451189870988247041'
p537
S'other_useful_information'
p538
sS'451189354640076801'
p539
S'caution_and_advice'
p540
sS'451187985665753088'
p541
S'caution_and_advice'
p542
sS'451188256903028736'
p543
S'sympathy_and_emotional_support'
p544
sS'451189532872826880'
p545
S'not_related_or_irrelevant'
p546
sS'451188780935172096'
p547
S'sympathy_and_emotional_support'
p548
sS'451189006936453121'
p549
S'other_useful_information'
p550
sS'451187810179899392'
p551
S'not_related_or_irrelevant'
p552
sS'451187936726228993'
p553
S'caution_and_advice'
p554
sS'451190085963493377'
p555
S'not_related_or_irrelevant'
p556
sS'451187731809697792'
p557
S'other_useful_information'
p558
sS'451188178545016832'
p559
S'sympathy_and_emotional_support'
p560
sS'451189798766907392'
p561
S'not_related_or_irrelevant'
p562
sS'451189651651719168'
p563
S'sympathy_and_emotional_support'
p564
sS'451188615562149888'
p565
S'not_related_or_irrelevant'
p566
sS'451189098708205568'
p567
S'sympathy_and_emotional_support'
p568
sS'451189185131446272'
p569
S'other_useful_information'
p570
sS'451189532625346560'
p571
S'not_related_or_irrelevant'
p572
sS'451189139179048961'
p573
S'not_related_or_irrelevant'
p574
sS'451188598541262848'
p575
S'not_related_or_irrelevant'
p576
sS'451187909203619841'
p577
S'caution_and_advice'
p578
sS'451189514002636800'
p579
S'injured_or_dead_people'
p580
sS'451187717485768705'
p581
S'other_useful_information'
p582
sS'451188715247775744'
p583
S'not_related_or_irrelevant'
p584
sS'451190540613455872'
p585
S'sympathy_and_emotional_support'
p586
sS'451188400545345536'
p587
S'caution_and_advice'
p588
sS'451187761202999296'
p589
S'other_useful_information'
p590
sS'451189482746699777'
p591
S'other_useful_information'
p592
sS'451190373231374336'
p593
S'not_related_or_irrelevant'
p594
sS'451189086653779969'
p595
S'other_useful_information'
p596
sS'451190299159560192'
p597
S'other_useful_information'
p598
sS'451190112920276992'
p599
S'other_useful_information'
p600
sS'451190403421577217'
p601
S'not_related_or_irrelevant'
p602
sS'451188628920602624'
p603
S'other_useful_information'
p604
sS'451187827301421056'
p605
S'not_related_or_irrelevant'
p606
sS'451187958641483776'
p607
S'caution_and_advice'
p608
sS'451188164074291200'
p609
S'not_related_or_irrelevant'
p610
sS'451189499528093697'
p611
S'caution_and_advice'
p612
sS'451188349563203585'
p613
S'other_useful_information'
p614
sS'451187699374780416'
p615
S'sympathy_and_emotional_support'
p616
sS'451188850757734400'
p617
S'caution_and_advice'
p618
sS'451187861685948416'
p619
S'sympathy_and_emotional_support'
p620
sS'451189571032580096'
p621
S'not_related_or_irrelevant'
p622
sS'451189063798624256'
p623
S'sympathy_and_emotional_support'
p624
sS'451189145596354560'
p625
S'sympathy_and_emotional_support'
p626
sS'451188715201634304'
p627
S'other_useful_information'
p628
sS'451190470538829827'
p629
S'caution_and_advice'
p630
sS'451187669302009857'
p631
S'other_useful_information'
p632
sS'451187678386847745'
p633
S'caution_and_advice'
p634
sS'451188754875547648'
p635
S'sympathy_and_emotional_support'
p636
sS'451190330079969281'
p637
S'other_useful_information'
p638
sS'451189676271869953'
p639
S'not_related_or_irrelevant'
p640
sS'451188618673917955'
p641
S'sympathy_and_emotional_support'
p642
sS'451188342315843585'
p643
S'other_useful_information'
p644
sS'451188510234402817'
p645
S'caution_and_advice'
p646
sS'451190418844041216'
p647
S'caution_and_advice'
p648
sS'451189119138271233'
p649
S'caution_and_advice'
p650
sS'451189173123567617'
p651
S'not_related_or_irrelevant'
p652
sS'451189432788336640'
p653
S'not_related_or_irrelevant'
p654
sS'451189890550878210'
p655
S'not_related_or_irrelevant'
p656
sS'451188847695912960'
p657
S'not_related_or_irrelevant'
p658
sS'451187912177385473'
p659
S'not_related_or_irrelevant'
p660
sS'451188899180994560'
p661
S'other_useful_information'
p662
sS'451187935786704896'
p663
S'caution_and_advice'
p664
sS'451188405058015232'
p665
S'sympathy_and_emotional_support'
p666
sS'451188689335361536'
p667
S'sympathy_and_emotional_support'
p668
sS'451187705524006912'
p669
S'displaced_people_and_evacuations'
p670
sS'451190519000231936'
p671
S'missing_trapped_or_found_people'
p672
sS'451190055772905472'
p673
S'not_related_or_irrelevant'
p674
sS'451188015419777024'
p675
S'other_useful_information'
p676
sS'451188705441509377'
p677
S'other_useful_information'
p678
sS'451187734736928768'
p679
S'sympathy_and_emotional_support'
p680
sS'451190437517070336'
p681
S'displaced_people_and_evacuations'
p682
sS'451188489317797889'
p683
S'other_useful_information'
p684
sS'451189012871401472'
p685
S'other_useful_information'
p686
sS'451190315588665344'
p687
S'not_related_or_irrelevant'
p688
sS'451188697099403265'
p689
S'not_related_or_irrelevant'
p690
sS'451187651509755904'
p691
S'injured_or_dead_people'
p692
sS'451189365901778944'
p693
S'other_useful_information'
p694
sS'451188942147444736'
p695
S'other_useful_information'
p696
sS'451190562343759872'
p697
S'caution_and_advice'
p698
sS'451189954321076224'
p699
S'sympathy_and_emotional_support'
p700
sS'451190428126425088'
p701
S'not_related_or_irrelevant'
p702
sS'451190140321681409'
p703
S'sympathy_and_emotional_support'
p704
sS'451187646560104449'
p705
S'other_useful_information'
p706
sS'451189362340798464'
p707
S'other_useful_information'
p708
sS'451189731150528512'
p709
S'other_useful_information'
p710
sS'451190459826987008'
p711
S'sympathy_and_emotional_support'
p712
sS'451188292478722048'
p713
S'caution_and_advice'
p714
sS'451187810079625216'
p715
S'not_related_or_irrelevant'
p716
sS'451187762603900928'
p717
S'sympathy_and_emotional_support'
p718
sS'451189954782437376'
p719
S'sympathy_and_emotional_support'
p720
sS'451189622727405569'
p721
S'other_useful_information'
p722
sS'451188262619860992'
p723
S'injured_or_dead_people'
p724
sS'451189466674118656'
p725
S'other_useful_information'
p726
sS'451188756893413376'
p727
S'sympathy_and_emotional_support'
p728
sS'451189996553531392'
p729
S'not_related_or_irrelevant'
p730
sS'451189098510700544'
p731
S'other_useful_information'
p732
sS'451190095853260800'
p733
S'other_useful_information'
p734
sS'451188959012335617'
p735
S'caution_and_advice'
p736
sS'451189943382323200'
p737
S'other_useful_information'
p738
sS'451188419868520449'
p739
S'sympathy_and_emotional_support'
p740
sS'451188813935968256'
p741
S'not_related_or_irrelevant'
p742
sS'451189325024481280'
p743
S'sympathy_and_emotional_support'
p744
sS'451189143637610496'
p745
S'sympathy_and_emotional_support'
p746
sS'451187637463031808'
p747
S'not_related_or_irrelevant'
p748
sS'451187821483524096'
p749
S'sympathy_and_emotional_support'
p750
sS'451189458520379392'
p751
S'other_useful_information'
p752
sS'451188250091065344'
p753
S'not_related_or_irrelevant'
p754
sS'451187806342086656'
p755
S'caution_and_advice'
p756
sS'451194683025149953'
p757
S'sympathy_and_emotional_support'
p758
sS'451188660491153408'
p759
S'not_related_or_irrelevant'
p760
sS'451188795212578816'
p761
S'sympathy_and_emotional_support'
p762
sS'451189442405875712'
p763
S'other_useful_information'
p764
sS'451188277211856897'
p765
S'sympathy_and_emotional_support'
p766
sS'451190506362798080'
p767
S'not_related_or_irrelevant'
p768
sS'451189116411994112'
p769
S'other_useful_information'
p770
sS'451187979860836352'
p771
S'sympathy_and_emotional_support'
p772
sS'451188249466503169'
p773
S'not_related_or_irrelevant'
p774
sS'451188228381356032'
p775
S'sympathy_and_emotional_support'
p776
sS'451190510208946176'
p777
S'other_useful_information'
p778
sS'451189715383746560'
p779
S'other_useful_information'
p780
sS'451190374175080448'
p781
S'not_related_or_irrelevant'
p782
sS'451190035673808896'
p783
S'sympathy_and_emotional_support'
p784
sS'451189198117027840'
p785
S'other_useful_information'
p786
sS'451190026802843648'
p787
S'not_related_or_irrelevant'
p788
sS'451190222781677569'
p789
S'other_useful_information'
p790
sS'451190402112974848'
p791
S'sympathy_and_emotional_support'
p792
sS'451188940599738368'
p793
S'sympathy_and_emotional_support'
p794
sS'451190313848020993'
p795
S'not_related_or_irrelevant'
p796
sS'451187909358792704'
p797
S'injured_or_dead_people'
p798
sS'451189086997716992'
p799
S'other_useful_information'
p800
sS'451189374571384833'
p801
S'other_useful_information'
p802
sS'451190518253629440'
p803
S'not_related_or_irrelevant'
p804
sS'451189055649112064'
p805
S'other_useful_information'
p806
sS'451190119840882688'
p807
S'sympathy_and_emotional_support'
p808
sS'451189549448720384'
p809
S'not_related_or_irrelevant'
p810
sS'451188962841739264'
p811
S'sympathy_and_emotional_support'
p812
sS'451189043540135937'
p813
S'other_useful_information'
p814
sS'451190145329668096'
p815
S'other_useful_information'
p816
sS'451189620953210880'
p817
S'caution_and_advice'
p818
sS'451188670218113025'
p819
S'not_related_or_irrelevant'
p820
sS'451189687223607296'
p821
S'sympathy_and_emotional_support'
p822
sS'451188448448495616'
p823
S'other_useful_information'
p824
sS'451188886509604865'
p825
S'sympathy_and_emotional_support'
p826
sS'451190281665130496'
p827
S'sympathy_and_emotional_support'
p828
sS'451189080831713280'
p829
S'not_related_or_irrelevant'
p830
sS'451190136265388032'
p831
S'not_related_or_irrelevant'
p832
sS'451188667558543360'
p833
S'other_useful_information'
p834
sS'451188688374870017'
p835
S'caution_and_advice'
p836
sS'451187685307068416'
p837
S'sympathy_and_emotional_support'
p838
sS'451188214028443648'
p839
S'caution_and_advice'
p840
sS'451188432669114370'
p841
S'other_useful_information'
p842
sS'451188851264847874'
p843
S'sympathy_and_emotional_support'
p844
sS'451190292721700864'
p845
S'displaced_people_and_evacuations'
p846
sS'451188164535652352'
p847
S'not_related_or_irrelevant'
p848
sS'451188061804572672'
p849
S'not_related_or_irrelevant'
p850
sS'451188325429170176'
p851
S'sympathy_and_emotional_support'
p852
sS'451190503560978433'
p853
S'other_useful_information'
p854
sS'451190197607071744'
p855
S'infrastructure_and_utilities_damage'
p856
sS'451187742911651840'
p857
S'injured_or_dead_people'
p858
sS'451188582703968257'
p859
S'sympathy_and_emotional_support'
p860
sS'451190371721433089'
p861
S'sympathy_and_emotional_support'
p862
sS'451189531232833539'
p863
S'sympathy_and_emotional_support'
p864
sS'451190166829682688'
p865
S'other_useful_information'
p866
sS'451188820411564033'
p867
S'not_related_or_irrelevant'
p868
sS'451188753403367424'
p869
S'other_useful_information'
p870
sS'451189516041469953'
p871
S'other_useful_information'
p872
sS'451190492932624386'
p873
S'not_related_or_irrelevant'
p874
sS'451190489283186689'
p875
S'sympathy_and_emotional_support'
p876
sS'451190453074141184'
p877
S'other_useful_information'
p878
sS'451190335050641409'
p879
S'sympathy_and_emotional_support'
p880
sS'451189170741190656'
p881
S'not_related_or_irrelevant'
p882
sS'451188406622498816'
p883
S'displaced_people_and_evacuations'
p884
sS'451188451107676160'
p885
S'sympathy_and_emotional_support'
p886
sS'451187776763858944'
p887
S'caution_and_advice'
p888
sS'451189346562211841'
p889
S'other_useful_information'
p890
sS'451190204645535744'
p891
S'sympathy_and_emotional_support'
p892
sS'451189821814226944'
p893
S'other_useful_information'
p894
sS'451190373449494528'
p895
S'not_related_or_irrelevant'
p896
sS'451189451020988416'
p897
S'other_useful_information'
p898
sS'451190057026994176'
p899
S'caution_and_advice'
p900
sS'451190482274500608'
p901
S'caution_and_advice'
p902
sS'451190033714659328'
p903
S'not_related_or_irrelevant'
p904
sS'451189903397617664'
p905
S'caution_and_advice'
p906
sS'451188499925204993'
p907
S'other_useful_information'
p908
sS'451188276805005313'
p909
S'sympathy_and_emotional_support'
p910
sS'451188401535205376'
p911
S'other_useful_information'
p912
sS'451188574759555073'
p913
S'other_useful_information'
p914
sS'451190557176791040'
p915
S'sympathy_and_emotional_support'
p916
sS'451190562561863680'
p917
S'other_useful_information'
p918
sS'451190568136486912'
p919
S'sympathy_and_emotional_support'
p920
sS'451189018357538816'
p921
S'sympathy_and_emotional_support'
p922
sS'451190459549765633'
p923
S'other_useful_information'
p924
sS'451190343078543360'
p925
S'other_useful_information'
p926
sS'451188518732431360'
p927
S'sympathy_and_emotional_support'
p928
sS'451188974988836864'
p929
S'other_useful_information'
p930
sS'451189727224287233'
p931
S'not_related_or_irrelevant'
p932
sS'451189638665748480'
p933
S'other_useful_information'
p934
sS'451188382694404096'
p935
S'other_useful_information'
p936
sS'451188246249472000'
p937
S'sympathy_and_emotional_support'
p938
sS'451189435711778816'
p939
S'caution_and_advice'
p940
sS'451189402744930305'
p941
S'other_useful_information'
p942
sS'451187697910939648'
p943
S'injured_or_dead_people'
p944
sS'451188318110117888'
p945
S'caution_and_advice'
p946
sS'451188158424948736'
p947
S'sympathy_and_emotional_support'
p948
sS'451190446505877504'
p949
S'caution_and_advice'
p950
sS'451190325466652672'
p951
S'sympathy_and_emotional_support'
p952
sS'451189649973583872'
p953
S'other_useful_information'
p954
sS'451190192372592640'
p955
S'not_related_or_irrelevant'
p956
sS'451190064148922369'
p957
S'sympathy_and_emotional_support'
p958
sS'451187785236742144'
p959
S'displaced_people_and_evacuations'
p960
sS'451188137860300802'
p961
S'other_useful_information'
p962
sS'451188084114092032'
p963
S'other_useful_information'
p964
sS'451190447172358144'
p965
S'other_useful_information'
p966
sS'451190057924165632'
p967
S'other_useful_information'
p968
sS'451187674385117185'
p969
S'other_useful_information'
p970
sS'451189580520112128'
p971
S'not_related_or_irrelevant'
p972
sS'451189125631062016'
p973
S'other_useful_information'
p974
sS'451188440713814017'
p975
S'sympathy_and_emotional_support'
p976
sS'451189912344088576'
p977
S'sympathy_and_emotional_support'
p978
sS'451187945710845952'
p979
S'caution_and_advice'
p980
sS'451188147079380992'
p981
S'other_useful_information'
p982
sS'451189583733346304'
p983
S'sympathy_and_emotional_support'
p984
sS'451187963758534656'
p985
S'sympathy_and_emotional_support'
p986
sS'451189105087352832'
p987
S'caution_and_advice'
p988
sS'451189799719014400'
p989
S'injured_or_dead_people'
p990
sS'451188687284346880'
p991
S'sympathy_and_emotional_support'
p992
sS'451190116128526336'
p993
S'caution_and_advice'
p994
sS'451188774886580226'
p995
S'caution_and_advice'
p996
sS'451187816299786241'
p997
S'caution_and_advice'
p998
sS'451189754604691457'
p999
S'sympathy_and_emotional_support'
p1000
sS'451188692804440064'
p1001
S'sympathy_and_emotional_support'
p1002
sS'451188198291406849'
p1003
S'injured_or_dead_people'
p1004
sS'451189164412006401'
p1005
S'not_related_or_irrelevant'
p1006
sS'451189294137622528'
p1007
S'sympathy_and_emotional_support'
p1008
sS'451188637880053760'
p1009
S'other_useful_information'
p1010
sS'451188958719139840'
p1011
S'not_related_or_irrelevant'
p1012
sS'451188922622550016'
p1013
S'not_related_or_irrelevant'
p1014
sS'451187927142260737'
p1015
S'other_useful_information'
p1016
sS'451190182062985216'
p1017
S'not_related_or_irrelevant'
p1018
sS'451188264578211840'
p1019
S'other_useful_information'
p1020
sS'451188724769239040'
p1021
S'other_useful_information'
p1022
sS'451188839668006913'
p1023
S'not_related_or_irrelevant'
p1024
sS'451188565771554816'
p1025
S'displaced_people_and_evacuations'
p1026
sS'451190283795841025'
p1027
S'sympathy_and_emotional_support'
p1028
sS'451188523677528064'
p1029
S'sympathy_and_emotional_support'
p1030
sS'451188204549332992'
p1031
S'sympathy_and_emotional_support'
p1032
sS'451188232550486016'
p1033
S'displaced_people_and_evacuations'
p1034
sS'451187884692086784'
p1035
S'sympathy_and_emotional_support'
p1036
sS'451190251080671233'
p1037
S'sympathy_and_emotional_support'
p1038
sS'451189063588904961'
p1039
S'other_useful_information'
p1040
sS'451189918476144640'
p1041
S'not_related_or_irrelevant'
p1042
sS'451188243888082944'
p1043
S'not_related_or_irrelevant'
p1044
sS'451188289844674560'
p1045
S'other_useful_information'
p1046
sS'451188325357858816'
p1047
S'other_useful_information'
p1048
sS'451189116219031552'
p1049
S'not_related_or_irrelevant'
p1050
sS'451188690292076544'
p1051
S'injured_or_dead_people'
p1052
sS'451188391527211008'
p1053
S'caution_and_advice'
p1054
sS'451189649533583361'
p1055
S'other_useful_information'
p1056
sS'451189218434220032'
p1057
S'not_related_or_irrelevant'
p1058
sS'451188737599234048'
p1059
S'caution_and_advice'
p1060
sS'451189299955105792'
p1061
S'other_useful_information'
p1062
sS'451189652704092160'
p1063
S'other_useful_information'
p1064
sS'451188462368980992'
p1065
S'sympathy_and_emotional_support'
p1066
sS'451190154976178176'
p1067
S'caution_and_advice'
p1068
sS'451189964395401216'
p1069
S'sympathy_and_emotional_support'
p1070
sS'451188055186374656'
p1071
S'sympathy_and_emotional_support'
p1072
sS'451189430565359617'
p1073
S'not_related_or_irrelevant'
p1074
sS'451188955120037888'
p1075
S'not_related_or_irrelevant'
p1076
sS'451187951293456384'
p1077
S'other_useful_information'
p1078
sS'451190106976555008'
p1079
S'other_useful_information'
p1080
sS'451189901883871232'
p1081
S'sympathy_and_emotional_support'
p1082
sS'451189372940222464'
p1083
S'sympathy_and_emotional_support'
p1084
sS'451188428399337472'
p1085
S'sympathy_and_emotional_support'
p1086
sS'451188301869764608'
p1087
S'injured_or_dead_people'
p1088
sS'451189550262394881'
p1089
S'sympathy_and_emotional_support'
p1090
sS'451188513392709632'
p1091
S'not_related_or_irrelevant'
p1092
sS'451190486016225280'
p1093
S'injured_or_dead_people'
p1094
sS'451189825627254784'
p1095
S'sympathy_and_emotional_support'
p1096
sS'451189366258679808'
p1097
S'not_related_or_irrelevant'
p1098
sS'451190168910057474'
p1099
S'other_useful_information'
p1100
sS'451188571735465984'
p1101
S'not_related_or_irrelevant'
p1102
sS'451188640001953792'
p1103
S'caution_and_advice'
p1104
sS'451188026283028480'
p1105
S'other_useful_information'
p1106
sS'451189087589138432'
p1107
S'other_useful_information'
p1108
sS'451189364052074497'
p1109
S'other_useful_information'
p1110
sS'451189679430578176'
p1111
S'not_related_or_irrelevant'
p1112
sS'451189793431760896'
p1113
S'other_useful_information'
p1114
sS'451189807293558784'
p1115
S'other_useful_information'
p1116
sS'451188159242465280'
p1117
S'sympathy_and_emotional_support'
p1118
sS'451187712008003584'
p1119
S'other_useful_information'
p1120
sS'451189148666195968'
p1121
S'not_related_or_irrelevant'
p1122
sS'451188553465466881'
p1123
S'other_useful_information'
p1124
sS'451188145661681666'
p1125
S'other_useful_information'
p1126
sS'451189457530544128'
p1127
S'other_useful_information'
p1128
sS'451190347838681088'
p1129
S'other_useful_information'
p1130
sS'451190281090895872'
p1131
S'sympathy_and_emotional_support'
p1132
sS'451188475815923713'
p1133
S'sympathy_and_emotional_support'
p1134
sS'451188296048078848'
p1135
S'missing_trapped_or_found_people'
p1136
sS'451188874358702080'
p1137
S'other_useful_information'
p1138
sS'451189652456632320'
p1139
S'sympathy_and_emotional_support'
p1140
sS'451187716151980032'
p1141
S'caution_and_advice'
p1142
sS'451187687660068864'
p1143
S'other_useful_information'
p1144
sS'451188945154367488'
p1145
S'other_useful_information'
p1146
sS'451188797938487296'
p1147
S'other_useful_information'
p1148
sS'451187922583425024'
p1149
S'other_useful_information'
p1150
sS'451187625114611712'
p1151
S'injured_or_dead_people'
p1152
sS'451189826919079936'
p1153
S'sympathy_and_emotional_support'
p1154
sS'451189396432109568'
p1155
S'sympathy_and_emotional_support'
p1156
sS'451188742720458752'
p1157
S'caution_and_advice'
p1158
sS'451188145157980161'
p1159
S'caution_and_advice'
p1160
sS'451187621901791232'
p1161
S'infrastructure_and_utilities_damage'
p1162
sS'451188641415827456'
p1163
S'other_useful_information'
p1164
sS'451189686476611585'
p1165
S'other_useful_information'
p1166
sS'451189572567715840'
p1167
S'not_related_or_irrelevant'
p1168
sS'451188089080135680'
p1169
S'other_useful_information'
p1170
sS'451187882288349184'
p1171
S'sympathy_and_emotional_support'
p1172
sS'451190128791134208'
p1173
S'other_useful_information'
p1174
sS'451189231478931456'
p1175
S'other_useful_information'
p1176
sS'451190484539428864'
p1177
S'sympathy_and_emotional_support'
p1178
sS'451190362048962560'
p1179
S'caution_and_advice'
p1180
sS'451190334282670080'
p1181
S'caution_and_advice'
p1182
sS'451188473337487360'
p1183
S'not_related_or_irrelevant'
p1184
sS'451187643259580416'
p1185
S'caution_and_advice'
p1186
sS'451188093539078145'
p1187
S'not_related_or_irrelevant'
p1188
sS'451188929581309952'
p1189
S'not_related_or_irrelevant'
p1190
sS'451190478851932160'
p1191
S'other_useful_information'
p1192
sS'451189058069610497'
p1193
S'other_useful_information'
p1194
sS'451188798274424832'
p1195
S'not_related_or_irrelevant'
p1196
sS'451189304253902849'
p1197
S'other_useful_information'
p1198
sS'451190249016680448'
p1199
S'sympathy_and_emotional_support'
p1200
sS'451188280252321792'
p1201
S'not_related_or_irrelevant'
p1202
sS'451189108296007680'
p1203
S'other_useful_information'
p1204
sS'451188030875770880'
p1205
S'sympathy_and_emotional_support'
p1206
sS'451187762436116481'
p1207
S'sympathy_and_emotional_support'
p1208
sS'451189264349671425'
p1209
S'caution_and_advice'
p1210
sS'451187647499616256'
p1211
S'other_useful_information'
p1212
sS'451190408195100672'
p1213
S'other_useful_information'
p1214
sS'451189475352145920'
p1215
S'injured_or_dead_people'
p1216
sS'451189282850766849'
p1217
S'sympathy_and_emotional_support'
p1218
sS'451190372111491072'
p1219
S'sympathy_and_emotional_support'
p1220
sS'451190014882234368'
p1221
S'other_useful_information'
p1222
sS'451190033522130944'
p1223
S'not_related_or_irrelevant'
p1224
sS'451190457079324673'
p1225
S'not_related_or_irrelevant'
p1226
sS'451189580075909120'
p1227
S'displaced_people_and_evacuations'
p1228
sS'451190219073945600'
p1229
S'caution_and_advice'
p1230
sS'451189948108906497'
p1231
S'caution_and_advice'
p1232
sS'451188461836308480'
p1233
S'not_related_or_irrelevant'
p1234
sS'451189483770089472'
p1235
S'not_related_or_irrelevant'
p1236
sS'451188627972698112'
p1237
S'other_useful_information'
p1238
sS'451189855012524032'
p1239
S'not_related_or_irrelevant'
p1240
sS'451188033766043648'
p1241
S'sympathy_and_emotional_support'
p1242
sS'451188227035381760'
p1243
S'sympathy_and_emotional_support'
p1244
sS'451187902114844672'
p1245
S'other_useful_information'
p1246
sS'451190331292135424'
p1247
S'other_useful_information'
p1248
sS'451189867536732161'
p1249
S'other_useful_information'
p1250
sS'451189795771781120'
p1251
S'sympathy_and_emotional_support'
p1252
sS'451188822395453440'
p1253
S'not_related_or_irrelevant'
p1254
sS'451189740218249216'
p1255
S'caution_and_advice'
p1256
sS'451189283815043073'
p1257
S'not_related_or_irrelevant'
p1258
sS'451190014127263744'
p1259
S'caution_and_advice'
p1260
sS'451189157516177408'
p1261
S'other_useful_information'
p1262
sS'451190113872007169'
p1263
S'other_useful_information'
p1264
sS'451188956072136704'
p1265
S'other_useful_information'
p1266
sS'451189536115421184'
p1267
S'not_related_or_irrelevant'
p1268
sS'451188325353676800'
p1269
S'other_useful_information'
p1270
sS'451190484648873984'
p1271
S'sympathy_and_emotional_support'
p1272
sS'451188060193951744'
p1273
S'sympathy_and_emotional_support'
p1274
sS'451190558468231168'
p1275
S'donation_needs_or_offers_or_volunteering_services'
p1276
sS'451189299204337665'
p1277
S'other_useful_information'
p1278
sS'451189089061326848'
p1279
S'caution_and_advice'
p1280
sS'451189403688652800'
p1281
S'other_useful_information'
p1282
sS'451190384534618112'
p1283
S'other_useful_information'
p1284
sS'451188073209290752'
p1285
S'sympathy_and_emotional_support'
p1286
sS'451188669089849344'
p1287
S'caution_and_advice'
p1288
sS'451190400330792960'
p1289
S'other_useful_information'
p1290
sS'451189149559980033'
p1291
S'sympathy_and_emotional_support'
p1292
sS'451187935082082305'
p1293
S'other_useful_information'
p1294
sS'451187707856027648'
p1295
S'caution_and_advice'
p1296
sS'451187903423868928'
p1297
S'not_related_or_irrelevant'
p1298
sS'451188878905327617'
p1299
S'not_related_or_irrelevant'
p1300
sS'451189409312817153'
p1301
S'caution_and_advice'
p1302
sS'451190472292450304'
p1303
S'not_related_or_irrelevant'
p1304
sS'451187944649281538'
p1305
S'sympathy_and_emotional_support'
p1306
sS'451188271305875456'
p1307
S'other_useful_information'
p1308
sS'451188266037825536'
p1309
S'other_useful_information'
p1310
sS'451187903951933440'
p1311
S'not_related_or_irrelevant'
p1312
sS'451188581231362048'
p1313
S'not_related_or_irrelevant'
p1314
sS'451189457497387008'
p1315
S'other_useful_information'
p1316
sS'451188711955648512'
p1317
S'other_useful_information'
p1318
sS'451188376754876416'
p1319
S'sympathy_and_emotional_support'
p1320
sS'451188675779383296'
p1321
S'other_useful_information'
p1322
sS'451189027228491777'
p1323
S'sympathy_and_emotional_support'
p1324
sS'451189735671615488'
p1325
S'other_useful_information'
p1326
sS'451188933934608384'
p1327
S'not_related_or_irrelevant'
p1328
sS'451188406060863488'
p1329
S'sympathy_and_emotional_support'
p1330
sS'451188830612492288'
p1331
S'not_related_or_irrelevant'
p1332
sS'451187630542032897'
p1333
S'caution_and_advice'
p1334
sS'451188024978993153'
p1335
S'sympathy_and_emotional_support'
p1336
sS'451189728973312000'
p1337
S'injured_or_dead_people'
p1338
sS'451188152712310784'
p1339
S'other_useful_information'
p1340
sS'451189013584416769'
p1341
S'sympathy_and_emotional_support'
p1342
sS'451187896410570752'
p1343
S'not_related_or_irrelevant'
p1344
sS'451190346156765184'
p1345
S'other_useful_information'
p1346
sS'451188499040206848'
p1347
S'sympathy_and_emotional_support'
p1348
sS'451188575397482497'
p1349
S'displaced_people_and_evacuations'
p1350
sS'451188880633765888'
p1351
S'other_useful_information'
p1352
sS'451188889126858752'
p1353
S'not_related_or_irrelevant'
p1354
sS'451189133285670912'
p1355
S'sympathy_and_emotional_support'
p1356
sS'451189657502367744'
p1357
S'other_useful_information'
p1358
sS'451188384514719744'
p1359
S'not_related_or_irrelevant'
p1360
sS'451188940544831488'
p1361
S'sympathy_and_emotional_support'
p1362
sS'451188527645351937'
p1363
S'other_useful_information'
p1364
sS'451189612380037121'
p1365
S'other_useful_information'
p1366
sS'451189265020375040'
p1367
S'not_related_or_irrelevant'
p1368
sS'451188068171931648'
p1369
S'injured_or_dead_people'
p1370
sS'451189998667448322'
p1371
S'sympathy_and_emotional_support'
p1372
sS'451188423160627200'
p1373
S'caution_and_advice'
p1374
sS'451187850818879489'
p1375
S'other_useful_information'
p1376
sS'451188904679329792'
p1377
S'not_related_or_irrelevant'
p1378
sS'451189150499504128'
p1379
S'not_related_or_irrelevant'
p1380
sS'451190541859168256'
p1381
S'other_useful_information'
p1382
sS'451190506660188160'
p1383
S'sympathy_and_emotional_support'
p1384
sS'451190250111393792'
p1385
S'injured_or_dead_people'
p1386
sS'451187879180390400'
p1387
S'sympathy_and_emotional_support'
p1388
sS'451187881940246528'
p1389
S'not_related_or_irrelevant'
p1390
sS'451188136215719936'
p1391
S'not_related_or_irrelevant'
p1392
sS'451188261952569344'
p1393
S'not_related_or_irrelevant'
p1394
sS'451188247201599488'
p1395
S'caution_and_advice'
p1396
sS'451189608651313152'
p1397
S'not_related_or_irrelevant'
p1398
sS'451187744782315520'
p1399
S'not_related_or_irrelevant'
p1400
sS'451189832573009920'
p1401
S'other_useful_information'
p1402
sS'451190424523534336'
p1403
S'sympathy_and_emotional_support'
p1404
sS'451187806954479616'
p1405
S'not_related_or_irrelevant'
p1406
sS'451190272169226240'
p1407
S'sympathy_and_emotional_support'
p1408
sS'451188314201022464'
p1409
S'other_useful_information'
p1410
sS'451187928538963968'
p1411
S'other_useful_information'
p1412
sS'451189560282603520'
p1413
S'sympathy_and_emotional_support'
p1414
sS'451190329585045506'
p1415
S'injured_or_dead_people'
p1416
sS'451188525103206402'
p1417
S'sympathy_and_emotional_support'
p1418
sS'451192863863226368'
p1419
S'sympathy_and_emotional_support'
p1420
sS'451189680001019904'
p1421
S'other_useful_information'
p1422
sS'451189990207537152'
p1423
S'sympathy_and_emotional_support'
p1424
sS'451189640544796672'
p1425
S'injured_or_dead_people'
p1426
sS'451189179913740288'
p1427
S'sympathy_and_emotional_support'
p1428
sS'451187682824433664'
p1429
S'other_useful_information'
p1430
sS'451193776640643072'
p1431
S'injured_or_dead_people'
p1432
sS'451187841004212224'
p1433
S'sympathy_and_emotional_support'
p1434
sS'451189072200208385'
p1435
S'other_useful_information'
p1436
sS'451190403514265600'
p1437
S'other_useful_information'
p1438
sS'451188297373843456'
p1439
S'other_useful_information'
p1440
sS'451188882458279936'
p1441
S'sympathy_and_emotional_support'
p1442
sS'451188834274148352'
p1443
S'sympathy_and_emotional_support'
p1444
sS'451189146779152384'
p1445
S'sympathy_and_emotional_support'
p1446
sS'451187677992214528'
p1447
S'other_useful_information'
p1448
sS'451189037974700034'
p1449
S'sympathy_and_emotional_support'
p1450
sS'451188165445824512'
p1451
S'other_useful_information'
p1452
sS'451189379365892096'
p1453
S'other_useful_information'
p1454
sS'451188828036800512'
p1455
S'other_useful_information'
p1456
sS'451188505687760896'
p1457
S'sympathy_and_emotional_support'
p1458
sS'451190436338491393'
p1459
S'other_useful_information'
p1460
sS'451187985615052800'
p1461
S'injured_or_dead_people'
p1462
sS'451190495603994624'
p1463
S'not_related_or_irrelevant'
p1464
sS'451189239808786432'
p1465
S'sympathy_and_emotional_support'
p1466
sS'451188643265146881'
p1467
S'caution_and_advice'
p1468
sS'451188353585532929'
p1469
S'not_related_or_irrelevant'
p1470
sS'451189373753516032'
p1471
S'other_useful_information'
p1472
sS'451188546863652866'
p1473
S'displaced_people_and_evacuations'
p1474
sS'451190298916683776'
p1475
S'displaced_people_and_evacuations'
p1476
sS'451189006907105281'
p1477
S'sympathy_and_emotional_support'
p1478
sS'451188016250249216'
p1479
S'other_useful_information'
p1480
sS'451188217011003393'
p1481
S'other_useful_information'
p1482
sS'451189666125869057'
p1483
S'other_useful_information'
p1484
sS'451189411753910272'
p1485
S'sympathy_and_emotional_support'
p1486
sS'451187954439172096'
p1487
S'caution_and_advice'
p1488
sS'451189783318917120'
p1489
S'other_useful_information'
p1490
sS'451188721140772864'
p1491
S'sympathy_and_emotional_support'
p1492
sS'451188342835519488'
p1493
S'other_useful_information'
p1494
sS'451188942394892288'
p1495
S'sympathy_and_emotional_support'
p1496
sS'451189957420265472'
p1497
S'sympathy_and_emotional_support'
p1498
sS'451189091359408129'
p1499
S'not_related_or_irrelevant'
p1500
sS'451187968485498881'
p1501
S'other_useful_information'
p1502
sS'451190252217311232'
p1503
S'caution_and_advice'
p1504
sS'451188576114716672'
p1505
S'caution_and_advice'
p1506
sS'451188198064939008'
p1507
S'infrastructure_and_utilities_damage'
p1508
sS'451188748689354752'
p1509
S'sympathy_and_emotional_support'
p1510
sS'451189036288184320'
p1511
S'caution_and_advice'
p1512
sS'451189109147860993'
p1513
S'sympathy_and_emotional_support'
p1514
sS'451187957659992065'
p1515
S'injured_or_dead_people'
p1516
sS'451188190645592065'
p1517
S'injured_or_dead_people'
p1518
sS'451190517779267584'
p1519
S'not_related_or_irrelevant'
p1520
sS'451187726017376256'
p1521
S'other_useful_information'
p1522
sS'451190033668530176'
p1523
S'caution_and_advice'
p1524
sS'451188659824631808'
p1525
S'not_related_or_irrelevant'
p1526
sS'451188288129626112'
p1527
S'not_related_or_irrelevant'
p1528
sS'451188172991377409'
p1529
S'not_related_or_irrelevant'
p1530
sS'451189713052114944'
p1531
S'not_related_or_irrelevant'
p1532
sS'451188852729069568'
p1533
S'injured_or_dead_people'
p1534
sS'451190025049231360'
p1535
S'not_related_or_irrelevant'
p1536
sS'451188029256790016'
p1537
S'sympathy_and_emotional_support'
p1538
sS'451189199526305792'
p1539
S'caution_and_advice'
p1540
sS'451189647562272768'
p1541
S'infrastructure_and_utilities_damage'
p1542
sS'451189873782063104'
p1543
S'not_related_or_irrelevant'
p1544
sS'451190137561808896'
p1545
S'injured_or_dead_people'
p1546
sS'451189296016683008'
p1547
S'other_useful_information'
p1548
sS'451190044368175104'
p1549
S'sympathy_and_emotional_support'
p1550
sS'451189501042257920'
p1551
S'sympathy_and_emotional_support'
p1552
sS'451188223738273792'
p1553
S'injured_or_dead_people'
p1554
sS'451189888143327232'
p1555
S'not_related_or_irrelevant'
p1556
sS'451189999531487232'
p1557
S'injured_or_dead_people'
p1558
sS'451190563015241729'
p1559
S'other_useful_information'
p1560
sS'451189718420840448'
p1561
S'other_useful_information'
p1562
sS'451190099636543489'
p1563
S'sympathy_and_emotional_support'
p1564
sS'451188932588232704'
p1565
S'sympathy_and_emotional_support'
p1566
sS'451189815795412992'
p1567
S'other_useful_information'
p1568
sS'451188043358011393'
p1569
S'other_useful_information'
p1570
sS'451188385814573056'
p1571
S'other_useful_information'
p1572
sS'451188914443665408'
p1573
S'not_related_or_irrelevant'
p1574
sS'451188643177066496'
p1575
S'sympathy_and_emotional_support'
p1576
sS'451187901767110657'
p1577
S'not_related_or_irrelevant'
p1578
sS'451190389039308800'
p1579
S'other_useful_information'
p1580
sS'451189540158324736'
p1581
S'other_useful_information'
p1582
sS'451189027681480704'
p1583
S'sympathy_and_emotional_support'
p1584
sS'451187650439815168'
p1585
S'sympathy_and_emotional_support'
p1586
sS'451189180165783552'
p1587
S'other_useful_information'
p1588
sS'451187724863545344'
p1589
S'caution_and_advice'
p1590
sS'451190276921360384'
p1591
S'other_useful_information'
p1592
sS'451189255482531840'
p1593
S'not_related_or_irrelevant'
p1594
sS'451190538197143556'
p1595
S'sympathy_and_emotional_support'
p1596
sS'451187736808943617'
p1597
S'sympathy_and_emotional_support'
p1598
sS'451189174377254913'
p1599
S'caution_and_advice'
p1600
sS'451187658052476928'
p1601
S'sympathy_and_emotional_support'
p1602
sS'451188242239352833'
p1603
S'other_useful_information'
p1604
sS'451189195827322881'
p1605
S'caution_and_advice'
p1606
sS'451189243608829952'
p1607
S'not_related_or_irrelevant'
p1608
sS'451188146206568450'
p1609
S'caution_and_advice'
p1610
sS'451189221806854144'
p1611
S'caution_and_advice'
p1612
sS'451189970347118593'
p1613
S'not_related_or_irrelevant'
p1614
sS'451189834720477185'
p1615
S'sympathy_and_emotional_support'
p1616
sS'451187743201038336'
p1617
S'other_useful_information'
p1618
sS'451188802900340736'
p1619
S'sympathy_and_emotional_support'
p1620
sS'451187996436746240'
p1621
S'other_useful_information'
p1622
sS'451187886163886081'
p1623
S'not_related_or_irrelevant'
p1624
sS'451189554318688256'
p1625
S'other_useful_information'
p1626
sS'451189322188742656'
p1627
S'caution_and_advice'
p1628
sS'451190452234878976'
p1629
S'sympathy_and_emotional_support'
p1630
sS'451189490510753792'
p1631
S'caution_and_advice'
p1632
sS'451189089279016960'
p1633
S'sympathy_and_emotional_support'
p1634
sS'451188483520876544'
p1635
S'other_useful_information'
p1636
sS'451187767251173376'
p1637
S'caution_and_advice'
p1638
sS'451190536981213184'
p1639
S'sympathy_and_emotional_support'
p1640
sS'451187745126227971'
p1641
S'other_useful_information'
p1642
sS'451188818436050944'
p1643
S'other_useful_information'
p1644
sS'451188987504230401'
p1645
S'sympathy_and_emotional_support'
p1646
sS'451190081882427392'
p1647
S'not_related_or_irrelevant'
p1648
sS'451190446526435328'
p1649
S'not_related_or_irrelevant'
p1650
sS'451188659476111360'
p1651
S'infrastructure_and_utilities_damage'
p1652
sS'451189537285234689'
p1653
S'sympathy_and_emotional_support'
p1654
sS'451187736989278208'
p1655
S'sympathy_and_emotional_support'
p1656
sS'451189360810274817'
p1657
S'caution_and_advice'
p1658
sS'451189551743397889'
p1659
S'other_useful_information'
p1660
sS'451188834428936193'
p1661
S'other_useful_information'
p1662
sS'451190057773576192'
p1663
S'not_related_or_irrelevant'
p1664
sS'451188019434106880'
p1665
S'other_useful_information'
p1666
sS'451188981716099072'
p1667
S'injured_or_dead_people'
p1668
sS'451190310849114112'
p1669
S'other_useful_information'
p1670
sS'451189585993682944'
p1671
S'caution_and_advice'
p1672
sS'451188950086860800'
p1673
S'sympathy_and_emotional_support'
p1674
sS'451188816829628416'
p1675
S'displaced_people_and_evacuations'
p1676
sS'451187966845935617'
p1677
S'displaced_people_and_evacuations'
p1678
sS'451189481714900993'
p1679
S'not_related_or_irrelevant'
p1680
sS'451190364271964160'
p1681
S'other_useful_information'
p1682
sS'451189221194076160'
p1683
S'donation_needs_or_offers_or_volunteering_services'
p1684
sS'451189362127302656'
p1685
S'caution_and_advice'
p1686
sS'451189006504824832'
p1687
S'other_useful_information'
p1688
sS'451187960470200320'
p1689
S'caution_and_advice'
p1690
sS'451189973652226048'
p1691
S'sympathy_and_emotional_support'
p1692
sS'451189106912264192'
p1693
S'sympathy_and_emotional_support'
p1694
sS'451188496775282689'
p1695
S'other_useful_information'
p1696
sS'451189263925649408'
p1697
S'not_related_or_irrelevant'
p1698
sS'451189446818283520'
p1699
S'sympathy_and_emotional_support'
p1700
sS'451188277903495168'
p1701
S'other_useful_information'
p1702
sS'451189242970910720'
p1703
S'sympathy_and_emotional_support'
p1704
sS'451189749420539904'
p1705
S'other_useful_information'
p1706
sS'451187646602047488'
p1707
S'not_related_or_irrelevant'
p1708
sS'451189420209606656'
p1709
S'displaced_people_and_evacuations'
p1710
sS'451188787872141313'
p1711
S'sympathy_and_emotional_support'
p1712
sS'451187879742431232'
p1713
S'injured_or_dead_people'
p1714
sS'451187656257708032'
p1715
S'other_useful_information'
p1716
sS'451187846817525763'
p1717
S'sympathy_and_emotional_support'
p1718
sS'451188974304759808'
p1719
S'not_related_or_irrelevant'
p1720
sS'451188693181943809'
p1721
S'sympathy_and_emotional_support'
p1722
sS'451187823354585088'
p1723
S'other_useful_information'
p1724
sS'451189778462289920'
p1725
S'sympathy_and_emotional_support'
p1726
sS'451189640439934976'
p1727
S'other_useful_information'
p1728
sS'451189905150865408'
p1729
S'other_useful_information'
p1730
sS'451189031372455936'
p1731
S'other_useful_information'
p1732
sS'451189135915884544'
p1733
S'other_useful_information'
p1734
sS'451189630948233216'
p1735
S'other_useful_information'
p1736
sS'451188542270488576'
p1737
S'other_useful_information'
p1738
sS'451189149358256128'
p1739
S'other_useful_information'
p1740
sS'451189547213152256'
p1741
S'other_useful_information'
p1742
sS'451189254971219969'
p1743
S'sympathy_and_emotional_support'
p1744
sS'451188225189875713'
p1745
S'other_useful_information'
p1746
sS'451188750320947200'
p1747
S'not_related_or_irrelevant'
p1748
sS'451189178282549248'
p1749
S'caution_and_advice'
p1750
sS'451190297251172352'
p1751
S'other_useful_information'
p1752
sS'451189459321511937'
p1753
S'sympathy_and_emotional_support'
p1754
sS'451188095854329856'
p1755
S'sympathy_and_emotional_support'
p1756
sS'451188798064693248'
p1757
S'not_related_or_irrelevant'
p1758
sS'451188188040552449'
p1759
S'other_useful_information'
p1760
sS'451188492559597568'
p1761
S'not_related_or_irrelevant'
p1762
sS'451188811104399361'
p1763
S'other_useful_information'
p1764
sS'451189795679522816'
p1765
S'sympathy_and_emotional_support'
p1766
sS'451188058163916800'
p1767
S'other_useful_information'
p1768
sS'451190504567238656'
p1769
S'other_useful_information'
p1770
sS'451189581212172288'
p1771
S'caution_and_advice'
p1772
sS'451190232902553601'
p1773
S'sympathy_and_emotional_support'
p1774
sS'451188112979689475'
p1775
S'caution_and_advice'
p1776
sS'451187774771953664'
p1777
S'sympathy_and_emotional_support'
p1778
sS'451189165376299008'
p1779
S'sympathy_and_emotional_support'
p1780
sS'451188037028831232'
p1781
S'other_useful_information'
p1782
sS'451188228603641856'
p1783
S'other_useful_information'
p1784
sS'451188178875981825'
p1785
S'sympathy_and_emotional_support'
p1786
sS'451188999038980096'
p1787
S'displaced_people_and_evacuations'
p1788
sS'451188531529269249'
p1789
S'injured_or_dead_people'
p1790
sS'451187785857114112'
p1791
S'not_related_or_irrelevant'
p1792
sS'451189640012132352'
p1793
S'not_related_or_irrelevant'
p1794
sS'451190381158604800'
p1795
S'sympathy_and_emotional_support'
p1796
sS'451190287906656258'
p1797
S'other_useful_information'
p1798
sS'451187641808330752'
p1799
S'sympathy_and_emotional_support'
p1800
sS'451187818094944256'
p1801
S'caution_and_advice'
p1802
sS'451188529671180288'
p1803
S'not_related_or_irrelevant'
p1804
sS'451190032142184448'
p1805
S'sympathy_and_emotional_support'
p1806
sS'451189476589834240'
p1807
S'other_useful_information'
p1808
sS'451187978082074625'
p1809
S'other_useful_information'
p1810
sS'451189543275077633'
p1811
S'displaced_people_and_evacuations'
p1812
sS'451188396526813185'
p1813
S'sympathy_and_emotional_support'
p1814
sS'451189223966511104'
p1815
S'caution_and_advice'
p1816
sS'451187700436324352'
p1817
S'sympathy_and_emotional_support'
p1818
sS'451190285536464897'
p1819
S'sympathy_and_emotional_support'
p1820
sS'451189099211534336'
p1821
S'displaced_people_and_evacuations'
p1822
sS'451190436775079937'
p1823
S'displaced_people_and_evacuations'
p1824
sS'451188625372643328'
p1825
S'caution_and_advice'
p1826
sS'451188446082506752'
p1827
S'sympathy_and_emotional_support'
p1828
sS'451189279130411008'
p1829
S'infrastructure_and_utilities_damage'
p1830
sS'451188194848280576'
p1831
S'sympathy_and_emotional_support'
p1832
sS'451189822221058048'
p1833
S'sympathy_and_emotional_support'
p1834
sS'451189529320632320'
p1835
S'sympathy_and_emotional_support'
p1836
sS'451189113975480320'
p1837
S'infrastructure_and_utilities_damage'
p1838
sS'451189118790156288'
p1839
S'sympathy_and_emotional_support'
p1840
sS'451188468434358273'
p1841
S'other_useful_information'
p1842
sS'451187912907161600'
p1843
S'displaced_people_and_evacuations'
p1844
sS'451187774557650944'
p1845
S'sympathy_and_emotional_support'
p1846
sS'451188197587185664'
p1847
S'caution_and_advice'
p1848
sS'451187918024212481'
p1849
S'caution_and_advice'
p1850
sS'451187885639626752'
p1851
S'other_useful_information'
p1852
sS'451188328277086208'
p1853
S'sympathy_and_emotional_support'
p1854
sS'451189781477601280'
p1855
S'other_useful_information'
p1856
sS'451189245101608961'
p1857
S'other_useful_information'
p1858
sS'451190336929271808'
p1859
S'other_useful_information'
p1860
sS'451188933397708801'
p1861
S'other_useful_information'
p1862
sS'451189978362437633'
p1863
S'other_useful_information'
p1864
sS'451187668710617088'
p1865
S'sympathy_and_emotional_support'
p1866
sS'451187660858462208'
p1867
S'not_related_or_irrelevant'
p1868
sS'451188172144537600'
p1869
S'other_useful_information'
p1870
sS'451188725322481664'
p1871
S'sympathy_and_emotional_support'
p1872
sS'451188583643496448'
p1873
S'sympathy_and_emotional_support'
p1874
sS'451189706659606529'
p1875
S'sympathy_and_emotional_support'
p1876
sS'451190516718534656'
p1877
S'not_related_or_irrelevant'
p1878
sS'451189219004645376'
p1879
S'sympathy_and_emotional_support'
p1880
sS'451190542567620608'
p1881
S'injured_or_dead_people'
p1882
sS'451189247802748928'
p1883
S'sympathy_and_emotional_support'
p1884
sS'451187622077947904'
p1885
S'other_useful_information'
p1886
sS'451192296512290816'
p1887
S'sympathy_and_emotional_support'
p1888
sS'451188212032364544'
p1889
S'sympathy_and_emotional_support'
p1890
sS'451188135553433600'
p1891
S'other_useful_information'
p1892
sS'451188526587985920'
p1893
S'other_useful_information'
p1894
sS'451187739010936832'
p1895
S'other_useful_information'
p1896
sS'451188163545808896'
p1897
S'other_useful_information'
p1898
sS'451187909568520192'
p1899
S'not_related_or_irrelevant'
p1900
sS'451188875151417344'
p1901
S'not_related_or_irrelevant'
p1902
sS'451189762599043073'
p1903
S'caution_and_advice'
p1904
sS'451187741326192640'
p1905
S'sympathy_and_emotional_support'
p1906
sS'451188540689620992'
p1907
S'displaced_people_and_evacuations'
p1908
sS'451190186941362177'
p1909
S'caution_and_advice'
p1910
sS'451188596091805696'
p1911
S'displaced_people_and_evacuations'
p1912
sS'451188775725826048'
p1913
S'caution_and_advice'
p1914
sS'451188656007806977'
p1915
S'other_useful_information'
p1916
sS'451189254350446592'
p1917
S'sympathy_and_emotional_support'
p1918
sS'451188756503330816'
p1919
S'other_useful_information'
p1920
sS'451189695330791424'
p1921
S'injured_or_dead_people'
p1922
sS'451189458319052801'
p1923
S'not_related_or_irrelevant'
p1924
sS'451189491135700992'
p1925
S'sympathy_and_emotional_support'
p1926
sS'451188058470514688'
p1927
S'caution_and_advice'
p1928
sS'451189713416617984'
p1929
S'other_useful_information'
p1930
sS'451188155488960512'
p1931
S'injured_or_dead_people'
p1932
sS'451188954608717824'
p1933
S'not_related_or_irrelevant'
p1934
sS'451188101377843200'
p1935
S'not_related_or_irrelevant'
p1936
sS'451188200426315776'
p1937
S'injured_or_dead_people'
p1938
sS'451189430943240192'
p1939
S'sympathy_and_emotional_support'
p1940
sS'451188883779510272'
p1941
S'not_related_or_irrelevant'
p1942
sS'451188531311165440'
p1943
S'other_useful_information'
p1944
sS'451189124037607424'
p1945
S'other_useful_information'
p1946
sS'451189505392140288'
p1947
S'sympathy_and_emotional_support'
p1948
sS'451187749077663744'
p1949
S'not_related_or_irrelevant'
p1950
sS'451190473432907776'
p1951
S'not_related_or_irrelevant'
p1952
sS'451187937716494336'
p1953
S'other_useful_information'
p1954
sS'451188916112990208'
p1955
S'other_useful_information'
p1956
sS'451188933062578176'
p1957
S'sympathy_and_emotional_support'
p1958
sS'451189557812158464'
p1959
S'sympathy_and_emotional_support'
p1960
sS'451189546592780289'
p1961
S'other_useful_information'
p1962
sS'451189641945690113'
p1963
S'sympathy_and_emotional_support'
p1964
sS'451188492140163073'
p1965
S'not_related_or_irrelevant'
p1966
sS'451187846934581248'
p1967
S'sympathy_and_emotional_support'
p1968
sS'451189290987696129'
p1969
S'sympathy_and_emotional_support'
p1970
sS'451189275279646721'
p1971
S'other_useful_information'
p1972
sS'451189337141805056'
p1973
S'sympathy_and_emotional_support'
p1974
sS'451188784286400512'
p1975
S'caution_and_advice'
p1976
sS'451189109357559808'
p1977
S'other_useful_information'
p1978
sS'451188145665892352'
p1979
S'not_related_or_irrelevant'
p1980
sS'451189498391846912'
p1981
S'sympathy_and_emotional_support'
p1982
sS'451188324334850048'
p1983
S'displaced_people_and_evacuations'
p1984
sS'451190169375637504'
p1985
S'sympathy_and_emotional_support'
p1986
sS'451190123116638208'
p1987
S'other_useful_information'
p1988
sS'451189299263062016'
p1989
S'injured_or_dead_people'
p1990
sS'451187830283202560'
p1991
S'other_useful_information'
p1992
sS'451189204161400833'
p1993
S'sympathy_and_emotional_support'
p1994
sS'451188978826244096'
p1995
S'caution_and_advice'
p1996
sS'451188853609484288'
p1997
S'other_useful_information'
p1998
sS'451188193149214721'
p1999
S'sympathy_and_emotional_support'
p2000
sS'451188098362535937'
p2001
S'caution_and_advice'
p2002
sS'451187894032420864'
p2003
S'other_useful_information'
p2004
sS'451190494933307392'
p2005
S'sympathy_and_emotional_support'
p2006
sS'451188602207096832'
p2007
S'injured_or_dead_people'
p2008
sS'451189037378723840'
p2009
S'other_useful_information'
p2010
sS'451188767861518336'
p2011
S'caution_and_advice'
p2012
sS'451189499599794176'
p2013
S'not_related_or_irrelevant'
p2014
sS'451187647226998784'
p2015
S'sympathy_and_emotional_support'
p2016
sS'451189989398032384'
p2017
S'sympathy_and_emotional_support'
p2018
sS'451189284817866752'
p2019
S'not_related_or_irrelevant'
p2020
sS'451190393049473024'
p2021
S'sympathy_and_emotional_support'
p2022
sS'451189031531868160'
p2023
S'other_useful_information'
p2024
sS'451189905691930625'
p2025
S'not_related_or_irrelevant'
p2026
sS'451190353400328192'
p2027
S'infrastructure_and_utilities_damage'
p2028
sS'451188455490330625'
p2029
S'other_useful_information'
p2030
sS'451188660315365376'
p2031
S'sympathy_and_emotional_support'
p2032
sS'451189179255631872'
p2033
S'other_useful_information'
p2034
sS'451189558902652929'
p2035
S'caution_and_advice'
p2036
sS'451188431356690432'
p2037
S'missing_trapped_or_found_people'
p2038
sS'451187992762122240'
p2039
S'displaced_people_and_evacuations'
p2040
sS'451189777141075968'
p2041
S'infrastructure_and_utilities_damage'
p2042
sS'451189124007874560'
p2043
S'other_useful_information'
p2044
sS'451188331293200384'
p2045
S'not_related_or_irrelevant'
p2046
sS'451187787531055104'
p2047
S'caution_and_advice'
p2048
sS'451190153273679873'
p2049
S'not_related_or_irrelevant'
p2050
sS'451187806509862912'
p2051
S'not_related_or_irrelevant'
p2052
sS'451190027049906177'
p2053
S'injured_or_dead_people'
p2054
sS'451190119559876608'
p2055
S'other_useful_information'
p2056
sS'451188091210850304'
p2057
S'sympathy_and_emotional_support'
p2058
sS'451190101054586881'
p2059
S'not_related_or_irrelevant'
p2060
sS'451189231344316416'
p2061
S'other_useful_information'
p2062
sS'451190288363827200'
p2063
S'not_related_or_irrelevant'
p2064
sS'451188189131468800'
p2065
S'caution_and_advice'
p2066
sS'451187767964602368'
p2067
S'caution_and_advice'
p2068
sS'451190134378336256'
p2069
S'not_related_or_irrelevant'
p2070
sS'451187895034863616'
p2071
S'not_related_or_irrelevant'
p2072
sS'451189874809634816'
p2073
S'sympathy_and_emotional_support'
p2074
sS'451188358274756608'
p2075
S'infrastructure_and_utilities_damage'
p2076
sS'451190231396786176'
p2077
S'other_useful_information'
p2078
sS'451189623629156352'
p2079
S'not_related_or_irrelevant'
p2080
sS'451190501291483136'
p2081
S'sympathy_and_emotional_support'
p2082
sS'451188523417079808'
p2083
S'other_useful_information'
p2084
sS'451187990086582272'
p2085
S'other_useful_information'
p2086
sS'451187867058851840'
p2087
S'other_useful_information'
p2088
sS'451189599243485184'
p2089
S'not_related_or_irrelevant'
p2090
sS'451190005184991232'
p2091
S'injured_or_dead_people'
p2092
sS'451188175671918592'
p2093
S'sympathy_and_emotional_support'
p2094
sS'451188376251543554'
p2095
S'caution_and_advice'
p2096
sS'451189538841710593'
p2097
S'other_useful_information'
p2098
sS'451190488662421507'
p2099
S'not_related_or_irrelevant'
p2100
sS'451188267149312000'
p2101
S'sympathy_and_emotional_support'
p2102
sS'451189837429633024'
p2103
S'other_useful_information'
p2104
sS'451189730898870272'
p2105
S'caution_and_advice'
p2106
sS'451190610914201600'
p2107
S'other_useful_information'
p2108
sS'451189188344295424'
p2109
S'other_useful_information'
p2110
sS'451190208994627584'
p2111
S'sympathy_and_emotional_support'
p2112
sS'451189545589960704'
p2113
S'not_related_or_irrelevant'
p2114
sS'451187853511258115'
p2115
S'other_useful_information'
p2116
sS'451188298166579200'
p2117
S'sympathy_and_emotional_support'
p2118
sS'451189166760792065'
p2119
S'sympathy_and_emotional_support'
p2120
sS'451188427627565056'
p2121
S'other_useful_information'
p2122
sS'451187750805323776'
p2123
S'caution_and_advice'
p2124
sS'451188055110852608'
p2125
S'other_useful_information'
p2126
sS'451187767507447808'
p2127
S'not_related_or_irrelevant'
p2128
sS'451189005640802304'
p2129
S'not_related_or_irrelevant'
p2130
sS'451189187199238144'
p2131
S'other_useful_information'
p2132
sS'451189873383571458'
p2133
S'sympathy_and_emotional_support'
p2134
sS'451190475941109760'
p2135
S'other_useful_information'
p2136
sS'451188915777835009'
p2137
S'sympathy_and_emotional_support'
p2138
sS'451188830667038721'
p2139
S'sympathy_and_emotional_support'
p2140
sS'451189108291796992'
p2141
S'displaced_people_and_evacuations'
p2142
sS'451188036282241026'
p2143
S'sympathy_and_emotional_support'
p2144
sS'451189293008945152'
p2145
S'other_useful_information'
p2146
sS'451188983494901760'
p2147
S'sympathy_and_emotional_support'
p2148
sS'451188896601104384'
p2149
S'displaced_people_and_evacuations'
p2150
sS'451188973705383936'
p2151
S'sympathy_and_emotional_support'
p2152
sS'451189900558102528'
p2153
S'other_useful_information'
p2154
sS'451189506981756928'
p2155
S'sympathy_and_emotional_support'
p2156
sS'451190023342534656'
p2157
S'sympathy_and_emotional_support'
p2158
sS'451189197324701698'
p2159
S'injured_or_dead_people'
p2160
sS'451187675899240448'
p2161
S'sympathy_and_emotional_support'
p2162
sS'451189644382593024'
p2163
S'sympathy_and_emotional_support'
p2164
sS'451188002010570753'
p2165
S'sympathy_and_emotional_support'
p2166
sS'451188724647202816'
p2167
S'not_related_or_irrelevant'
p2168
sS'451189028684312576'
p2169
S'sympathy_and_emotional_support'
p2170
sS'451190376443805696'
p2171
S'sympathy_and_emotional_support'
p2172
sS'451188054028726272'
p2173
S'other_useful_information'
p2174
sS'451187723349786624'
p2175
S'other_useful_information'
p2176
sS'451189031020531712'
p2177
S'sympathy_and_emotional_support'
p2178
sS'451187659709235200'
p2179
S'not_related_or_irrelevant'
p2180
sS'451189303369281537'
p2181
S'other_useful_information'
p2182
sS'451189651811098624'
p2183
S'caution_and_advice'
p2184
sS'451188513128468480'
p2185
S'not_related_or_irrelevant'
p2186
sS'451188980676325376'
p2187
S'injured_or_dead_people'
p2188
sS'451189418989064192'
p2189
S'injured_or_dead_people'
p2190
sS'451187704454475776'
p2191
S'other_useful_information'
p2192
sS'451188663482056704'
p2193
S'other_useful_information'
p2194
sS'451189845847994368'
p2195
S'caution_and_advice'
p2196
sS'451188951404269568'
p2197
S'sympathy_and_emotional_support'
p2198
sS'451189354523000832'
p2199
S'displaced_people_and_evacuations'
p2200
sS'451188930650451968'
p2201
S'sympathy_and_emotional_support'
p2202
sS'451188062718918656'
p2203
S'not_related_or_irrelevant'
p2204
sS'451189020077608960'
p2205
S'sympathy_and_emotional_support'
p2206
sS'451188887860150272'
p2207
S'caution_and_advice'
p2208
sS'451188790023839744'
p2209
S'other_useful_information'
p2210
sS'451188236510306304'
p2211
S'sympathy_and_emotional_support'
p2212
sS'451187741754417153'
p2213
S'sympathy_and_emotional_support'
p2214
sS'451190058582679552'
p2215
S'displaced_people_and_evacuations'
p2216
sS'451188233913630720'
p2217
S'displaced_people_and_evacuations'
p2218
sS'451187710854967296'
p2219
S'sympathy_and_emotional_support'
p2220
sS'451189431647481856'
p2221
S'other_useful_information'
p2222
sS'451188053626064896'
p2223
S'sympathy_and_emotional_support'
p2224
sS'451188247184433152'
p2225
S'other_useful_information'
p2226
sS'451189124498587648'
p2227
S'caution_and_advice'
p2228
sS'451189945831813120'
p2229
S'sympathy_and_emotional_support'
p2230
sS'451189656760360960'
p2231
S'sympathy_and_emotional_support'
p2232
sS'451189644483239936'
p2233
S'not_related_or_irrelevant'
p2234
sS'451189435317886977'
p2235
S'sympathy_and_emotional_support'
p2236
sS'451188497399816192'
p2237
S'caution_and_advice'
p2238
sS'451190147233882112'
p2239
S'other_useful_information'
p2240
sS'451189635041861632'
p2241
S'displaced_people_and_evacuations'
p2242
sS'451189254350438400'
p2243
S'other_useful_information'
p2244
sS'451189904723431424'
p2245
S'injured_or_dead_people'
p2246
sS'451189176734474241'
p2247
S'sympathy_and_emotional_support'
p2248
sS'451188955816275968'
p2249
S'caution_and_advice'
p2250
sS'451189134485229568'
p2251
S'other_useful_information'
p2252
sS'451188817077100545'
p2253
S'sympathy_and_emotional_support'
p2254
sS'451190135267160064'
p2255
S'caution_and_advice'
p2256
sS'451188265056350208'
p2257
S'caution_and_advice'
p2258
sS'451188066191806464'
p2259
S'sympathy_and_emotional_support'
p2260
sS'451188124132331520'
p2261
S'other_useful_information'
p2262
sS'451190297288925185'
p2263
S'not_related_or_irrelevant'
p2264
sS'451189653442269184'
p2265
S'other_useful_information'
p2266
sS'451189343260913664'
p2267
S'other_useful_information'
p2268
sS'451188580871069696'
p2269
S'not_related_or_irrelevant'
p2270
sS'451189744861724672'
p2271
S'donation_needs_or_offers_or_volunteering_services'
p2272
sS'451190053310832640'
p2273
S'injured_or_dead_people'
p2274
sS'451187729167286273'
p2275
S'caution_and_advice'
p2276
sS'451187914794622976'
p2277
S'sympathy_and_emotional_support'
p2278
sS'451188185188802560'
p2279
S'other_useful_information'
p2280
sS'451189839036448768'
p2281
S'other_useful_information'
p2282
sS'451189425435709440'
p2283
S'other_useful_information'
p2284
sS'451188612789710848'
p2285
S'other_useful_information'
p2286
sS'451188257888698368'
p2287
S'displaced_people_and_evacuations'
p2288
sS'451189700217536512'
p2289
S'other_useful_information'
p2290
sS'451189639874109441'
p2291
S'caution_and_advice'
p2292
sS'451190369598730240'
p2293
S'injured_or_dead_people'
p2294
sS'451188811171897344'
p2295
S'sympathy_and_emotional_support'
p2296
sS'451187825695002624'
p2297
S'other_useful_information'
p2298
sS'451190333989068800'
p2299
S'other_useful_information'
p2300
sS'451188663981195264'
p2301
S'sympathy_and_emotional_support'
p2302
sS'451188774413025280'
p2303
S'other_useful_information'
p2304
sS'451188969565597696'
p2305
S'sympathy_and_emotional_support'
p2306
sS'451188639708745729'
p2307
S'not_related_or_irrelevant'
p2308
sS'451189241503289344'
p2309
S'donation_needs_or_offers_or_volunteering_services'
p2310
sS'451189193692020736'
p2311
S'injured_or_dead_people'
p2312
sS'451190343493750784'
p2313
S'sympathy_and_emotional_support'
p2314
sS'451189485636567040'
p2315
S'other_useful_information'
p2316
sS'451189584513073152'
p2317
S'other_useful_information'
p2318
sS'451190374430949376'
p2319
S'other_useful_information'
p2320
sS'451189274650505217'
p2321
S'caution_and_advice'
p2322
sS'451188007916568576'
p2323
S'other_useful_information'
p2324
sS'451187623252336640'
p2325
S'other_useful_information'
p2326
sS'451187723089760256'
p2327
S'caution_and_advice'
p2328
sS'451190408819642368'
p2329
S'not_related_or_irrelevant'
p2330
sS'451188893467963394'
p2331
S'other_useful_information'
p2332
sS'451188025142157312'
p2333
S'other_useful_information'
p2334
sS'451190373214593024'
p2335
S'sympathy_and_emotional_support'
p2336
sS'451189029363404804'
p2337
S'other_useful_information'
p2338
sS'451189498827644928'
p2339
S'caution_and_advice'
p2340
sS'451189974705385472'
p2341
S'other_useful_information'
p2342
sS'451189383459532800'
p2343
S'caution_and_advice'
p2344
sS'451187669851467777'
p2345
S'infrastructure_and_utilities_damage'
p2346
sS'451188536499527680'
p2347
S'injured_or_dead_people'
p2348
sS'451188768582926336'
p2349
S'other_useful_information'
p2350
sS'451189358914068480'
p2351
S'sympathy_and_emotional_support'
p2352
sS'451189161283039232'
p2353
S'caution_and_advice'
p2354
sS'451187798574243840'
p2355
S'other_useful_information'
p2356
sS'451187745990656000'
p2357
S'other_useful_information'
p2358
sS'451188958425513984'
p2359
S'sympathy_and_emotional_support'
p2360
sS'451188434590502912'
p2361
S'caution_and_advice'
p2362
sS'451189073760505856'
p2363
S'not_related_or_irrelevant'
p2364
sS'451189196318081024'
p2365
S'other_useful_information'
p2366
sS'451189375041548288'
p2367
S'sympathy_and_emotional_support'
p2368
sS'451188070591643648'
p2369
S'not_related_or_irrelevant'
p2370
sS'451187786821816321'
p2371
S'sympathy_and_emotional_support'
p2372
sS'451188429309890560'
p2373
S'caution_and_advice'
p2374
sS'451189637365895168'
p2375
S'other_useful_information'
p2376
sS'451189343143862272'
p2377
S'caution_and_advice'
p2378
sS'451187671235584001'
p2379
S'other_useful_information'
p2380
sS'451187671235584000'
p2381
S'injured_or_dead_people'
p2382
sS'451188106063249408'
p2383
S'other_useful_information'
p2384
sS'451189462291083265'
p2385
S'sympathy_and_emotional_support'
p2386
sS'451188417377095680'
p2387
S'not_related_or_irrelevant'
p2388
sS'451190149544566785'
p2389
S'not_related_or_irrelevant'
p2390
sS'451188577884725248'
p2391
S'caution_and_advice'
p2392
sS'451188862724083712'
p2393
S'caution_and_advice'
p2394
sS'451187877737922560'
p2395
S'caution_and_advice'
p2396
sS'451189101853949954'
p2397
S'other_useful_information'
p2398
sS'451188429695356928'
p2399
S'other_useful_information'
p2400
sS'451188401094402048'
p2401
S'sympathy_and_emotional_support'
p2402
sS'451189976047157248'
p2403
S'caution_and_advice'
p2404
sS'451187852550746113'
p2405
S'other_useful_information'
p2406
sS'451188132260904962'
p2407
S'other_useful_information'
p2408
sS'451189248528764928'
p2409
S'caution_and_advice'
p2410
sS'451188325353656320'
p2411
S'other_useful_information'
p2412
sS'451188261328015360'
p2413
S'other_useful_information'
p2414
sS'451187965411065857'
p2415
S'caution_and_advice'
p2416
sS'451187756056584192'
p2417
S'other_useful_information'
p2418
sS'451188290679345152'
p2419
S'displaced_people_and_evacuations'
p2420
sS'451189562979532800'
p2421
S'not_related_or_irrelevant'
p2422
sS'451192164605648896'
p2423
S'not_related_or_irrelevant'
p2424
sS'451188498511302656'
p2425
S'caution_and_advice'
p2426
sS'451188300267945984'
p2427
S'other_useful_information'
p2428
sS'451189919843876864'
p2429
S'other_useful_information'
p2430
sS'451187995736276992'
p2431
S'sympathy_and_emotional_support'
p2432
sS'451188007773548544'
p2433
S'caution_and_advice'
p2434
sS'451188355733409792'
p2435
S'sympathy_and_emotional_support'
p2436
sS'451188483663466497'
p2437
S'caution_and_advice'
p2438
sS'451190383637045248'
p2439
S'sympathy_and_emotional_support'
p2440
sS'451188072202637313'
p2441
S'not_related_or_irrelevant'
p2442
sS'451190214275235840'
p2443
S'sympathy_and_emotional_support'
p2444
sS'451190402507227136'
p2445
S'other_useful_information'
p2446
sS'451188298644746241'
p2447
S'other_useful_information'
p2448
sS'451188902549016577'
p2449
S'injured_or_dead_people'
p2450
sS'451187697952907264'
p2451
S'other_useful_information'
p2452
sS'451188101247823873'
p2453
S'other_useful_information'
p2454
sS'451189676028612609'
p2455
S'sympathy_and_emotional_support'
p2456
sS'451189582898282496'
p2457
S'displaced_people_and_evacuations'
p2458
sS'451188585920606208'
p2459
S'sympathy_and_emotional_support'
p2460
sS'451188592183115776'
p2461
S'sympathy_and_emotional_support'
p2462
sS'451187631507132416'
p2463
S'not_related_or_irrelevant'
p2464
sS'451188680427053056'
p2465
S'other_useful_information'
p2466
sS'451189381865275393'
p2467
S'other_useful_information'
p2468
sS'451188250108243968'
p2469
S'not_related_or_irrelevant'
p2470
sS'451188787725758464'
p2471
S'other_useful_information'
p2472
sS'451190172646785024'
p2473
S'other_useful_information'
p2474
sS'451188934404345857'
p2475
S'sympathy_and_emotional_support'
p2476
sS'451189488295743488'
p2477
S'sympathy_and_emotional_support'
p2478
sS'451188075096702976'
p2479
S'injured_or_dead_people'
p2480
sS'451190525161254912'
p2481
S'not_related_or_irrelevant'
p2482
sS'451188716514451456'
p2483
S'other_useful_information'
p2484
sS'451190143207370752'
p2485
S'not_related_or_irrelevant'
p2486
sS'451188827391270912'
p2487
S'injured_or_dead_people'
p2488
sS'451189066940182528'
p2489
S'injured_or_dead_people'
p2490
sS'451188035787292673'
p2491
S'sympathy_and_emotional_support'
p2492
sS'451189769599737856'
p2493
S'other_useful_information'
p2494
sS'451190011216801792'
p2495
S'not_related_or_irrelevant'
p2496
sS'451190170021138433'
p2497
S'sympathy_and_emotional_support'
p2498
sS'451188647858307072'
p2499
S'injured_or_dead_people'
p2500
sS'451189939078975488'
p2501
S'sympathy_and_emotional_support'
p2502
sS'451189687701368832'
p2503
S'caution_and_advice'
p2504
sS'451189125245571073'
p2505
S'not_related_or_irrelevant'
p2506
sS'451188144172716032'
p2507
S'sympathy_and_emotional_support'
p2508
sS'451188178058502145'
p2509
S'sympathy_and_emotional_support'
p2510
sS'451189647574839296'
p2511
S'sympathy_and_emotional_support'
p2512
sS'451188740140957697'
p2513
S'other_useful_information'
p2514
sS'451189668755697664'
p2515
S'sympathy_and_emotional_support'
p2516
sS'451189656302784512'
p2517
S'not_related_or_irrelevant'
p2518
sS'451189194426036224'
p2519
S'other_useful_information'
p2520
sS'451189363347423232'
p2521
S'sympathy_and_emotional_support'
p2522
sS'451189849681575936'
p2523
S'sympathy_and_emotional_support'
p2524
sS'451189960167923712'
p2525
S'caution_and_advice'
p2526
sS'451188515447926785'
p2527
S'caution_and_advice'
p2528
sS'451187635709440000'
p2529
S'other_useful_information'
p2530
sS'451188137335988224'
p2531
S'caution_and_advice'
p2532
sS'451188555902377984'
p2533
S'injured_or_dead_people'
p2534
sS'451187794577481728'
p2535
S'sympathy_and_emotional_support'
p2536
sS'451188906596524034'
p2537
S'other_useful_information'
p2538
sS'451187710623899648'
p2539
S'caution_and_advice'
p2540
sS'451188917060907008'
p2541
S'not_related_or_irrelevant'
p2542
sS'451190603586748416'
p2543
S'not_related_or_irrelevant'
p2544
sS'451188472875741184'
p2545
S'sympathy_and_emotional_support'
p2546
sS'451190456056315905'
p2547
S'other_useful_information'
p2548
sS'451188707706814464'
p2549
S'not_related_or_irrelevant'
p2550
sS'451188284870639616'
p2551
S'other_useful_information'
p2552
sS'451190501140885504'
p2553
S'other_useful_information'
p2554
sS'451189024758067200'
p2555
S'not_related_or_irrelevant'
p2556
sS'451188285226770434'
p2557
S'sympathy_and_emotional_support'
p2558
sS'451189514103685120'
p2559
S'caution_and_advice'
p2560
sS'451189727786303488'
p2561
S'other_useful_information'
p2562
sS'451188617700835328'
p2563
S'other_useful_information'
p2564
sS'451190075779731456'
p2565
S'other_useful_information'
p2566
sS'451188208080936961'
p2567
S'caution_and_advice'
p2568
sS'451187684237910017'
p2569
S'sympathy_and_emotional_support'
p2570
sS'451189856002396160'
p2571
S'other_useful_information'
p2572
sS'451189042197983232'
p2573
S'displaced_people_and_evacuations'
p2574
sS'451188009015476224'
p2575
S'other_useful_information'
p2576
sS'451188608032968704'
p2577
S'other_useful_information'
p2578
sS'451187866958565377'
p2579
S'other_useful_information'
p2580
sS'451189464400801793'
p2581
S'caution_and_advice'
p2582
sS'451189459523219456'
p2583
S'other_useful_information'
p2584
sS'451188181145096192'
p2585
S'other_useful_information'
p2586
sS'451189051824304128'
p2587
S'sympathy_and_emotional_support'
p2588
sS'451190463689543681'
p2589
S'caution_and_advice'
p2590
sS'451187811128209409'
p2591
S'caution_and_advice'
p2592
sS'451188941384065024'
p2593
S'injured_or_dead_people'
p2594
sS'451189381873672192'
p2595
S'sympathy_and_emotional_support'
p2596
sS'451188727713247232'
p2597
S'not_related_or_irrelevant'
p2598
sS'451188566581084160'
p2599
S'other_useful_information'
p2600
sS'451188319850737664'
p2601
S'sympathy_and_emotional_support'
p2602
sS'451190304914173953'
p2603
S'other_useful_information'
p2604
sS'451189538627387392'
p2605
S'not_related_or_irrelevant'
p2606
sS'451189951544057856'
p2607
S'infrastructure_and_utilities_damage'
p2608
sS'451189695230128130'
p2609
S'other_useful_information'
p2610
sS'451188736013778944'
p2611
S'caution_and_advice'
p2612
sS'451189071037997057'
p2613
S'other_useful_information'
p2614
sS'451190000227344384'
p2615
S'sympathy_and_emotional_support'
p2616
sS'451187923002880000'
p2617
S'other_useful_information'
p2618
sS'451188857786998784'
p2619
S'sympathy_and_emotional_support'
p2620
sS'451188902490288128'
p2621
S'other_useful_information'
p2622
sS'451188890758434816'
p2623
S'injured_or_dead_people'
p2624
sS'451189380942540802'
p2625
S'sympathy_and_emotional_support'
p2626
sS'451189066449432576'
p2627
S'other_useful_information'
p2628
sS'451188317942341632'
p2629
S'displaced_people_and_evacuations'
p2630
sS'451188724106145792'
p2631
S'not_related_or_irrelevant'
p2632
sS'451189596903071744'
p2633
S'sympathy_and_emotional_support'
p2634
sS'451189400576491520'
p2635
S'other_useful_information'
p2636
sS'451187756769611776'
p2637
S'other_useful_information'
p2638
sS'451188537057378304'
p2639
S'injured_or_dead_people'
p2640
sS'451187637437476865'
p2641
S'not_related_or_irrelevant'
p2642
sS'451188829114732544'
p2643
S'other_useful_information'
p2644
sS'451188276482043904'
p2645
S'other_useful_information'
p2646
sS'451190567351762944'
p2647
S'other_useful_information'
p2648
sS'451189686682136576'
p2649
S'sympathy_and_emotional_support'
p2650
sS'451188133371969536'
p2651
S'not_related_or_irrelevant'
p2652
sS'451188088329342976'
p2653
S'sympathy_and_emotional_support'
p2654
sS'451188797494284288'
p2655
S'not_related_or_irrelevant'
p2656
sS'451188954814222336'
p2657
S'sympathy_and_emotional_support'
p2658
sS'451188709766230016'
p2659
S'other_useful_information'
p2660
sS'451190325294673921'
p2661
S'injured_or_dead_people'
p2662
sS'451189316203450369'
p2663
S'sympathy_and_emotional_support'
p2664
sS'451188547811151872'
p2665
S'caution_and_advice'
p2666
sS'451189912516038656'
p2667
S'injured_or_dead_people'
p2668
sS'451189874788274176'
p2669
S'other_useful_information'
p2670
sS'451189634316648448'
p2671
S'caution_and_advice'
p2672
sS'451190382202613760'
p2673
S'displaced_people_and_evacuations'
p2674
sS'451190069068447745'
p2675
S'other_useful_information'
p2676
sS'451189781742239744'
p2677
S'sympathy_and_emotional_support'
p2678
sS'451187986659430400'
p2679
S'caution_and_advice'
p2680
sS'451189684840828929'
p2681
S'sympathy_and_emotional_support'
p2682
sS'451187774977110016'
p2683
S'injured_or_dead_people'
p2684
sS'451188959230836737'
p2685
S'caution_and_advice'
p2686
sS'451188466663948288'
p2687
S'displaced_people_and_evacuations'
p2688
sS'451190310278684674'
p2689
S'sympathy_and_emotional_support'
p2690
sS'451188465972285440'
p2691
S'other_useful_information'
p2692
sS'451189841238032386'
p2693
S'caution_and_advice'
p2694
sS'451189818467549184'
p2695
S'caution_and_advice'
p2696
sS'451188703114039296'
p2697
S'injured_or_dead_people'
p2698
sS'451188277861576704'
p2699
S'not_related_or_irrelevant'
p2700
sS'451189163103387648'
p2701
S'caution_and_advice'
p2702
sS'451189221924306944'
p2703
S'sympathy_and_emotional_support'
p2704
sS'451188757819957248'
p2705
S'other_useful_information'
p2706
sS'451189508365500417'
p2707
S'sympathy_and_emotional_support'
p2708
sS'451187875988897792'
p2709
S'other_useful_information'
p2710
sS'451189788985786368'
p2711
S'sympathy_and_emotional_support'
p2712
sS'451187698309406720'
p2713
S'sympathy_and_emotional_support'
p2714
sS'451190043148034048'
p2715
S'other_useful_information'
p2716
sS'451188782411567106'
p2717
S'displaced_people_and_evacuations'
p2718
sS'451188225206280192'
p2719
S'other_useful_information'
p2720
sS'451189983836389377'
p2721
S'not_related_or_irrelevant'
p2722
sS'451190275856023553'
p2723
S'sympathy_and_emotional_support'
p2724
sS'451188568493285378'
p2725
S'sympathy_and_emotional_support'
p2726
sS'451189063144325120'
p2727
S'displaced_people_and_evacuations'
p2728
sS'451190060831244288'
p2729
S'other_useful_information'
p2730
sS'451189148859498497'
p2731
S'other_useful_information'
p2732
sS'451187760670326784'
p2733
S'not_related_or_irrelevant'
p2734
sS'451189173043490816'
p2735
S'not_related_or_irrelevant'
p2736
sS'451187921517703168'
p2737
S'not_related_or_irrelevant'
p2738
sS'451188167111376896'
p2739
S'sympathy_and_emotional_support'
p2740
sS'451188668322287617'
p2741
S'sympathy_and_emotional_support'
p2742
sS'451189075219709952'
p2743
S'caution_and_advice'
p2744
sS'451189453948997632'
p2745
S'not_related_or_irrelevant'
p2746
sS'451187912298987520'
p2747
S'sympathy_and_emotional_support'
p2748
sS'451188882688581632'
p2749
S'not_related_or_irrelevant'
p2750
sS'451189303251845120'
p2751
S'other_useful_information'
p2752
sS'451190430256734208'
p2753
S'sympathy_and_emotional_support'
p2754
sS'451190179936497664'
p2755
S'not_related_or_irrelevant'
p2756
sS'451189197278576640'
p2757
S'sympathy_and_emotional_support'
p2758
sS'451188183704035328'
p2759
S'caution_and_advice'
p2760
sS'451190421754892288'
p2761
S'other_useful_information'
p2762
sS'451189890948952064'
p2763
S'sympathy_and_emotional_support'
p2764
sS'451187753904910336'
p2765
S'sympathy_and_emotional_support'
p2766
sS'451187822243110912'
p2767
S'other_useful_information'
p2768
sS'451190059601895424'
p2769
S'not_related_or_irrelevant'
p2770
sS'451190387239960576'
p2771
S'missing_trapped_or_found_people'
p2772
sS'451190192947613696'
p2773
S'sympathy_and_emotional_support'
p2774
sS'451189219575070720'
p2775
S'sympathy_and_emotional_support'
p2776
sS'451189760891944960'
p2777
S'not_related_or_irrelevant'
p2778
sS'451187621843070976'
p2779
S'sympathy_and_emotional_support'
p2780
sS'451189244053454848'
p2781
S'sympathy_and_emotional_support'
p2782
sS'451190367887450112'
p2783
S'other_useful_information'
p2784
sS'451189086347198464'
p2785
S'other_useful_information'
p2786
sS'451189531866587137'
p2787
S'sympathy_and_emotional_support'
p2788
sS'451187764261040128'
p2789
S'sympathy_and_emotional_support'
p2790
sS'451188774081675264'
p2791
S'other_useful_information'
p2792
sS'451188122332565504'
p2793
S'other_useful_information'
p2794
sS'451189760329920512'
p2795
S'not_related_or_irrelevant'
p2796
sS'451189751207702530'
p2797
S'not_related_or_irrelevant'
p2798
sS'451188401833013248'
p2799
S'not_related_or_irrelevant'
p2800
sS'451189246528090112'
p2801
S'not_related_or_irrelevant'
p2802
sS'451188283159347200'
p2803
S'sympathy_and_emotional_support'
p2804
sS'451187962298908673'
p2805
S'sympathy_and_emotional_support'
p2806
sS'451189012342902785'
p2807
S'caution_and_advice'
p2808
sS'451188296010694656'
p2809
S'injured_or_dead_people'
p2810
sS'451190344546148353'
p2811
S'caution_and_advice'
p2812
sS'451189087350059008'
p2813
S'not_related_or_irrelevant'
p2814
sS'451188693924323328'
p2815
S'not_related_or_irrelevant'
p2816
sS'451188622826295296'
p2817
S'caution_and_advice'
p2818
sS'451188654132957184'
p2819
S'injured_or_dead_people'
p2820
sS'451188477821198336'
p2821
S'other_useful_information'
p2822
sS'451190414096093184'
p2823
S'sympathy_and_emotional_support'
p2824
sS'451188950053310464'
p2825
S'other_useful_information'
p2826
sS'451189503101640704'
p2827
S'infrastructure_and_utilities_damage'
p2828
sS'451190409515900928'
p2829
S'other_useful_information'
p2830
sS'451188536591396864'
p2831
S'other_useful_information'
p2832
sS'451188794411474944'
p2833
S'other_useful_information'
p2834
sS'451189033591664641'
p2835
S'injured_or_dead_people'
p2836
sS'451189623386288128'
p2837
S'sympathy_and_emotional_support'
p2838
sS'451189332942921728'
p2839
S'other_useful_information'
p2840
sS'451188665834680320'
p2841
S'sympathy_and_emotional_support'
p2842
sS'451189496965378048'
p2843
S'other_useful_information'
p2844
sS'451188693408051200'
p2845
S'other_useful_information'
p2846
sS'451189721138335744'
p2847
S'sympathy_and_emotional_support'
p2848
sS'451187814399373312'
p2849
S'not_related_or_irrelevant'
p2850
sS'451190417988390913'
p2851
S'sympathy_and_emotional_support'
p2852
sS'451188542916415490'
p2853
S'other_useful_information'
p2854
sS'451190306554540033'
p2855
S'not_related_or_irrelevant'
p2856
sS'451188499073359873'
p2857
S'other_useful_information'
p2858
sS'451188992986611713'
p2859
S'not_related_or_irrelevant'
p2860
sS'451189225002520576'
p2861
S'caution_and_advice'
p2862
sS'451188890863296512'
p2863
S'other_useful_information'
p2864
sS'451189252634996736'
p2865
S'caution_and_advice'
p2866
sS'451190234932207617'
p2867
S'other_useful_information'
p2868
sS'451190406818983936'
p2869
S'sympathy_and_emotional_support'
p2870
sS'451187739980234752'
p2871
S'displaced_people_and_evacuations'
p2872
sS'451188397076254720'
p2873
S'not_related_or_irrelevant'
p2874
sS'451187829234999296'
p2875
S'caution_and_advice'
p2876
sS'451187866459443200'
p2877
S'caution_and_advice'
p2878
sS'451187998022205440'
p2879
S'sympathy_and_emotional_support'
p2880
sS'451190261310582784'
p2881
S'sympathy_and_emotional_support'
p2882
sS'451189229276909568'
p2883
S'sympathy_and_emotional_support'
p2884
sS'451188885297434624'
p2885
S'sympathy_and_emotional_support'
p2886
sS'451188384737017856'
p2887
S'sympathy_and_emotional_support'
p2888
sS'451190483859947520'
p2889
S'sympathy_and_emotional_support'
p2890
sS'451189009855692800'
p2891
S'caution_and_advice'
p2892
sS'451189136599162880'
p2893
S'other_useful_information'
p2894
sS'451189503055507456'
p2895
S'not_related_or_irrelevant'
p2896
sS'451189132682076160'
p2897
S'sympathy_and_emotional_support'
p2898
sS'451187945371074560'
p2899
S'other_useful_information'
p2900
sS'451189750217457664'
p2901
S'not_related_or_irrelevant'
p2902
sS'451188449484505089'
p2903
S'sympathy_and_emotional_support'
p2904
sS'451188948132323328'
p2905
S'not_related_or_irrelevant'
p2906
sS'451189015996153856'
p2907
S'caution_and_advice'
p2908
sS'451188204113113089'
p2909
S'infrastructure_and_utilities_damage'
p2910
sS'451189550019125249'
p2911
S'sympathy_and_emotional_support'
p2912
sS'451189514514350080'
p2913
S'sympathy_and_emotional_support'
p2914
sS'451189367084974080'
p2915
S'other_useful_information'
p2916
sS'451187797890973696'
p2917
S'sympathy_and_emotional_support'
p2918
sS'451187898654949376'
p2919
S'sympathy_and_emotional_support'
p2920
sS'451189712615927808'
p2921
S'other_useful_information'
p2922
sS'451189323358957568'
p2923
S'displaced_people_and_evacuations'
p2924
sS'451190397499224064'
p2925
S'not_related_or_irrelevant'
p2926
sS'451189907625869312'
p2927
S'displaced_people_and_evacuations'
p2928
sS'451190435063418882'
p2929
S'injured_or_dead_people'
p2930
sS'451188231414235136'
p2931
S'other_useful_information'
p2932
sS'451189702343680000'
p2933
S'infrastructure_and_utilities_damage'
p2934
sS'451189477629640705'
p2935
S'sympathy_and_emotional_support'
p2936
sS'451188325311729664'
p2937
S'sympathy_and_emotional_support'
p2938
sS'451189870237470720'
p2939
S'other_useful_information'
p2940
sS'451189088276983809'
p2941
S'other_useful_information'
p2942
sS'451188893954502657'
p2943
S'infrastructure_and_utilities_damage'
p2944
sS'451188467397963776'
p2945
S'other_useful_information'
p2946
sS'451188906461892608'
p2947
S'sympathy_and_emotional_support'
p2948
sS'451188242797568000'
p2949
S'other_useful_information'
p2950
sS'451189601604878336'
p2951
S'displaced_people_and_evacuations'
p2952
sS'451188979778723840'
p2953
S'not_related_or_irrelevant'
p2954
sS'451188397923516418'
p2955
S'other_useful_information'
p2956
sS'451188843320848384'
p2957
S'injured_or_dead_people'
p2958
sS'451189734141075456'
p2959
S'not_related_or_irrelevant'
p2960
sS'451188254272806913'
p2961
S'not_related_or_irrelevant'
p2962
sS'451187906854793216'
p2963
S'sympathy_and_emotional_support'
p2964
sS'451188418190774272'
p2965
S'other_useful_information'
p2966
sS'451188097980452864'
p2967
S'sympathy_and_emotional_support'
p2968
sS'451188394417475584'
p2969
S'other_useful_information'
p2970
sS'451187620945887232'
p2971
S'not_related_or_irrelevant'
p2972
sS'451187882578165760'
p2973
S'sympathy_and_emotional_support'
p2974
sS'451188867304267776'
p2975
S'other_useful_information'
p2976
sS'451190423684276227'
p2977
S'other_useful_information'
p2978
sS'451189979520053248'
p2979
S'other_useful_information'
p2980
sS'451188741743202305'
p2981
S'caution_and_advice'
p2982
sS'451189695494369283'
p2983
S'other_useful_information'
p2984
sS'451188767442096128'
p2985
S'sympathy_and_emotional_support'
p2986
sS'451190080796110848'
p2987
S'sympathy_and_emotional_support'
p2988
sS'451188701771870208'
p2989
S'sympathy_and_emotional_support'
p2990
sS'451187685227765760'
p2991
S'other_useful_information'
p2992
sS'451187789426884608'
p2993
S'other_useful_information'
p2994
sS'451188466823749632'
p2995
S'caution_and_advice'
p2996
sS'451190014551273472'
p2997
S'sympathy_and_emotional_support'
p2998
sS'451188202716418048'
p2999
S'other_useful_information'
p3000
sS'451190106863730689'
p3001
S'not_related_or_irrelevant'
p3002
sS'451190156985647105'
p3003
S'other_useful_information'
p3004
sS'451188808298422273'
p3005
S'other_useful_information'
p3006
sS'451188475966926848'
p3007
S'other_useful_information'
p3008
sS'451188061687513088'
p3009
S'sympathy_and_emotional_support'
p3010
sS'451189237535096832'
p3011
S'infrastructure_and_utilities_damage'
p3012
sS'451188457566896129'
p3013
S'sympathy_and_emotional_support'
p3014
sS'451190495721451520'
p3015
S'other_useful_information'
p3016
sS'451188343083388928'
p3017
S'sympathy_and_emotional_support'
p3018
sS'451189157118083072'
p3019
S'other_useful_information'
p3020
sS'451189849765478400'
p3021
S'injured_or_dead_people'
p3022
sS'451188419977568256'
p3023
S'other_useful_information'
p3024
sS'451188023686737922'
p3025
S'infrastructure_and_utilities_damage'
p3026
sS'451188116192108544'
p3027
S'displaced_people_and_evacuations'
p3028
sS'451189176004640768'
p3029
S'not_related_or_irrelevant'
p3030
sS'451188618565259264'
p3031
S'other_useful_information'
p3032
sS'451189129145876480'
p3033
S'caution_and_advice'
p3034
sS'451190316289110016'
p3035
S'sympathy_and_emotional_support'
p3036
sS'451188135763124224'
p3037
S'not_related_or_irrelevant'
p3038
sS'451187865418866688'
p3039
S'other_useful_information'
p3040
sS'451189210821558272'
p3041
S'not_related_or_irrelevant'
p3042
sS'451188196257562624'
p3043
S'not_related_or_irrelevant'
p3044
sS'451187879465603073'
p3045
S'sympathy_and_emotional_support'
p3046
sS'451188106830835712'
p3047
S'injured_or_dead_people'
p3048
sS'451189015430324224'
p3049
S'other_useful_information'
p3050
sS'451188649304915968'
p3051
S'other_useful_information'
p3052
sS'451187804001665024'
p3053
S'sympathy_and_emotional_support'
p3054
sS'451190068732899328'
p3055
S'sympathy_and_emotional_support'
p3056
sS'451188722071916545'
p3057
S'sympathy_and_emotional_support'
p3058
sS'451189604339548161'
p3059
S'not_related_or_irrelevant'
p3060
sS'451189909328773120'
p3061
S'other_useful_information'
p3062
sS'451188032247324672'
p3063
S'not_related_or_irrelevant'
p3064
sS'451190494500900864'
p3065
S'sympathy_and_emotional_support'
p3066
sS'451188681827946496'
p3067
S'not_related_or_irrelevant'
p3068
sS'451187763639885824'
p3069
S'other_useful_information'
p3070
sS'451189959383588864'
p3071
S'sympathy_and_emotional_support'
p3072
sS'451187850478768128'
p3073
S'other_useful_information'
p3074
sS'451189083734540288'
p3075
S'not_related_or_irrelevant'
p3076
sS'451189419567898625'
p3077
S'other_useful_information'
p3078
sS'451189444851138561'
p3079
S'other_useful_information'
p3080
sS'451187997002989568'
p3081
S'other_useful_information'
p3082
sS'451189541143990272'
p3083
S'sympathy_and_emotional_support'
p3084
sS'451189868316852224'
p3085
S'donation_needs_or_offers_or_volunteering_services'
p3086
sS'451190051716608000'
p3087
S'other_useful_information'
p3088
sS'451187726402867200'
p3089
S'donation_needs_or_offers_or_volunteering_services'
p3090
sS'451187729976397824'
p3091
S'sympathy_and_emotional_support'
p3092
sS'451190135980179458'
p3093
S'not_related_or_irrelevant'
p3094
sS'451189975670083584'
p3095
S'not_related_or_irrelevant'
p3096
sS'451189664771489792'
p3097
S'not_related_or_irrelevant'
p3098
sS'451188244307120129'
p3099
S'caution_and_advice'
p3100
sS'451188537707085824'
p3101
S'other_useful_information'
p3102
sS'451190461412028416'
p3103
S'other_useful_information'
p3104
sS'451189208255045632'
p3105
S'not_related_or_irrelevant'
p3106
sS'451190046218260480'
p3107
S'sympathy_and_emotional_support'
p3108
sS'451189436085051392'
p3109
S'injured_or_dead_people'
p3110
sS'451187750213910528'
p3111
S'other_useful_information'
p3112
sS'451189983542390786'
p3113
S'displaced_people_and_evacuations'
p3114
sS'451187787199311872'
p3115
S'sympathy_and_emotional_support'
p3116
sS'451190239365988352'
p3117
S'other_useful_information'
p3118
sS'451189507015311360'
p3119
S'sympathy_and_emotional_support'
p3120
sS'451189646576590848'
p3121
S'other_useful_information'
p3122
sS'451190110311448576'
p3123
S'caution_and_advice'
p3124
sS'451190343376310272'
p3125
S'other_useful_information'
p3126
sS'451189814612615168'
p3127
S'displaced_people_and_evacuations'
p3128
sS'451188654984019968'
p3129
S'other_useful_information'
p3130
sS'451188883490091008'
p3131
S'other_useful_information'
p3132
sS'451188890775207936'
p3133
S'not_related_or_irrelevant'
p3134
sS'451188644729327616'
p3135
S'sympathy_and_emotional_support'
p3136
sS'451189734677553153'
p3137
S'not_related_or_irrelevant'
p3138
sS'451190094716612608'
p3139
S'other_useful_information'
p3140
sS'451188718246694913'
p3141
S'not_related_or_irrelevant'
p3142
sS'451188717898579968'
p3143
S'caution_and_advice'
p3144
sS'451190181459017728'
p3145
S'sympathy_and_emotional_support'
p3146
sS'451188933464834049'
p3147
S'sympathy_and_emotional_support'
p3148
sS'451187781172494336'
p3149
S'injured_or_dead_people'
p3150
sS'451189587017494528'
p3151
S'displaced_people_and_evacuations'
p3152
sS'451188644334669825'
p3153
S'other_useful_information'
p3154
sS'451187780555522048'
p3155
S'caution_and_advice'
p3156
sS'451189002033303553'
p3157
S'other_useful_information'
p3158
sS'451188815143526401'
p3159
S'sympathy_and_emotional_support'
p3160
sS'451188317673902080'
p3161
S'sympathy_and_emotional_support'
p3162
sS'451188426440597504'
p3163
S'sympathy_and_emotional_support'
p3164
sS'451188509089345536'
p3165
S'not_related_or_irrelevant'
p3166
sS'451189644319666176'
p3167
S'displaced_people_and_evacuations'
p3168
sS'451188039667441665'
p3169
S'other_useful_information'
p3170
sS'451188463359234048'
p3171
S'caution_and_advice'
p3172
sS'451190368495599617'
p3173
S'caution_and_advice'
p3174
sS'451190374456131584'
p3175
S'injured_or_dead_people'
p3176
sS'451189770924732417'
p3177
S'sympathy_and_emotional_support'
p3178
sS'451190468408123392'
p3179
S'other_useful_information'
p3180
sS'451187774310596609'
p3181
S'other_useful_information'
p3182
sS'451190241605341185'
p3183
S'sympathy_and_emotional_support'
p3184
sS'451187884486168576'
p3185
S'other_useful_information'
p3186
sS'451190348748845056'
p3187
S'sympathy_and_emotional_support'
p3188
sS'451190075867402240'
p3189
S'injured_or_dead_people'
p3190
sS'451188321062903809'
p3191
S'other_useful_information'
p3192
sS'451189547284459520'
p3193
S'sympathy_and_emotional_support'
p3194
sS'451187709956997120'
p3195
S'caution_and_advice'
p3196
sS'451190430474842112'
p3197
S'not_related_or_irrelevant'
p3198
sS'451188972404756481'
p3199
S'other_useful_information'
p3200
sS'451188089265094657'
p3201
S'other_useful_information'
p3202
sS'451188205006880768'
p3203
S'caution_and_advice'
p3204
sS'451189398785114112'
p3205
S'not_related_or_irrelevant'
p3206
sS'451190305119670272'
p3207
S'not_related_or_irrelevant'
p3208
sS'451189346801291265'
p3209
S'not_related_or_irrelevant'
p3210
sS'451189344942845952'
p3211
S'sympathy_and_emotional_support'
p3212
sS'451189479697424384'
p3213
S'not_related_or_irrelevant'
p3214
sS'451187993576230912'
p3215
S'sympathy_and_emotional_support'
p3216
sS'451187858842206209'
p3217
S'injured_or_dead_people'
p3218
sS'451188290008264705'
p3219
S'not_related_or_irrelevant'
p3220
sS'451188173914529792'
p3221
S'sympathy_and_emotional_support'
p3222
sS'451187693494759425'
p3223
S'other_useful_information'
p3224
sS'451188262694952960'
p3225
S'not_related_or_irrelevant'
p3226
sS'451189203888390144'
p3227
S'other_useful_information'
p3228
sS'451189563289907200'
p3229
S'sympathy_and_emotional_support'
p3230
sS'451189610333237248'
p3231
S'sympathy_and_emotional_support'
p3232
sS'451190429036195840'
p3233
S'displaced_people_and_evacuations'
p3234
sS'451187804056592384'
p3235
S'sympathy_and_emotional_support'
p3236
sS'451190504206524416'
p3237
S'not_related_or_irrelevant'
p3238
sS'451190168951607296'
p3239
S'injured_or_dead_people'
p3240
sS'451187871425130497'
p3241
S'caution_and_advice'
p3242
sS'451187788764168192'
p3243
S'caution_and_advice'
p3244
sS'451187910964809729'
p3245
S'not_related_or_irrelevant'
p3246
sS'451188300301475840'
p3247
S'other_useful_information'
p3248
sS'451187754198896640'
p3249
S'other_useful_information'
p3250
sS'451190504332333058'
p3251
S'injured_or_dead_people'
p3252
sS'451189318607175680'
p3253
S'other_useful_information'
p3254
sS'451190564479049728'
p3255
S'not_related_or_irrelevant'
p3256
sS'451188167140704256'
p3257
S'other_useful_information'
p3258
sS'451187889750028289'
p3259
S'injured_or_dead_people'
p3260
sS'451189752981913600'
p3261
S'not_related_or_irrelevant'
p3262
sS'451189320700166145'
p3263
S'sympathy_and_emotional_support'
p3264
sS'451187951045599232'
p3265
S'displaced_people_and_evacuations'
p3266
sS'451190385592000513'
p3267
S'not_related_or_irrelevant'
p3268
sS'451187770766020608'
p3269
S'other_useful_information'
p3270
sS'451187742668767234'
p3271
S'other_useful_information'
p3272
sS'451189963598471168'
p3273
S'other_useful_information'
p3274
sS'451188072688787456'
p3275
S'other_useful_information'
p3276
sS'451189154466910208'
p3277
S'other_useful_information'
p3278
sS'451189387057823746'
p3279
S'other_useful_information'
p3280
sS'451190173687369728'
p3281
S'other_useful_information'
p3282
sS'451187987641294848'
p3283
S'not_related_or_irrelevant'
p3284
sS'451188275726667777'
p3285
S'other_useful_information'
p3286
sS'451188913759989760'
p3287
S'injured_or_dead_people'
p3288
sS'451189348713910272'
p3289
S'sympathy_and_emotional_support'
p3290
sS'451189227871428609'
p3291
S'caution_and_advice'
p3292
sS'451188067517202432'
p3293
S'other_useful_information'
p3294
sS'451190338422460416'
p3295
S'caution_and_advice'
p3296
sS'451188420044681217'
p3297
S'sympathy_and_emotional_support'
p3298
sS'451190240821010432'
p3299
S'not_related_or_irrelevant'
p3300
sS'451189297018699777'
p3301
S'caution_and_advice'
p3302
sS'451189848045412353'
p3303
S'sympathy_and_emotional_support'
p3304
sS'451188395658575872'
p3305
S'not_related_or_irrelevant'
p3306
sS'451187799644184576'
p3307
S'injured_or_dead_people'
p3308
sS'451190156637138945'
p3309
S'other_useful_information'
p3310
sS'451188788627517440'
p3311
S'injured_or_dead_people'
p3312
sS'451190440239198208'
p3313
S'other_useful_information'
p3314
sS'451188960111636480'
p3315
S'sympathy_and_emotional_support'
p3316
sS'451190278016098304'
p3317
S'other_useful_information'
p3318
sS'451188990746849281'
p3319
S'other_useful_information'
p3320
sS'451187726008991744'
p3321
S'sympathy_and_emotional_support'
p3322
sS'451188261046583297'
p3323
S'injured_or_dead_people'
p3324
sS'451188511836602368'
p3325
S'sympathy_and_emotional_support'
p3326
sS'451189760132804608'
p3327
S'injured_or_dead_people'
p3328
sS'451188700282888192'
p3329
S'other_useful_information'
p3330
sS'451189262658981888'
p3331
S'other_useful_information'
p3332
sS'451189711596302337'
p3333
S'sympathy_and_emotional_support'
p3334
sS'451190373419732992'
p3335
S'sympathy_and_emotional_support'
p3336
sS'451188607064481792'
p3337
S'not_related_or_irrelevant'
p3338
sS'451190049317466112'
p3339
S'other_useful_information'
p3340
sS'451187736032976896'
p3341
S'infrastructure_and_utilities_damage'
p3342
sS'451190279165329410'
p3343
S'caution_and_advice'
p3344
sS'451190461323956224'
p3345
S'other_useful_information'
p3346
sS'451189836222066688'
p3347
S'other_useful_information'
p3348
sS'451189971135655936'
p3349
S'other_useful_information'
p3350
sS'451187710049652736'
p3351
S'sympathy_and_emotional_support'
p3352
sS'451189390920794112'
p3353
S'not_related_or_irrelevant'
p3354
sS'451189934666182656'
p3355
S'caution_and_advice'
p3356
sS'451189602360242176'
p3357
S'other_useful_information'
p3358
sS'451189035851993088'
p3359
S'other_useful_information'
p3360
sS'451187726151593984'
p3361
S'other_useful_information'
p3362
sS'451189916639440896'
p3363
S'other_useful_information'
p3364
sS'451189582898663426'
p3365
S'not_related_or_irrelevant'
p3366
sS'451187845605392385'
p3367
S'sympathy_and_emotional_support'
p3368
sS'451187673693044736'
p3369
S'not_related_or_irrelevant'
p3370
sS'451188176522981376'
p3371
S'other_useful_information'
p3372
sS'451188263714168832'
p3373
S'sympathy_and_emotional_support'
p3374
sS'451188617558245376'
p3375
S'other_useful_information'
p3376
sS'451189269575778305'
p3377
S'other_useful_information'
p3378
sS'451189876789362689'
p3379
S'other_useful_information'
p3380
sS'451190375877582848'
p3381
S'other_useful_information'
p3382
sS'451188292608749568'
p3383
S'sympathy_and_emotional_support'
p3384
sS'451188066523152384'
p3385
S'other_useful_information'
p3386
sS'451188115034501121'
p3387
S'not_related_or_irrelevant'
p3388
sS'451187908876439552'
p3389
S'injured_or_dead_people'
p3390
sS'451187873950097409'
p3391
S'caution_and_advice'
p3392
sS'451190091063779329'
p3393
S'other_useful_information'
p3394
sS'451187950886203392'
p3395
S'other_useful_information'
p3396
sS'451189062658174978'
p3397
S'sympathy_and_emotional_support'
p3398
sS'451189492817207296'
p3399
S'other_useful_information'
p3400
sS'451189454787461120'
p3401
S'injured_or_dead_people'
p3402
sS'451187816253251584'
p3403
S'other_useful_information'
p3404
sS'451189826469912577'
p3405
S'sympathy_and_emotional_support'
p3406
sS'451189206228795392'
p3407
S'other_useful_information'
p3408
sS'451187762259980288'
p3409
S'injured_or_dead_people'
p3410
sS'451188859838005248'
p3411
S'other_useful_information'
p3412
sS'451188615016497152'
p3413
S'caution_and_advice'
p3414
sS'451190474326298624'
p3415
S'missing_trapped_or_found_people'
p3416
sS'451187734154326016'
p3417
S'injured_or_dead_people'
p3418
sS'451188789516722177'
p3419
S'not_related_or_irrelevant'
p3420
sS'451187816329121792'
p3421
S'other_useful_information'
p3422
sS'451189952114876416'
p3423
S'other_useful_information'
p3424
sS'451190439941767169'
p3425
S'other_useful_information'
p3426
sS'451189640041865216'
p3427
S'not_related_or_irrelevant'
p3428
sS'451188641331548160'
p3429
S'other_useful_information'
p3430
sS'451188424511598592'
p3431
S'sympathy_and_emotional_support'
p3432
sS'451189894673870848'
p3433
S'sympathy_and_emotional_support'
p3434
sS'451189534404141057'
p3435
S'not_related_or_irrelevant'
p3436
sS'451188699842101248'
p3437
S'not_related_or_irrelevant'
p3438
sS'451190431049842688'
p3439
S'sympathy_and_emotional_support'
p3440
sS'451190449035030529'
p3441
S'not_related_or_irrelevant'
p3442
sS'451189768240766977'
p3443
S'sympathy_and_emotional_support'
p3444
sS'451190392403156992'
p3445
S'not_related_or_irrelevant'
p3446
sS'451189167448670208'
p3447
S'other_useful_information'
p3448
sS'451189822754152448'
p3449
S'caution_and_advice'
p3450
sS'451189433597829120'
p3451
S'sympathy_and_emotional_support'
p3452
sS'451187973590364160'
p3453
S'sympathy_and_emotional_support'
p3454
sS'451189977859121152'
p3455
S'sympathy_and_emotional_support'
p3456
sS'451188364243238912'
p3457
S'other_useful_information'
p3458
sS'451189653262303232'
p3459
S'other_useful_information'
p3460
sS'451189049923891201'
p3461
S'not_related_or_irrelevant'
p3462
sS'451189654659035137'
p3463
S'other_useful_information'
p3464
sS'451189655698821120'
p3465
S'other_useful_information'
p3466
sS'451189250143166464'
p3467
S'not_related_or_irrelevant'
p3468
sS'451188378957275136'
p3469
S'caution_and_advice'
p3470
sS'451189607627886592'
p3471
S'injured_or_dead_people'
p3472
sS'451189684601757696'
p3473
S'other_useful_information'
p3474
sS'451190439140261888'
p3475
S'sympathy_and_emotional_support'
p3476
sS'451189068311695360'
p3477
S'other_useful_information'
p3478
sS'451187987573796864'
p3479
S'injured_or_dead_people'
p3480
sS'451187772141744128'
p3481
S'caution_and_advice'
p3482
sS'451189256678293504'
p3483
S'not_related_or_irrelevant'
p3484
sS'451188364461359104'
p3485
S'caution_and_advice'
p3486
sS'451188551334379521'
p3487
S'other_useful_information'
p3488
sS'451189383715364865'
p3489
S'not_related_or_irrelevant'
p3490
sS'451187682694406144'
p3491
S'other_useful_information'
p3492
sS'451190270080876545'
p3493
S'displaced_people_and_evacuations'
p3494
sS'451189791552733185'
p3495
S'not_related_or_irrelevant'
p3496
sS'451189265079099392'
p3497
S'other_useful_information'
p3498
sS'451189668571516928'
p3499
S'not_related_or_irrelevant'
p3500
sS'451188271503405056'
p3501
S'other_useful_information'
p3502
sS'451188857665773568'
p3503
S'other_useful_information'
p3504
sS'451188049733771265'
p3505
S'not_related_or_irrelevant'
p3506
sS'451187669251280896'
p3507
S'sympathy_and_emotional_support'
p3508
sS'451188210539167744'
p3509
S'not_related_or_irrelevant'
p3510
sS'451188304575479808'
p3511
S'caution_and_advice'
p3512
sS'451190327135961088'
p3513
S'sympathy_and_emotional_support'
p3514
sS'451189032400076800'
p3515
S'sympathy_and_emotional_support'
p3516
sS'451187975192580097'
p3517
S'not_related_or_irrelevant'
p3518
sS'451188595890458624'
p3519
S'other_useful_information'
p3520
sS'451188888082472961'
p3521
S'sympathy_and_emotional_support'
p3522
sS'451189383677239296'
p3523
S'sympathy_and_emotional_support'
p3524
sS'451189257126703104'
p3525
S'other_useful_information'
p3526
sS'451190206532947968'
p3527
S'sympathy_and_emotional_support'
p3528
sS'451187849384439808'
p3529
S'sympathy_and_emotional_support'
p3530
sS'451189484063690752'
p3531
S'not_related_or_irrelevant'
p3532
sS'451188886002081792'
p3533
S'other_useful_information'
p3534
sS'451189013974880256'
p3535
S'sympathy_and_emotional_support'
p3536
sS'451190332827238400'
p3537
S'infrastructure_and_utilities_damage'
p3538
sS'451190432483905537'
p3539
S'sympathy_and_emotional_support'
p3540
sS'451189874154954752'
p3541
S'other_useful_information'
p3542
sS'451188772542357504'
p3543
S'sympathy_and_emotional_support'
p3544
sS'451187896977211392'
p3545
S'other_useful_information'
p3546
sS'451188082453536769'
p3547
S'displaced_people_and_evacuations'
p3548
sS'451188215396179969'
p3549
S'other_useful_information'
p3550
sS'451189990408466432'
p3551
S'injured_or_dead_people'
p3552
sS'451188950980624384'
p3553
S'other_useful_information'
p3554
sS'451189208708050944'
p3555
S'not_related_or_irrelevant'
p3556
sS'451190217387827200'
p3557
S'displaced_people_and_evacuations'
p3558
sS'451188400893493248'
p3559
S'not_related_or_irrelevant'
p3560
sS'451188485420900353'
p3561
S'other_useful_information'
p3562
sS'451189201644822528'
p3563
S'displaced_people_and_evacuations'
p3564
sS'451189394867630081'
p3565
S'caution_and_advice'
p3566
sS'451187957399953409'
p3567
S'caution_and_advice'
p3568
sS'451188626089865217'
p3569
S'sympathy_and_emotional_support'
p3570
sS'451189030362054656'
p3571
S'not_related_or_irrelevant'
p3572
sS'451188438621224960'
p3573
S'other_useful_information'
p3574
sS'451188683723386880'
p3575
S'sympathy_and_emotional_support'
p3576
sS'451190031504658432'
p3577
S'sympathy_and_emotional_support'
p3578
sS'451188583055884288'
p3579
S'caution_and_advice'
p3580
sS'451187673521483776'
p3581
S'sympathy_and_emotional_support'
p3582
sS'451190545767886848'
p3583
S'sympathy_and_emotional_support'
p3584
sS'451190176182968320'
p3585
S'not_related_or_irrelevant'
p3586
sS'451187835853225984'
p3587
S'not_related_or_irrelevant'
p3588
sS'451189021784694784'
p3589
S'sympathy_and_emotional_support'
p3590
sS'451189418456805376'
p3591
S'sympathy_and_emotional_support'
p3592
sS'451188364403023872'
p3593
S'other_useful_information'
p3594
sS'451189297434333184'
p3595
S'other_useful_information'
p3596
sS'451188699032596480'
p3597
S'other_useful_information'
p3598
sS'451189672647991296'
p3599
S'not_related_or_irrelevant'
p3600
sS'451188249982406656'
p3601
S'caution_and_advice'
p3602
sS'451190106246770688'
p3603
S'other_useful_information'
p3604
sS'451189078336094209'
p3605
S'other_useful_information'
p3606
sS'451188691038633984'
p3607
S'other_useful_information'
p3608
sS'451187891931070464'
p3609
S'injured_or_dead_people'
p3610
sS'451189618982264832'
p3611
S'not_related_or_irrelevant'
p3612
sS'451190417606717440'
p3613
S'sympathy_and_emotional_support'
p3614
sS'451189229352001539'
p3615
S'sympathy_and_emotional_support'
p3616
sS'451188715923451904'
p3617
S'displaced_people_and_evacuations'
p3618
sS'451189006379016193'
p3619
S'not_related_or_irrelevant'
p3620
sS'451189640834215937'
p3621
S'sympathy_and_emotional_support'
p3622
sS'451188402122391552'
p3623
S'not_related_or_irrelevant'
p3624
sS'451189928265674753'
p3625
S'other_useful_information'
p3626
sS'451187865582452736'
p3627
S'other_useful_information'
p3628
sS'451188487111180288'
p3629
S'other_useful_information'
p3630
sS'451189118223929346'
p3631
S'sympathy_and_emotional_support'
p3632
sS'451190507285127168'
p3633
S'not_related_or_irrelevant'
p3634
sS'451189731632898050'
p3635
S'other_useful_information'
p3636
sS'451187915859582977'
p3637
S'injured_or_dead_people'
p3638
sS'451189497972420609'
p3639
S'caution_and_advice'
p3640
sS'451189346226302976'
p3641
S'not_related_or_irrelevant'
p3642
sS'451189078218661888'
p3643
S'caution_and_advice'
p3644
sS'451189079007588352'
p3645
S'sympathy_and_emotional_support'
p3646
sS'451187952740474881'
p3647
S'other_useful_information'
p3648
sS'451189953721294848'
p3649
S'sympathy_and_emotional_support'
p3650
sS'451190456638926848'
p3651
S'not_related_or_irrelevant'
p3652
sS'451189808426405890'
p3653
S'not_related_or_irrelevant'
p3654
sS'451190324636176385'
p3655
S'other_useful_information'
p3656
sS'451189338261307392'
p3657
S'other_useful_information'
p3658
sS'451189651295203328'
p3659
S'not_related_or_irrelevant'
p3660
sS'451188757249531904'
p3661
S'other_useful_information'
p3662
sS'451188052459655168'
p3663
S'caution_and_advice'
p3664
sS'451189086301466625'
p3665
S'injured_or_dead_people'
p3666
sS'451190247787749376'
p3667
S'other_useful_information'
p3668
sS'451189771009032192'
p3669
S'sympathy_and_emotional_support'
p3670
sS'451190383779655681'
p3671
S'injured_or_dead_people'
p3672
sS'451187742106337280'
p3673
S'other_useful_information'
p3674
sS'451188596448325632'
p3675
S'not_related_or_irrelevant'
p3676
sS'451188788622929920'
p3677
S'sympathy_and_emotional_support'
p3678
sS'451188060172988416'
p3679
S'not_related_or_irrelevant'
p3680
sS'451190225415327744'
p3681
S'not_related_or_irrelevant'
p3682
sS'451189680923344896'
p3683
S'not_related_or_irrelevant'
p3684
sS'451188995259523072'
p3685
S'other_useful_information'
p3686
sS'451190368760262656'
p3687
S'injured_or_dead_people'
p3688
sS'451188498322968576'
p3689
S'caution_and_advice'
p3690
sS'451190451874574336'
p3691
S'other_useful_information'
p3692
sS'451188972396351488'
p3693
S'other_useful_information'
p3694
sS'451188212405260288'
p3695
S'not_related_or_irrelevant'
p3696
sS'451189590641348609'
p3697
S'other_useful_information'
p3698
sS'451188326306164736'
p3699
S'other_useful_information'
p3700
sS'451189937707040769'
p3701
S'sympathy_and_emotional_support'
p3702
sS'451188320815443968'
p3703
S'not_related_or_irrelevant'
p3704
sS'451188516748156930'
p3705
S'not_related_or_irrelevant'
p3706
sS'451188029550383104'
p3707
S'caution_and_advice'
p3708
sS'451188390281879553'
p3709
S'caution_and_advice'
p3710
sS'451188316986413056'
p3711
S'sympathy_and_emotional_support'
p3712
sS'451187748804648960'
p3713
S'other_useful_information'
p3714
sS'451188300599263232'
p3715
S'sympathy_and_emotional_support'
p3716
sS'451188905929617408'
p3717
S'caution_and_advice'
p3718
sS'451188057719709696'
p3719
S'not_related_or_irrelevant'
p3720
sS'451189221500280832'
p3721
S'sympathy_and_emotional_support'
p3722
sS'451187854740185088'
p3723
S'other_useful_information'
p3724
sS'451189661726023680'
p3725
S'sympathy_and_emotional_support'
p3726
sS'451190948413046785'
p3727
S'not_related_or_irrelevant'
p3728
sS'451188796759875585'
p3729
S'sympathy_and_emotional_support'
p3730
sS'451190250598334464'
p3731
S'sympathy_and_emotional_support'
p3732
sS'451190372245323776'
p3733
S'other_useful_information'
p3734
sS'451188730875760640'
p3735
S'not_related_or_irrelevant'
p3736
sS'451189239209029632'
p3737
S'not_related_or_irrelevant'
p3738
sS'451188793685852162'
p3739
S'other_useful_information'
p3740
sS'451190480055721985'
p3741
S'other_useful_information'
p3742
sS'451188648973574144'
p3743
S'sympathy_and_emotional_support'
p3744
sS'451188762291474433'
p3745
S'other_useful_information'
p3746
sS'451188867342012416'
p3747
S'not_related_or_irrelevant'
p3748
sS'451187865394094080'
p3749
S'injured_or_dead_people'
p3750
sS'451188321025544194'
p3751
S'other_useful_information'
p3752
sS'451189562132271104'
p3753
S'sympathy_and_emotional_support'
p3754
sS'451189087467085826'
p3755
S'not_related_or_irrelevant'
p3756
sS'451190317971034113'
p3757
S'sympathy_and_emotional_support'
p3758
sS'451189199262060544'
p3759
S'other_useful_information'
p3760
sS'451190499206901762'
p3761
S'injured_or_dead_people'
p3762
sS'451189783411589120'
p3763
S'sympathy_and_emotional_support'
p3764
sS'451190214753800192'
p3765
S'not_related_or_irrelevant'
p3766
sS'451189391193800704'
p3767
S'other_useful_information'
p3768
sS'451188036563632128'
p3769
S'other_useful_information'
p3770
sS'451190092233973761'
p3771
S'not_related_or_irrelevant'
p3772
sS'451188051071762432'
p3773
S'not_related_or_irrelevant'
p3774
sS'451188799012634626'
p3775
S'not_related_or_irrelevant'
p3776
sS'451187769478348800'
p3777
S'other_useful_information'
p3778
sS'451188122210942976'
p3779
S'caution_and_advice'
p3780
sS'451189484130824192'
p3781
S'not_related_or_irrelevant'
p3782
sS'451188820617478145'
p3783
S'caution_and_advice'
p3784
sS'451188383633534976'
p3785
S'sympathy_and_emotional_support'
p3786
sS'451189814319390721'
p3787
S'other_useful_information'
p3788
sS'451190216854732801'
p3789
S'other_useful_information'
p3790
sS'451189151439011841'
p3791
S'other_useful_information'
p3792
sS'451189594696867841'
p3793
S'other_useful_information'
p3794
sS'451188890817159168'
p3795
S'sympathy_and_emotional_support'
p3796
sS'451189244443508736'
p3797
S'not_related_or_irrelevant'
p3798
sS'451190412833611776'
p3799
S'not_related_or_irrelevant'
p3800
sS'451189451575021569'
p3801
S'sympathy_and_emotional_support'
p3802
sS'451187732866682880'
p3803
S'sympathy_and_emotional_support'
p3804
sS'451187618697736192'
p3805
S'sympathy_and_emotional_support'
p3806
sS'451188081614266368'
p3807
S'injured_or_dead_people'
p3808
sS'451189265058500608'
p3809
S'caution_and_advice'
p3810
sS'451188141425430528'
p3811
S'sympathy_and_emotional_support'
p3812
sS'451188831518457856'
p3813
S'other_useful_information'
p3814
sS'451189526610710528'
p3815
S'other_useful_information'
p3816
sS'451188141555073024'
p3817
S'caution_and_advice'
p3818
sS'451190307145531392'
p3819
S'sympathy_and_emotional_support'
p3820
sS'451190049867321344'
p3821
S'not_related_or_irrelevant'
p3822
sS'451189462815744000'
p3823
S'injured_or_dead_people'
p3824
sS'451188300012077056'
p3825
S'infrastructure_and_utilities_damage'
p3826
sS'451188938942607361'
p3827
S'caution_and_advice'
p3828
sS'451189563285704704'
p3829
S'other_useful_information'
p3830
sS'451188392676433921'
p3831
S'injured_or_dead_people'
p3832
sS'451189306837975040'
p3833
S'other_useful_information'
p3834
sS'451189100918235137'
p3835
S'sympathy_and_emotional_support'
p3836
sS'451189978752880640'
p3837
S'caution_and_advice'
p3838
sS'451188890469019648'
p3839
S'caution_and_advice'
p3840
sS'451188540874174465'
p3841
S'sympathy_and_emotional_support'
p3842
sS'451189935144304640'
p3843
S'caution_and_advice'
p3844
sS'451190505695899648'
p3845
S'not_related_or_irrelevant'
p3846
sS'451188644334686208'
p3847
S'sympathy_and_emotional_support'
p3848
sS'451188019488235520'
p3849
S'other_useful_information'
p3850
sS'451189248511598593'
p3851
S'other_useful_information'
p3852
sS'451187681817395200'
p3853
S'caution_and_advice'
p3854
sS'451189558231990272'
p3855
S'sympathy_and_emotional_support'
p3856
sS'451188390332231681'
p3857
S'sympathy_and_emotional_support'
p3858
sS'451188794528518145'
p3859
S'other_useful_information'
p3860
sS'451189284650119168'
p3861
S'other_useful_information'
p3862
sS'451189819452846080'
p3863
S'not_related_or_irrelevant'
p3864
sS'451187742857109504'
p3865
S'other_useful_information'
p3866
sS'451189109516943360'
p3867
S'caution_and_advice'
p3868
sS'451189179930521600'
p3869
S'not_related_or_irrelevant'
p3870
sS'451188884366692353'
p3871
S'sympathy_and_emotional_support'
p3872
sS'451187875963760642'
p3873
S'sympathy_and_emotional_support'
p3874
sS'451189342627590145'
p3875
S'other_useful_information'
p3876
sS'451190422774501376'
p3877
S'not_related_or_irrelevant'
p3878
sS'451190441489469440'
p3879
S'other_useful_information'
p3880
sS'451188730410172417'
p3881
S'injured_or_dead_people'
p3882
sS'451187810771288064'
p3883
S'not_related_or_irrelevant'
p3884
sS'451190377325019136'
p3885
S'other_useful_information'
p3886
sS'451188927605391360'
p3887
S'not_related_or_irrelevant'
p3888
sS'451190364922068992'
p3889
S'sympathy_and_emotional_support'
p3890
sS'451189513138995201'
p3891
S'sympathy_and_emotional_support'
p3892
sS'451187878438375424'
p3893
S'infrastructure_and_utilities_damage'
p3894
sS'451190115197788160'
p3895
S'other_useful_information'
p3896
sS'451189849689583616'
p3897
S'sympathy_and_emotional_support'
p3898
sS'451187835534458880'
p3899
S'not_related_or_irrelevant'
p3900
sS'451189851711225856'
p3901
S'not_related_or_irrelevant'
p3902
sS'451190532749139969'
p3903
S'donation_needs_or_offers_or_volunteering_services'
p3904
sS'451187644048084992'
p3905
S'sympathy_and_emotional_support'
p3906
sS'451189947060744193'
p3907
S'injured_or_dead_people'
p3908
sS'451189334419709952'
p3909
S'sympathy_and_emotional_support'
p3910
sS'451189786599239680'
p3911
S'not_related_or_irrelevant'
p3912
sS'451189241427419136'
p3913
S'not_related_or_irrelevant'
p3914
sS'451190172592652288'
p3915
S'other_useful_information'
p3916
sS'451188628212158465'
p3917
S'sympathy_and_emotional_support'
p3918
sS'451189888587542528'
p3919
S'sympathy_and_emotional_support'
p3920
sS'451190206792601600'
p3921
S'not_related_or_irrelevant'
p3922
sS'451189868316459008'
p3923
S'sympathy_and_emotional_support'
p3924
sS'451190489996226560'
p3925
S'sympathy_and_emotional_support'
p3926
sS'451188471147683840'
p3927
S'caution_and_advice'
p3928
sS'451194785487790080'
p3929
S'caution_and_advice'
p3930
sS'451189952131653632'
p3931
S'sympathy_and_emotional_support'
p3932
sS'451187842723479552'
p3933
S'other_useful_information'
p3934
sS'451188423647195136'
p3935
S'sympathy_and_emotional_support'
p3936
sS'451189355285970944'
p3937
S'injured_or_dead_people'
p3938
sS'451188558687002624'
p3939
S'other_useful_information'
p3940
sS'451188173607948288'
p3941
S'other_useful_information'
p3942
sS'451190033781760000'
p3943
S'not_related_or_irrelevant'
p3944
sS'451189541458546688'
p3945
S'not_related_or_irrelevant'
p3946
sS'451187985938403328'
p3947
S'not_related_or_irrelevant'
p3948
sS'451189864814608384'
p3949
S'other_useful_information'
p3950
sS'451189585901416450'
p3951
S'displaced_people_and_evacuations'
p3952
sS'451190095664934912'
p3953
S'injured_or_dead_people'
p3954
sS'451189015123734528'
p3955
S'sympathy_and_emotional_support'
p3956
sS'451189467173232641'
p3957
S'sympathy_and_emotional_support'
p3958
sS'451189219034021889'
p3959
S'sympathy_and_emotional_support'
p3960
sS'451188000630648832'
p3961
S'caution_and_advice'
p3962
sS'451188798928732162'
p3963
S'other_useful_information'
p3964
sS'451190547450187776'
p3965
S'not_related_or_irrelevant'
p3966
sS'451190197120933888'
p3967
S'sympathy_and_emotional_support'
p3968
sS'451190319434854401'
p3969
S'caution_and_advice'
p3970
sS'451190322199281664'
p3971
S'not_related_or_irrelevant'
p3972
sS'451188848241164288'
p3973
S'sympathy_and_emotional_support'
p3974
sS'451189689135820800'
p3975
S'other_useful_information'
p3976
sS'451189043712524288'
p3977
S'sympathy_and_emotional_support'
p3978
sS'451189147618004992'
p3979
S'caution_and_advice'
p3980
sS'451188325353668608'
p3981
S'other_useful_information'
p3982
sS'451188093052137472'
p3983
S'other_useful_information'
p3984
sS'451188233305473024'
p3985
S'other_useful_information'
p3986
sS'451189290731462657'
p3987
S'other_useful_information'
p3988
sS'451189807411367936'
p3989
S'not_related_or_irrelevant'
p3990
sS'451188384849854464'
p3991
S'other_useful_information'
p3992
sS'451190274316722176'
p3993
S'sympathy_and_emotional_support'
p3994
sS'451188925642457088'
p3995
S'not_related_or_irrelevant'
p3996
sS'451189554922676225'
p3997
S'sympathy_and_emotional_support'
p3998
sS'451187811719192576'
p3999
S'sympathy_and_emotional_support'
p4000
sS'451188878733770752'
p4001
S'other_useful_information'
p4002
sS'451189454347042817'
p4003
S'sympathy_and_emotional_support'
p4004
sS'451187912558657537'
p4005
S'other_useful_information'
p4006
sS'451188741151805440'
p4007
S'sympathy_and_emotional_support'
p4008
sS'451190030292090880'
p4009
S'sympathy_and_emotional_support'
p4010
sS'451187792538648577'
p4011
S'caution_and_advice'
p4012
sS'451187936177176576'
p4013
S'other_useful_information'
p4014
sS'451187750231093248'
p4015
S'other_useful_information'
p4016
sS'451189755561394176'
p4017
S'other_useful_information'
p4018
sS'451190054476464128'
p4019
S'sympathy_and_emotional_support'
p4020
s.