(dp0
S'503866526676819969'
p1
S'Infrastructure and utilities'
p2
sS'503900094295330816'
p3
S'Infrastructure and utilities'
p4
sS'503884812747567104'
p5
S'Infrastructure and utilities'
p6
sS'504277259067203584'
p7
S'Other relevant information'
p8
sS'504284375115370496'
p9
S'Other relevant information'
p10
sS'503904032788721664'
p11
S'Not related or irrelevant'
p12
sS'504285218384011264'
p13
S'Other relevant information'
p14
sS'503902370384715776'
p15
S'Caution and advice'
p16
sS'503867814705659904'
p17
S'Not related or irrelevant'
p18
sS'504269382974185472'
p19
S'Infrastructure and utilities'
p20
sS'503900887946113024'
p21
S'Infrastructure and utilities'
p22
sS'503904114418253824'
p23
S'Other relevant information'
p24
sS'503887074442096641'
p25
S'Infrastructure and utilities'
p26
sS'503889349046325248'
p27
S'Infrastructure and utilities'
p28
sS'504280048946675714'
p29
S'Other relevant information'
p30
sS'503866926330679296'
p31
S'Injured or dead people'
p32
sS'503866635745099776'
p33
S'Infrastructure and utilities'
p34
sS'503900431836536832'
p35
S'Infrastructure and utilities'
p36
sS'504283385800323072'
p37
S'Other relevant information'
p38
sS'504280166873313280'
p39
S'Money'
p40
sS'503893315570257920'
p41
S'Infrastructure and utilities'
p42
sS'504282700773998593'
p43
S'Money'
p44
sS'504282421404000256'
p45
S'Infrastructure and utilities'
p46
sS'504274968352686081'
p47
S'Other relevant information'
p48
sS'503871994497363968'
p49
S'Other relevant information'
p50
sS'503866427322159104'
p51
S'Other relevant information'
p52
sS'503876231935569920'
p53
S'Infrastructure and utilities'
p54
sS'503902243633233920'
p55
S'Not related or irrelevant'
p56
sS'503870846172401664'
p57
S'Infrastructure and utilities'
p58
sS'503867001794600960'
p59
S'Infrastructure and utilities'
p60
sS'503867092547141632'
p61
S'Infrastructure and utilities'
p62
sS'503868161159331840'
p63
S'Infrastructure and utilities'
p64
sS'504267062076637187'
p65
S'Infrastructure and utilities'
p66
sS'504272394903515137'
p67
S'Other relevant information'
p68
sS'503890296510226432'
p69
S'Infrastructure and utilities'
p70
sS'503870909900685312'
p71
S'Injured or dead people'
p72
sS'503904423866019840'
p73
S'Injured or dead people'
p74
sS'503880621656010752'
p75
S'Infrastructure and utilities'
p76
sS'503866707568373760'
p77
S'Other relevant information'
p78
sS'504267290360418304'
p79
S'Infrastructure and utilities'
p80
sS'504278354410090498'
p81
S'Other relevant information'
p82
sS'503869050322038784'
p83
S'Injured or dead people'
p84
sS'503868704782708737'
p85
S'Other relevant information'
p86
sS'504268191376637953'
p87
S'Other relevant information'
p88
sS'503868013762715649'
p89
S'Other relevant information'
p90
sS'503903062541352961'
p91
S'Other relevant information'
p92
sS'503871574731395073'
p93
S'Not related or irrelevant'
p94
sS'503871312536682497'
p95
S'Other relevant information'
p96
sS'503873045098803200'
p97
S'Injured or dead people'
p98
sS'503871018448867328'
p99
S'Other relevant information'
p100
sS'503880239911825409'
p101
S'Other relevant information'
p102
sS'504276332574814208'
p103
S'Other relevant information'
p104
sS'503905177754021889'
p105
S'Caution and advice'
p106
sS'503872042283048961'
p107
S'Other relevant information'
p108
sS'504282142197956608'
p109
S'Other relevant information'
p110
sS'503888782756552705'
p111
S'Caution and advice'
p112
sS'503867657628962817'
p113
S'Sympathy and emotional support'
p114
sS'504262622447796225'
p115
S'Other relevant information'
p116
sS'503868176086478849'
p117
S'Other relevant information'
p118
sS'503866815203012608'
p119
S'Infrastructure and utilities'
p120
sS'504278069717135360'
p121
S'Other relevant information'
p122
sS'503870766387953664'
p123
S'Other relevant information'
p124
sS'503894916590608384'
p125
S'Infrastructure and utilities'
p126
sS'503898739715895296'
p127
S'Other relevant information'
p128
sS'503904714254462977'
p129
S'Other relevant information'
p130
sS'503869162360274945'
p131
S'Other relevant information'
p132
sS'503868128103653376'
p133
S'Infrastructure and utilities'
p134
sS'503866910166253568'
p135
S'Infrastructure and utilities'
p136
sS'503904634873065472'
p137
S'Other relevant information'
p138
sS'503871989778763777'
p139
S'Other relevant information'
p140
sS'503871841740414977'
p141
S'Other relevant information'
p142
sS'504267598448431104'
p143
S'Other relevant information'
p144
sS'503868895691014144'
p145
S'Caution and advice'
p146
sS'503899964087742464'
p147
S'Infrastructure and utilities'
p148
sS'503888762368049153'
p149
S'Infrastructure and utilities'
p150
sS'503866373961809920'
p151
S'Other relevant information'
p152
sS'503905342229467136'
p153
S'Infrastructure and utilities'
p154
sS'504263521849606144'
p155
S'Other relevant information'
p156
sS'503866484461170688'
p157
S'Not related or irrelevant'
p158
sS'503872457284280320'
p159
S'Infrastructure and utilities'
p160
sS'504262232251695104'
p161
S'Not related or irrelevant'
p162
sS'503872975917965313'
p163
S'Other relevant information'
p164
sS'503899385001177088'
p165
S'Personal updates'
p166
sS'504264948491776000'
p167
S'Other relevant information'
p168
sS'503867097060225024'
p169
S'Infrastructure and utilities'
p170
sS'503905394599944192'
p171
S'Injured or dead people'
p172
sS'503901263587577857'
p173
S'Infrastructure and utilities'
p174
sS'503894981354864642'
p175
S'Infrastructure and utilities'
p176
sS'503870722092310528'
p177
S'Infrastructure and utilities'
p178
sS'504286461290885120'
p179
S'Other relevant information'
p180
sS'503871766653976577'
p181
S'Infrastructure and utilities'
p182
sS'504266724703608833'
p183
S'Other relevant information'
p184
sS'504284669052215296'
p185
S'Other relevant information'
p186
sS'504282313275211777'
p187
S'Other relevant information'
p188
sS'503871869532246016'
p189
S'Infrastructure and utilities'
p190
sS'503867580495327232'
p191
S'Other relevant information'
p192
sS'503870772213870592'
p193
S'Infrastructure and utilities'
p194
sS'503897083418771456'
p195
S'Infrastructure and utilities'
p196
sS'503868977496752128'
p197
S'Other relevant information'
p198
sS'503867893038473216'
p199
S'Other relevant information'
p200
sS'503904994840817664'
p201
S'Other relevant information'
p202
sS'503867402023481345'
p203
S'Injured or dead people'
p204
sS'503904427204702208'
p205
S'Other relevant information'
p206
sS'504262286081802240'
p207
S'Other relevant information'
p208
sS'503872290614833153'
p209
S'Other relevant information'
p210
sS'503872460111228929'
p211
S'Other relevant information'
p212
sS'503894692845469698'
p213
S'Infrastructure and utilities'
p214
sS'504276822565990400'
p215
S'Infrastructure and utilities'
p216
sS'503882088169627649'
p217
S'Injured or dead people'
p218
sS'503868861427769344'
p219
S'Not related or irrelevant'
p220
sS'503871361488809984'
p221
S'Sympathy and emotional support'
p222
sS'503872978119962624'
p223
S'Other relevant information'
p224
sS'503898115389550593'
p225
S'Infrastructure and utilities'
p226
sS'504269942254886912'
p227
S'Other relevant information'
p228
sS'503871125491699713'
p229
S'Infrastructure and utilities'
p230
sS'503900618218831872'
p231
S'Injured or dead people'
p232
sS'503874511435870208'
p233
S'Infrastructure and utilities'
p234
sS'503867895240073217'
p235
S'Other relevant information'
p236
sS'503870731831111680'
p237
S'Infrastructure and utilities'
p238
sS'503872462572879872'
p239
S'Infrastructure and utilities'
p240
sS'504268112531689473'
p241
S'Other relevant information'
p242
sS'504266643774922754'
p243
S'Infrastructure and utilities'
p244
sS'503870913818152960'
p245
S'Other relevant information'
p246
sS'503895929632464897'
p247
S'Injured or dead people'
p248
sS'503905239087726592'
p249
S'Infrastructure and utilities'
p250
sS'503899041172684800'
p251
S'Infrastructure and utilities'
p252
sS'504272837927264256'
p253
S'Infrastructure and utilities'
p254
sS'503872506974179328'
p255
S'Other relevant information'
p256
sS'503898935858315264'
p257
S'Infrastructure and utilities'
p258
sS'504269009399717889'
p259
S'Infrastructure and utilities'
p260
sS'504282766112858112'
p261
S'Not related or irrelevant'
p262
sS'504286662059233282'
p263
S'Money'
p264
sS'503881740294029312'
p265
S'Infrastructure and utilities'
p266
sS'504269111984021504'
p267
S'Money'
p268
sS'503904704649117696'
p269
S'Other relevant information'
p270
sS'503867696455647232'
p271
S'Not related or irrelevant'
p272
sS'503901534158348288'
p273
S'Other relevant information'
p274
sS'504270975513677824'
p275
S'Not related or irrelevant'
p276
sS'503870746134077440'
p277
S'Other relevant information'
p278
sS'503871631421612034'
p279
S'Other relevant information'
p280
sS'503886618538045441'
p281
S'Infrastructure and utilities'
p282
sS'503869051161296896'
p283
S'Other relevant information'
p284
sS'504278262269624320'
p285
S'Other relevant information'
p286
sS'503880441821016064'
p287
S'Money'
p288
sS'503866885629554688'
p289
S'Infrastructure and utilities'
p290
sS'503903766920183808'
p291
S'Injured or dead people'
p292
sS'503892296123695104'
p293
S'Injured or dead people'
p294
sS'503870779709460481'
p295
S'Infrastructure and utilities'
p296
sS'504277456052711424'
p297
S'Other relevant information'
p298
sS'503867552536489985'
p299
S'Sympathy and emotional support'
p300
sS'503866614161211392'
p301
S'Other relevant information'
p302
sS'504269898931908608'
p303
S'Personal updates'
p304
sS'503870730308972544'
p305
S'Other relevant information'
p306
sS'504281569385672706'
p307
S'Other relevant information'
p308
sS'503899600080474113'
p309
S'Infrastructure and utilities'
p310
sS'503867483795619840'
p311
S'Other relevant information'
p312
sS'503868877185380352'
p313
S'Other relevant information'
p314
sS'504261714947604480'
p315
S'Other relevant information'
p316
sS'503891402950860800'
p317
S'Infrastructure and utilities'
p318
sS'503868183518797824'
p319
S'Infrastructure and utilities'
p320
sS'503868153253089280'
p321
S'Other relevant information'
p322
sS'503899476344320000'
p323
S'Not related or irrelevant'
p324
sS'504278171781713921'
p325
S'Infrastructure and utilities'
p326
sS'503872580957126658'
p327
S'Other relevant information'
p328
sS'503903685672722432'
p329
S'Infrastructure and utilities'
p330
sS'504277309478551552'
p331
S'Other relevant information'
p332
sS'503872245820039168'
p333
S'Injured or dead people'
p334
sS'503881266220240896'
p335
S'Other relevant information'
p336
sS'503868170290331648'
p337
S'Other relevant information'
p338
sS'503892181262684161'
p339
S'Not related or irrelevant'
p340
sS'503895109671219201'
p341
S'Other relevant information'
p342
sS'503868821736681472'
p343
S'Infrastructure and utilities'
p344
sS'503866453280317440'
p345
S'Not related or irrelevant'
p346
sS'503903654731341824'
p347
S'Injured or dead people'
p348
sS'504271130015059968'
p349
S'Other relevant information'
p350
sS'503867406323056640'
p351
S'Other relevant information'
p352
sS'503904931695185920'
p353
S'Other relevant information'
p354
sS'503866345822244864'
p355
S'Infrastructure and utilities'
p356
sS'503876850452795392'
p357
S'Personal updates'
p358
sS'503869044077129728'
p359
S'Other relevant information'
p360
sS'503868275726376960'
p361
S'Other relevant information'
p362
sS'503868106041610241'
p363
S'Other relevant information'
p364
sS'503867944213184512'
p365
S'Infrastructure and utilities'
p366
s.