(dp0
S'503643482456457216'
p1
S'injured_or_dead_people'
p2
sS'503643898431164416'
p3
S'other_useful_information'
p4
sS'503644933589184512'
p5
S'other_useful_information'
p6
sS'503644239549706240'
p7
S'other_useful_information'
p8
sS'503645338574417920'
p9
S'other_useful_information'
p10
sS'503643900154621952'
p11
S'sympathy_and_emotional_support'
p12
sS'503643126141947904'
p13
S'other_useful_information'
p14
sS'503644361478131716'
p15
S'not_related_or_irrelevant'
p16
sS'503643893536022529'
p17
S'other_useful_information'
p18
sS'503643894794715136'
p19
S'other_useful_information'
p20
sS'503643805061373952'
p21
S'donation_needs_or_offers_or_volunteering_services'
p22
sS'503643323173969920'
p23
S'sympathy_and_emotional_support'
p24
sS'503643164834803712'
p25
S'sympathy_and_emotional_support'
p26
sS'503644030333231105'
p27
S'infrastructure_and_utilities_damage'
p28
sS'503645317535780864'
p29
S'other_useful_information'
p30
sS'503644161346904064'
p31
S'other_useful_information'
p32
sS'503644613216047105'
p33
S'sympathy_and_emotional_support'
p34
sS'503643080005013505'
p35
S'other_useful_information'
p36
sS'503644275419402240'
p37
S'injured_or_dead_people'
p38
sS'503645201173200897'
p39
S'infrastructure_and_utilities_damage'
p40
sS'503645457663283200'
p41
S'other_useful_information'
p42
sS'503643505026011136'
p43
S'other_useful_information'
p44
sS'503645427162296321'
p45
S'other_useful_information'
p46
sS'503643278441324544'
p47
S'infrastructure_and_utilities_damage'
p48
sS'503644292657606657'
p49
S'sympathy_and_emotional_support'
p50
sS'503643453633613825'
p51
S'infrastructure_and_utilities_damage'
p52
sS'503645439120248832'
p53
S'other_useful_information'
p54
sS'503643456133419008'
p55
S'other_useful_information'
p56
sS'503645577419444224'
p57
S'donation_needs_or_offers_or_volunteering_services'
p58
sS'503644043637555200'
p59
S'other_useful_information'
p60
sS'503643138968133632'
p61
S'other_useful_information'
p62
sS'503643550391603200'
p63
S'caution_and_advice'
p64
sS'503643309622181889'
p65
S'infrastructure_and_utilities_damage'
p66
sS'503643156358115328'
p67
S'infrastructure_and_utilities_damage'
p68
sS'503643476899405824'
p69
S'other_useful_information'
p70
sS'503643334280482816'
p71
S'other_useful_information'
p72
sS'503643149374205952'
p73
S'other_useful_information'
p74
sS'503645039726448640'
p75
S'donation_needs_or_offers_or_volunteering_services'
p76
sS'503644148734251008'
p77
S'infrastructure_and_utilities_damage'
p78
sS'503644029440229376'
p79
S'other_useful_information'
p80
sS'503644904904720384'
p81
S'sympathy_and_emotional_support'
p82
sS'503644884822425600'
p83
S'other_useful_information'
p84
sS'503643514505527297'
p85
S'injured_or_dead_people'
p86
sS'503645634167980032'
p87
S'infrastructure_and_utilities_damage'
p88
sS'503645548793307136'
p89
S'donation_needs_or_offers_or_volunteering_services'
p90
sS'503643746211090432'
p91
S'caution_and_advice'
p92
sS'503644566856015873'
p93
S'infrastructure_and_utilities_damage'
p94
sS'503643467160248320'
p95
S'other_useful_information'
p96
sS'503643469228019712'
p97
S'other_useful_information'
p98
sS'503644469913059329'
p99
S'other_useful_information'
p100
sS'503644573189410816'
p101
S'injured_or_dead_people'
p102
sS'503644705117065216'
p103
S'other_useful_information'
p104
sS'503644720724074496'
p105
S'other_useful_information'
p106
sS'503645147146383360'
p107
S'other_useful_information'
p108
sS'503644486044745729'
p109
S'injured_or_dead_people'
p110
sS'503643673335054336'
p111
S'injured_or_dead_people'
p112
sS'503643176272265216'
p113
S'other_useful_information'
p114
sS'503643187034853376'
p115
S'caution_and_advice'
p116
sS'503643460726173696'
p117
S'injured_or_dead_people'
p118
sS'503643767325605888'
p119
S'not_related_or_irrelevant'
p120
sS'503643753245331456'
p121
S'other_useful_information'
p122
sS'503643468510822400'
p123
S'other_useful_information'
p124
sS'503643652628180992'
p125
S'other_useful_information'
p126
sS'503645199026106368'
p127
S'injured_or_dead_people'
p128
sS'503643895666720768'
p129
S'other_useful_information'
p130
sS'503645308270567424'
p131
S'infrastructure_and_utilities_damage'
p132
sS'503644780937895937'
p133
S'infrastructure_and_utilities_damage'
p134
sS'503644146390024192'
p135
S'sympathy_and_emotional_support'
p136
sS'503644073287512065'
p137
S'other_useful_information'
p138
sS'503643770739781633'
p139
S'infrastructure_and_utilities_damage'
p140
sS'503643342195138563'
p141
S'other_useful_information'
p142
sS'503645419121803264'
p143
S'other_useful_information'
p144
sS'503645521039593472'
p145
S'infrastructure_and_utilities_damage'
p146
sS'503643535057227776'
p147
S'other_useful_information'
p148
sS'503643501255720961'
p149
S'other_useful_information'
p150
sS'503644906485997568'
p151
S'infrastructure_and_utilities_damage'
p152
sS'503644132137762816'
p153
S'infrastructure_and_utilities_damage'
p154
sS'503644625840914433'
p155
S'infrastructure_and_utilities_damage'
p156
sS'503644644480000000'
p157
S'other_useful_information'
p158
sS'503644319153004544'
p159
S'other_useful_information'
p160
sS'503644183811592192'
p161
S'infrastructure_and_utilities_damage'
p162
sS'503645430110900224'
p163
S'donation_needs_or_offers_or_volunteering_services'
p164
sS'503643001185636352'
p165
S'infrastructure_and_utilities_damage'
p166
sS'503644187628040192'
p167
S'other_useful_information'
p168
sS'503644496014213120'
p169
S'donation_needs_or_offers_or_volunteering_services'
p170
sS'503645562223468544'
p171
S'other_useful_information'
p172
sS'503645362125414400'
p173
S'injured_or_dead_people'
p174
sS'503643684785487873'
p175
S'infrastructure_and_utilities_damage'
p176
sS'503643453419311104'
p177
S'caution_and_advice'
p178
sS'503644450779054081'
p179
S'other_useful_information'
p180
sS'503643236217270274'
p181
S'other_useful_information'
p182
sS'503644909996220416'
p183
S'not_related_or_irrelevant'
p184
sS'503643192734916608'
p185
S'not_related_or_irrelevant'
p186
sS'503644073950216193'
p187
S'other_useful_information'
p188
sS'503645230139052032'
p189
S'infrastructure_and_utilities_damage'
p190
sS'503644121643225088'
p191
S'not_related_or_irrelevant'
p192
sS'503644565925277697'
p193
S'other_useful_information'
p194
sS'503644719826472960'
p195
S'infrastructure_and_utilities_damage'
p196
sS'503644084377235456'
p197
S'other_useful_information'
p198
sS'503643541068062720'
p199
S'injured_or_dead_people'
p200
sS'503643331080257537'
p201
S'other_useful_information'
p202
sS'503645185629097984'
p203
S'other_useful_information'
p204
sS'503643340228014081'
p205
S'infrastructure_and_utilities_damage'
p206
sS'503644340049440769'
p207
S'other_useful_information'
p208
sS'503645138435182592'
p209
S'injured_or_dead_people'
p210
sS'503645388520181760'
p211
S'other_useful_information'
p212
sS'503645388830560256'
p213
S'other_useful_information'
p214
sS'503644451453935616'
p215
S'other_useful_information'
p216
sS'503643797088002048'
p217
S'other_useful_information'
p218
sS'503644715351556097'
p219
S'not_related_or_irrelevant'
p220
sS'503643543739826176'
p221
S'other_useful_information'
p222
sS'503643796781801472'
p223
S'not_related_or_irrelevant'
p224
sS'503645245863903232'
p225
S'donation_needs_or_offers_or_volunteering_services'
p226
sS'503644834826313729'
p227
S'other_useful_information'
p228
sS'503643978647240706'
p229
S'other_useful_information'
p230
sS'503644706006249472'
p231
S'other_useful_information'
p232
sS'503643549695741953'
p233
S'other_useful_information'
p234
sS'503643548894658560'
p235
S'infrastructure_and_utilities_damage'
p236
sS'503643325761851392'
p237
S'other_useful_information'
p238
sS'503644760028884992'
p239
S'infrastructure_and_utilities_damage'
p240
sS'503645515758583808'
p241
S'donation_needs_or_offers_or_volunteering_services'
p242
sS'503643204156006400'
p243
S'injured_or_dead_people'
p244
sS'503643318937739265'
p245
S'other_useful_information'
p246
sS'503644473336008704'
p247
S'other_useful_information'
p248
sS'503644998840352768'
p249
S'infrastructure_and_utilities_damage'
p250
sS'503644290451394560'
p251
S'infrastructure_and_utilities_damage'
p252
sS'503645236933824513'
p253
S'infrastructure_and_utilities_damage'
p254
sS'503644015099916289'
p255
S'not_related_or_irrelevant'
p256
sS'503644412271144960'
p257
S'injured_or_dead_people'
p258
sS'503642980881022976'
p259
S'other_useful_information'
p260
sS'503645445563105280'
p261
S'other_useful_information'
p262
sS'503643731745320961'
p263
S'other_useful_information'
p264
sS'503645012358619136'
p265
S'injured_or_dead_people'
p266
sS'503645562982658049'
p267
S'infrastructure_and_utilities_damage'
p268
sS'503645108689207296'
p269
S'other_useful_information'
p270
sS'503645560868323329'
p271
S'other_useful_information'
p272
sS'503644818187116544'
p273
S'infrastructure_and_utilities_damage'
p274
sS'503643945352835073'
p275
S'other_useful_information'
p276
sS'503645004322312192'
p277
S'other_useful_information'
p278
sS'503643451465162752'
p279
S'infrastructure_and_utilities_damage'
p280
sS'503642993677443072'
p281
S'other_useful_information'
p282
sS'503644794959048704'
p283
S'donation_needs_or_offers_or_volunteering_services'
p284
sS'503644496748617729'
p285
S'other_useful_information'
p286
sS'503645256420569088'
p287
S'donation_needs_or_offers_or_volunteering_services'
p288
sS'503645478945161216'
p289
S'infrastructure_and_utilities_damage'
p290
sS'503644134280663041'
p291
S'other_useful_information'
p292
sS'503645436997955585'
p293
S'infrastructure_and_utilities_damage'
p294
sS'503645631055790080'
p295
S'missing_trapped_or_found_people'
p296
sS'503643771553067008'
p297
S'not_related_or_irrelevant'
p298
sS'503643458033438720'
p299
S'other_useful_information'
p300
sS'503643740553375744'
p301
S'sympathy_and_emotional_support'
p302
sS'503643789202694144'
p303
S'other_useful_information'
p304
sS'503645175265361920'
p305
S'other_useful_information'
p306
sS'503645478127296512'
p307
S'donation_needs_or_offers_or_volunteering_services'
p308
sS'503643976075726848'
p309
S'infrastructure_and_utilities_damage'
p310
sS'503643474122788864'
p311
S'sympathy_and_emotional_support'
p312
sS'503643931125374977'
p313
S'other_useful_information'
p314
sS'503645174350614528'
p315
S'other_useful_information'
p316
sS'503643903879163904'
p317
S'infrastructure_and_utilities_damage'
p318
sS'503644368847118336'
p319
S'other_useful_information'
p320
sS'503644626788839424'
p321
S'sympathy_and_emotional_support'
p322
sS'503643877115703296'
p323
S'injured_or_dead_people'
p324
sS'503643481328611328'
p325
S'other_useful_information'
p326
sS'503645018138361856'
p327
S'other_useful_information'
p328
sS'503643471262285824'
p329
S'infrastructure_and_utilities_damage'
p330
sS'503644566751150080'
p331
S'other_useful_information'
p332
sS'503645275429163008'
p333
S'other_useful_information'
p334
sS'503645628363067392'
p335
S'injured_or_dead_people'
p336
sS'503643486516559872'
p337
S'other_useful_information'
p338
sS'503645017693777920'
p339
S'other_useful_information'
p340
sS'503645340801564672'
p341
S'other_useful_information'
p342
sS'503644401730867201'
p343
S'injured_or_dead_people'
p344
sS'503644497306480640'
p345
S'other_useful_information'
p346
sS'503645566127988736'
p347
S'other_useful_information'
p348
sS'503644366645522432'
p349
S'other_useful_information'
p350
sS'503643294573006849'
p351
S'injured_or_dead_people'
p352
sS'503643465826058240'
p353
S'other_useful_information'
p354
sS'503645030117310465'
p355
S'other_useful_information'
p356
sS'503644572572864512'
p357
S'injured_or_dead_people'
p358
sS'503645574256533504'
p359
S'other_useful_information'
p360
sS'503644896930959360'
p361
S'injured_or_dead_people'
p362
sS'503644292863508480'
p363
S'other_useful_information'
p364
sS'503644712352239616'
p365
S'injured_or_dead_people'
p366
sS'503643812829216769'
p367
S'not_related_or_irrelevant'
p368
sS'503644909451358208'
p369
S'donation_needs_or_offers_or_volunteering_services'
p370
sS'503644914593198080'
p371
S'sympathy_and_emotional_support'
p372
sS'503644947191304194'
p373
S'other_useful_information'
p374
sS'503643683426533376'
p375
S'injured_or_dead_people'
p376
sS'503645099423973376'
p377
S'other_useful_information'
p378
sS'503643280475582464'
p379
S'injured_or_dead_people'
p380
sS'503644161162346498'
p381
S'infrastructure_and_utilities_damage'
p382
sS'503643291758260224'
p383
S'other_useful_information'
p384
sS'503644689266782208'
p385
S'other_useful_information'
p386
sS'503643073335685120'
p387
S'infrastructure_and_utilities_damage'
p388
sS'503645597266874368'
p389
S'other_useful_information'
p390
sS'503644966082461696'
p391
S'infrastructure_and_utilities_damage'
p392
sS'503643175466983425'
p393
S'not_related_or_irrelevant'
p394
sS'503643045867188224'
p395
S'not_related_or_irrelevant'
p396
sS'503644569360019456'
p397
S'injured_or_dead_people'
p398
sS'503645325853093889'
p399
S'infrastructure_and_utilities_damage'
p400
sS'503645471664254976'
p401
S'other_useful_information'
p402
sS'503643880383070210'
p403
S'sympathy_and_emotional_support'
p404
sS'503645346053234689'
p405
S'other_useful_information'
p406
sS'503643333470982144'
p407
S'other_useful_information'
p408
sS'503644038965493760'
p409
S'caution_and_advice'
p410
sS'503643303490109440'
p411
S'other_useful_information'
p412
sS'503645598105743360'
p413
S'donation_needs_or_offers_or_volunteering_services'
p414
sS'503645244035186689'
p415
S'other_useful_information'
p416
sS'503645394384191488'
p417
S'injured_or_dead_people'
p418
sS'503642977588494337'
p419
S'injured_or_dead_people'
p420
sS'503645254772203521'
p421
S'caution_and_advice'
p422
sS'503644468520960000'
p423
S'other_useful_information'
p424
sS'503645553603801088'
p425
S'not_related_or_irrelevant'
p426
sS'503644475345088512'
p427
S'not_related_or_irrelevant'
p428
sS'503643527746949120'
p429
S'other_useful_information'
p430
sS'503643523296821248'
p431
S'donation_needs_or_offers_or_volunteering_services'
p432
sS'503643194832060417'
p433
S'infrastructure_and_utilities_damage'
p434
sS'503645608499228673'
p435
S'injured_or_dead_people'
p436
sS'503643932417622016'
p437
S'not_related_or_irrelevant'
p438
sS'503643355310743552'
p439
S'other_useful_information'
p440
sS'503643317330903040'
p441
S'infrastructure_and_utilities_damage'
p442
sS'503644149069795328'
p443
S'other_useful_information'
p444
sS'503642982189252608'
p445
S'other_useful_information'
p446
sS'503644443690676224'
p447
S'other_useful_information'
p448
sS'503643318560239616'
p449
S'other_useful_information'
p450
sS'503643341880565760'
p451
S'other_useful_information'
p452
sS'503645316743458816'
p453
S'injured_or_dead_people'
p454
sS'503644912894500865'
p455
S'other_useful_information'
p456
sS'503644205428662272'
p457
S'other_useful_information'
p458
sS'503645309701218304'
p459
S'infrastructure_and_utilities_damage'
p460
sS'503643168324071424'
p461
S'infrastructure_and_utilities_damage'
p462
sS'503644873111928833'
p463
S'donation_needs_or_offers_or_volunteering_services'
p464
sS'503644952686260224'
p465
S'other_useful_information'
p466
sS'503643814330769408'
p467
S'other_useful_information'
p468
sS'503643771175960577'
p469
S'infrastructure_and_utilities_damage'
p470
sS'503643331696803840'
p471
S'other_useful_information'
p472
sS'503643920757047296'
p473
S'other_useful_information'
p474
sS'503643355990220800'
p475
S'injured_or_dead_people'
p476
sS'503645457923321856'
p477
S'infrastructure_and_utilities_damage'
p478
sS'503645463133052928'
p479
S'injured_or_dead_people'
p480
sS'503643809591615488'
p481
S'other_useful_information'
p482
sS'503644595591192577'
p483
S'caution_and_advice'
p484
sS'503644502301892608'
p485
S'not_related_or_irrelevant'
p486
sS'503644691049762817'
p487
S'sympathy_and_emotional_support'
p488
sS'503643503726178305'
p489
S'infrastructure_and_utilities_damage'
p490
sS'503643564698767361'
p491
S'other_useful_information'
p492
sS'503645387539107843'
p493
S'other_useful_information'
p494
sS'503643569333104641'
p495
S'other_useful_information'
p496
sS'503643591114493952'
p497
S'infrastructure_and_utilities_damage'
p498
sS'503643546604544000'
p499
S'not_related_or_irrelevant'
p500
sS'503643276335779840'
p501
S'injured_or_dead_people'
p502
sS'503645161138565120'
p503
S'other_useful_information'
p504
sS'503644353479204864'
p505
S'injured_or_dead_people'
p506
sS'503644681037570049'
p507
S'other_useful_information'
p508
sS'503644760515432448'
p509
S'not_related_or_irrelevant'
p510
sS'503644966124408832'
p511
S'other_useful_information'
p512
sS'503644545926430720'
p513
S'other_useful_information'
p514
sS'503643958866477057'
p515
S'other_useful_information'
p516
sS'503645323957248001'
p517
S'other_useful_information'
p518
sS'503644320629784577'
p519
S'other_useful_information'
p520
sS'503644568236343296'
p521
S'other_useful_information'
p522
sS'503645198652428289'
p523
S'infrastructure_and_utilities_damage'
p524
sS'503642988522647552'
p525
S'sympathy_and_emotional_support'
p526
sS'503643835709157376'
p527
S'sympathy_and_emotional_support'
p528
sS'503644385117216768'
p529
S'infrastructure_and_utilities_damage'
p530
sS'503643306971398144'
p531
S'not_related_or_irrelevant'
p532
sS'503645336154689537'
p533
S'injured_or_dead_people'
p534
sS'503643493961838592'
p535
S'not_related_or_irrelevant'
p536
sS'503645464181604353'
p537
S'other_useful_information'
p538
sS'503643664015712256'
p539
S'other_useful_information'
p540
sS'503643159239622656'
p541
S'infrastructure_and_utilities_damage'
p542
sS'503645413787049984'
p543
S'other_useful_information'
p544
sS'503643472080171008'
p545
S'infrastructure_and_utilities_damage'
p546
sS'503645264377176064'
p547
S'other_useful_information'
p548
sS'503643521807831041'
p549
S'infrastructure_and_utilities_damage'
p550
sS'503644962341134337'
p551
S'caution_and_advice'
p552
sS'503644943575826432'
p553
S'infrastructure_and_utilities_damage'
p554
sS'503643616045436930'
p555
S'donation_needs_or_offers_or_volunteering_services'
p556
sS'503645225948958720'
p557
S'other_useful_information'
p558
sS'503645279057223680'
p559
S'other_useful_information'
p560
sS'503645562932314113'
p561
S'sympathy_and_emotional_support'
p562
sS'503645279900278784'
p563
S'infrastructure_and_utilities_damage'
p564
sS'503643171327602689'
p565
S'not_related_or_irrelevant'
p566
sS'503645576563412992'
p567
S'other_useful_information'
p568
sS'503643681493360641'
p569
S'not_related_or_irrelevant'
p570
sS'503644130908844033'
p571
S'other_useful_information'
p572
sS'503643536747954177'
p573
S'infrastructure_and_utilities_damage'
p574
sS'503643232266620929'
p575
S'other_useful_information'
p576
sS'503645245855129600'
p577
S'other_useful_information'
p578
sS'503644410933178368'
p579
S'other_useful_information'
p580
sS'503644665208246272'
p581
S'infrastructure_and_utilities_damage'
p582
sS'503643081066184704'
p583
S'sympathy_and_emotional_support'
p584
sS'503644597940416512'
p585
S'injured_or_dead_people'
p586
sS'503644008313143296'
p587
S'other_useful_information'
p588
sS'503645414235856896'
p589
S'injured_or_dead_people'
p590
sS'503643105485004800'
p591
S'injured_or_dead_people'
p592
sS'503643538194579457'
p593
S'other_useful_information'
p594
sS'503643737126223872'
p595
S'infrastructure_and_utilities_damage'
p596
sS'503644216137097217'
p597
S'not_related_or_irrelevant'
p598
sS'503644714562617344'
p599
S'injured_or_dead_people'
p600
sS'503645302092341248'
p601
S'other_useful_information'
p602
sS'503643358284509184'
p603
S'other_useful_information'
p604
sS'503644070481108992'
p605
S'other_useful_information'
p606
sS'503644002768678912'
p607
S'other_useful_information'
p608
sS'503644391723257857'
p609
S'other_useful_information'
p610
sS'503645007547346944'
p611
S'infrastructure_and_utilities_damage'
p612
sS'503645353824899072'
p613
S'infrastructure_and_utilities_damage'
p614
sS'503645354873458688'
p615
S'sympathy_and_emotional_support'
p616
sS'503644526943436801'
p617
S'other_useful_information'
p618
sS'503645260937842689'
p619
S'other_useful_information'
p620
sS'503643888913874945'
p621
S'injured_or_dead_people'
p622
sS'503645219837857792'
p623
S'not_related_or_irrelevant'
p624
sS'503643036996227073'
p625
S'other_useful_information'
p626
sS'503643050128592896'
p627
S'injured_or_dead_people'
p628
sS'503643917884338176'
p629
S'other_useful_information'
p630
sS'503645524558233600'
p631
S'infrastructure_and_utilities_damage'
p632
sS'503645050656419840'
p633
S'infrastructure_and_utilities_damage'
p634
sS'503644746485886976'
p635
S'other_useful_information'
p636
sS'503643515738673152'
p637
S'donation_needs_or_offers_or_volunteering_services'
p638
sS'503645445629833216'
p639
S'other_useful_information'
p640
sS'503643130923466753'
p641
S'other_useful_information'
p642
sS'503643456489943040'
p643
S'other_useful_information'
p644
sS'503643462370328576'
p645
S'not_related_or_irrelevant'
p646
sS'503645453695471616'
p647
S'other_useful_information'
p648
sS'503645072370327552'
p649
S'infrastructure_and_utilities_damage'
p650
sS'503645594053664769'
p651
S'injured_or_dead_people'
p652
sS'503643457186168832'
p653
S'other_useful_information'
p654
sS'503643284174929920'
p655
S'infrastructure_and_utilities_damage'
p656
sS'503644549353598976'
p657
S'injured_or_dead_people'
p658
sS'503645379494027264'
p659
S'sympathy_and_emotional_support'
p660
sS'503643456900972544'
p661
S'other_useful_information'
p662
sS'503643309903183873'
p663
S'infrastructure_and_utilities_damage'
p664
sS'503644114521317376'
p665
S'other_useful_information'
p666
sS'503643614669725696'
p667
S'other_useful_information'
p668
sS'503644626813591552'
p669
S'donation_needs_or_offers_or_volunteering_services'
p670
sS'503645582171193345'
p671
S'caution_and_advice'
p672
sS'503645502538149888'
p673
S'other_useful_information'
p674
sS'503645301727444994'
p675
S'other_useful_information'
p676
sS'503644039200407552'
p677
S'donation_needs_or_offers_or_volunteering_services'
p678
sS'503644221547368450'
p679
S'other_useful_information'
p680
sS'503643483442532353'
p681
S'not_related_or_irrelevant'
p682
sS'503645450226765824'
p683
S'injured_or_dead_people'
p684
sS'503643962994069506'
p685
S'other_useful_information'
p686
sS'503644404343513089'
p687
S'not_related_or_irrelevant'
p688
sS'503643777039204352'
p689
S'other_useful_information'
p690
sS'503643751806676992'
p691
S'other_useful_information'
p692
sS'503643216952844288'
p693
S'not_related_or_irrelevant'
p694
sS'503644477454819328'
p695
S'other_useful_information'
p696
sS'503644125733089280'
p697
S'infrastructure_and_utilities_damage'
p698
sS'503643542464774144'
p699
S'caution_and_advice'
p700
sS'503643661129629696'
p701
S'injured_or_dead_people'
p702
sS'503642976422096896'
p703
S'other_useful_information'
p704
sS'503644695302393858'
p705
S'infrastructure_and_utilities_damage'
p706
sS'503644245648211968'
p707
S'other_useful_information'
p708
sS'503645094462124032'
p709
S'infrastructure_and_utilities_damage'
p710
sS'503645075163717632'
p711
S'caution_and_advice'
p712
sS'503643606926630912'
p713
S'other_useful_information'
p714
sS'503643800926183424'
p715
S'other_useful_information'
p716
sS'503643293880963072'
p717
S'other_useful_information'
p718
sS'503645462318964736'
p719
S'infrastructure_and_utilities_damage'
p720
sS'503645023275991040'
p721
S'other_useful_information'
p722
sS'503644103439945728'
p723
S'not_related_or_irrelevant'
p724
sS'503643461405663232'
p725
S'other_useful_information'
p726
sS'503645050627035136'
p727
S'caution_and_advice'
p728
sS'503643529324036097'
p729
S'other_useful_information'
p730
sS'503644632618528768'
p731
S'other_useful_information'
p732
sS'503643452324581376'
p733
S'infrastructure_and_utilities_damage'
p734
sS'503645328793288704'
p735
S'other_useful_information'
p736
sS'503644427584544769'
p737
S'not_related_or_irrelevant'
p738
sS'503645170315710464'
p739
S'not_related_or_irrelevant'
p740
sS'503643489742385152'
p741
S'injured_or_dead_people'
p742
sS'503643950775681025'
p743
S'not_related_or_irrelevant'
p744
sS'503643668725903360'
p745
S'injured_or_dead_people'
p746
sS'503645486390050816'
p747
S'donation_needs_or_offers_or_volunteering_services'
p748
sS'503645285700997120'
p749
S'other_useful_information'
p750
sS'503643645094801408'
p751
S'infrastructure_and_utilities_damage'
p752
sS'503644043213942784'
p753
S'other_useful_information'
p754
sS'503643364286550017'
p755
S'other_useful_information'
p756
sS'503645333855801345'
p757
S'not_related_or_irrelevant'
p758
sS'503644255660048385'
p759
S'other_useful_information'
p760
sS'503645429217492992'
p761
S'other_useful_information'
p762
sS'503643536106196992'
p763
S'other_useful_information'
p764
sS'503643344791031808'
p765
S'other_useful_information'
p766
sS'503643624622391296'
p767
S'not_related_or_irrelevant'
p768
sS'503645475493265408'
p769
S'other_useful_information'
p770
sS'503643240000540672'
p771
S'other_useful_information'
p772
sS'503643461602775040'
p773
S'other_useful_information'
p774
sS'503644995216506880'
p775
S'infrastructure_and_utilities_damage'
p776
sS'503644291101900800'
p777
S'injured_or_dead_people'
p778
sS'503645098551558144'
p779
S'other_useful_information'
p780
sS'503643486835712000'
p781
S'other_useful_information'
p782
sS'503644189704196096'
p783
S'other_useful_information'
p784
sS'503643730239180800'
p785
S'not_related_or_irrelevant'
p786
sS'503645323730751489'
p787
S'other_useful_information'
p788
sS'503643321823420416'
p789
S'other_useful_information'
p790
sS'503643266907402240'
p791
S'other_useful_information'
p792
sS'503644972176777216'
p793
S'other_useful_information'
p794
sS'503643347807129602'
p795
S'other_useful_information'
p796
sS'503643508549623808'
p797
S'other_useful_information'
p798
sS'503644405366935553'
p799
S'injured_or_dead_people'
p800
sS'503645212426514432'
p801
S'injured_or_dead_people'
p802
sS'503645446917472257'
p803
S'not_related_or_irrelevant'
p804
sS'503644414762180608'
p805
S'other_useful_information'
p806
sS'503643676518543360'
p807
S'injured_or_dead_people'
p808
sS'503643927090446337'
p809
S'injured_or_dead_people'
p810
sS'503645058110083072'
p811
S'caution_and_advice'
p812
sS'503643031367467008'
p813
S'sympathy_and_emotional_support'
p814
sS'503644001996918785'
p815
S'other_useful_information'
p816
sS'503643741609926656'
p817
S'infrastructure_and_utilities_damage'
p818
sS'503645506975719424'
p819
S'other_useful_information'
p820
sS'503645067576217600'
p821
S'other_useful_information'
p822
sS'503643883377410048'
p823
S'other_useful_information'
p824
sS'503645175319912450'
p825
S'other_useful_information'
p826
sS'503645595437780992'
p827
S'other_useful_information'
p828
sS'503643742516301827'
p829
S'other_useful_information'
p830
sS'503643489037737984'
p831
S'other_useful_information'
p832
sS'503644053720682497'
p833
S'donation_needs_or_offers_or_volunteering_services'
p834
sS'503644022628294656'
p835
S'caution_and_advice'
p836
sS'503643782391136256'
p837
S'not_related_or_irrelevant'
p838
sS'503644966024134660'
p839
S'donation_needs_or_offers_or_volunteering_services'
p840
sS'503645633190715392'
p841
S'infrastructure_and_utilities_damage'
p842
sS'503643317855207424'
p843
S'other_useful_information'
p844
sS'503643353863294976'
p845
S'other_useful_information'
p846
sS'503644939255676928'
p847
S'injured_or_dead_people'
p848
sS'503644119919759360'
p849
S'other_useful_information'
p850
sS'503644165029519360'
p851
S'other_useful_information'
p852
sS'503643465729581056'
p853
S'other_useful_information'
p854
sS'503643664539607041'
p855
S'not_related_or_irrelevant'
p856
sS'503644257757188096'
p857
S'other_useful_information'
p858
sS'503643972275671040'
p859
S'other_useful_information'
p860
sS'503643693186695168'
p861
S'other_useful_information'
p862
sS'503643466531102720'
p863
S'not_related_or_irrelevant'
p864
sS'503643941300756480'
p865
S'injured_or_dead_people'
p866
sS'503645217619054592'
p867
S'other_useful_information'
p868
sS'503645226192236544'
p869
S'other_useful_information'
p870
sS'503644286819106816'
p871
S'not_related_or_irrelevant'
p872
sS'503643784585158656'
p873
S'other_useful_information'
p874
sS'503644693922869248'
p875
S'other_useful_information'
p876
sS'503644180090859520'
p877
S'other_useful_information'
p878
sS'503644955756486656'
p879
S'infrastructure_and_utilities_damage'
p880
sS'503643729505579009'
p881
S'other_useful_information'
p882
sS'503645015633973248'
p883
S'other_useful_information'
p884
sS'503645462520266753'
p885
S'other_useful_information'
p886
sS'503643029559734272'
p887
S'other_useful_information'
p888
sS'503645555440877569'
p889
S'injured_or_dead_people'
p890
sS'503643998297133057'
p891
S'donation_needs_or_offers_or_volunteering_services'
p892
sS'503645057656700928'
p893
S'other_useful_information'
p894
sS'503643554573344768'
p895
S'injured_or_dead_people'
p896
sS'503643227074080768'
p897
S'injured_or_dead_people'
p898
sS'503643672244928512'
p899
S'not_related_or_irrelevant'
p900
sS'503644606492184576'
p901
S'other_useful_information'
p902
sS'503644271745183744'
p903
S'other_useful_information'
p904
sS'503643561804709889'
p905
S'other_useful_information'
p906
sS'503645447341092864'
p907
S'other_useful_information'
p908
sS'503643093589958657'
p909
S'other_useful_information'
p910
sS'503643990122442752'
p911
S'sympathy_and_emotional_support'
p912
sS'503644691124871168'
p913
S'other_useful_information'
p914
sS'503643214998282241'
p915
S'not_related_or_irrelevant'
p916
sS'503645251769081856'
p917
S'injured_or_dead_people'
p918
sS'503643467134664704'
p919
S'donation_needs_or_offers_or_volunteering_services'
p920
sS'503645077357350912'
p921
S'other_useful_information'
p922
sS'503645372145999873'
p923
S'infrastructure_and_utilities_damage'
p924
sS'503645028930306048'
p925
S'other_useful_information'
p926
sS'503645407654998016'
p927
S'injured_or_dead_people'
p928
sS'503643987295473666'
p929
S'infrastructure_and_utilities_damage'
p930
sS'503645493226795008'
p931
S'not_related_or_irrelevant'
p932
sS'503645514395828224'
p933
S'infrastructure_and_utilities_damage'
p934
sS'503643334938988544'
p935
S'other_useful_information'
p936
sS'503645305863430144'
p937
S'infrastructure_and_utilities_damage'
p938
sS'503643499137609728'
p939
S'not_related_or_irrelevant'
p940
sS'503643652841672704'
p941
S'infrastructure_and_utilities_damage'
p942
sS'503645331720912896'
p943
S'infrastructure_and_utilities_damage'
p944
sS'503644306469830659'
p945
S'other_useful_information'
p946
sS'503644613996208130'
p947
S'other_useful_information'
p948
sS'503643307684421632'
p949
S'caution_and_advice'
p950
sS'503644601396523008'
p951
S'other_useful_information'
p952
sS'503643368237580288'
p953
S'other_useful_information'
p954
sS'503643236267982850'
p955
S'injured_or_dead_people'
p956
sS'503645150564720640'
p957
S'not_related_or_irrelevant'
p958
sS'503645074740084736'
p959
S'other_useful_information'
p960
sS'503643278697189378'
p961
S'infrastructure_and_utilities_damage'
p962
sS'503644038831288320'
p963
S'other_useful_information'
p964
sS'503643144148099072'
p965
S'infrastructure_and_utilities_damage'
p966
sS'503644384563568640'
p967
S'injured_or_dead_people'
p968
sS'503643799323541504'
p969
S'other_useful_information'
p970
sS'503643361254047744'
p971
S'injured_or_dead_people'
p972
sS'503643337199718400'
p973
S'infrastructure_and_utilities_damage'
p974
sS'503645375886938112'
p975
S'other_useful_information'
p976
sS'503645089164296192'
p977
S'other_useful_information'
p978
sS'503644047882207232'
p979
S'other_useful_information'
p980
sS'503643010127499264'
p981
S'other_useful_information'
p982
sS'503644448799346691'
p983
S'injured_or_dead_people'
p984
sS'503644069201846273'
p985
S'other_useful_information'
p986
sS'503643299996241920'
p987
S'other_useful_information'
p988
sS'503645489569742849'
p989
S'other_useful_information'
p990
sS'503644852752752641'
p991
S'injured_or_dead_people'
p992
sS'503644370474926081'
p993
S'other_useful_information'
p994
sS'503644141117390848'
p995
S'other_useful_information'
p996
sS'503643597041061888'
p997
S'injured_or_dead_people'
p998
sS'503643323236904961'
p999
S'infrastructure_and_utilities_damage'
p1000
sS'503643326990778368'
p1001
S'other_useful_information'
p1002
sS'503645369927237632'
p1003
S'other_useful_information'
p1004
sS'503645382816301057'
p1005
S'caution_and_advice'
p1006
sS'503645498298097664'
p1007
S'infrastructure_and_utilities_damage'
p1008
sS'503645271562412032'
p1009
S'other_useful_information'
p1010
sS'503644602268909568'
p1011
S'other_useful_information'
p1012
sS'503643215950389249'
p1013
S'other_useful_information'
p1014
sS'503644950668402688'
p1015
S'caution_and_advice'
p1016
sS'503645380752338944'
p1017
S'other_useful_information'
p1018
sS'503644049543135232'
p1019
S'other_useful_information'
p1020
sS'503644176043360256'
p1021
S'other_useful_information'
p1022
sS'503645030679330817'
p1023
S'other_useful_information'
p1024
sS'503643840121536514'
p1025
S'donation_needs_or_offers_or_volunteering_services'
p1026
sS'503644801926184960'
p1027
S'injured_or_dead_people'
p1028
sS'503643536836026369'
p1029
S'other_useful_information'
p1030
sS'503645061850992640'
p1031
S'not_related_or_irrelevant'
p1032
sS'503643471304216577'
p1033
S'infrastructure_and_utilities_damage'
p1034
sS'503643543164829696'
p1035
S'sympathy_and_emotional_support'
p1036
sS'503643344653012992'
p1037
S'other_useful_information'
p1038
sS'503643528732221440'
p1039
S'other_useful_information'
p1040
sS'503643346938523649'
p1041
S'infrastructure_and_utilities_damage'
p1042
sS'503643482733682688'
p1043
S'injured_or_dead_people'
p1044
sS'503645088283496448'
p1045
S'other_useful_information'
p1046
sS'503643470628937728'
p1047
S'other_useful_information'
p1048
sS'503644944230129665'
p1049
S'other_useful_information'
p1050
sS'503644746452303872'
p1051
S'caution_and_advice'
p1052
sS'503644848533278721'
p1053
S'caution_and_advice'
p1054
sS'503644160033689600'
p1055
S'caution_and_advice'
p1056
sS'503645169993129984'
p1057
S'other_useful_information'
p1058
sS'503644890576609281'
p1059
S'other_useful_information'
p1060
sS'503643537385467904'
p1061
S'other_useful_information'
p1062
sS'503645170466684928'
p1063
S'other_useful_information'
p1064
sS'503644620166017024'
p1065
S'other_useful_information'
p1066
sS'503644897623408640'
p1067
S'injured_or_dead_people'
p1068
sS'503645251727556609'
p1069
S'other_useful_information'
p1070
sS'503644579979993088'
p1071
S'other_useful_information'
p1072
sS'503644950676787201'
p1073
S'other_useful_information'
p1074
sS'503643465792507904'
p1075
S'other_useful_information'
p1076
sS'503643202403196929'
p1077
S'other_useful_information'
p1078
sS'503645233540632577'
p1079
S'not_related_or_irrelevant'
p1080
sS'503644702000705537'
p1081
S'infrastructure_and_utilities_damage'
p1082
sS'503643676560863233'
p1083
S'infrastructure_and_utilities_damage'
p1084
sS'503642979429388288'
p1085
S'infrastructure_and_utilities_damage'
p1086
sS'503644095705653248'
p1087
S'infrastructure_and_utilities_damage'
p1088
sS'503644227314532352'
p1089
S'other_useful_information'
p1090
sS'503643327632519168'
p1091
S'infrastructure_and_utilities_damage'
p1092
sS'503642998664884225'
p1093
S'other_useful_information'
p1094
sS'503644680853000192'
p1095
S'other_useful_information'
p1096
sS'503643868315676672'
p1097
S'other_useful_information'
p1098
sS'503645626454646785'
p1099
S'sympathy_and_emotional_support'
p1100
sS'503644790458961921'
p1101
S'infrastructure_and_utilities_damage'
p1102
sS'503644242741559296'
p1103
S'donation_needs_or_offers_or_volunteering_services'
p1104
sS'503643208169967616'
p1105
S'infrastructure_and_utilities_damage'
p1106
sS'503643924410675200'
p1107
S'infrastructure_and_utilities_damage'
p1108
sS'503644356340105217'
p1109
S'other_useful_information'
p1110
sS'503644620551913473'
p1111
S'injured_or_dead_people'
p1112
sS'503643512467103744'
p1113
S'other_useful_information'
p1114
sS'503644482189807617'
p1115
S'other_useful_information'
p1116
sS'503643599188545536'
p1117
S'other_useful_information'
p1118
sS'503644956016115712'
p1119
S'infrastructure_and_utilities_damage'
p1120
sS'503644768836927488'
p1121
S'other_useful_information'
p1122
sS'503643930035257345'
p1123
S'infrastructure_and_utilities_damage'
p1124
sS'503643652053143553'
p1125
S'infrastructure_and_utilities_damage'
p1126
sS'503644952065085440'
p1127
S'other_useful_information'
p1128
sS'503643187798228992'
p1129
S'other_useful_information'
p1130
sS'503645107367591936'
p1131
S'infrastructure_and_utilities_damage'
p1132
sS'503644312651829248'
p1133
S'other_useful_information'
p1134
sS'503645437484494848'
p1135
S'donation_needs_or_offers_or_volunteering_services'
p1136
sS'503644749790584833'
p1137
S'sympathy_and_emotional_support'
p1138
sS'503643238712872961'
p1139
S'other_useful_information'
p1140
sS'503644274143924225'
p1141
S'other_useful_information'
p1142
sS'503645139735445504'
p1143
S'infrastructure_and_utilities_damage'
p1144
sS'503645200183730177'
p1145
S'infrastructure_and_utilities_damage'
p1146
sS'503643842865020928'
p1147
S'infrastructure_and_utilities_damage'
p1148
sS'503643275266228224'
p1149
S'other_useful_information'
p1150
sS'503643338332180482'
p1151
S'not_related_or_irrelevant'
p1152
sS'503645436498833408'
p1153
S'other_useful_information'
p1154
sS'503644790429200384'
p1155
S'other_useful_information'
p1156
sS'503643522986045440'
p1157
S'other_useful_information'
p1158
sS'503643596424503298'
p1159
S'other_useful_information'
p1160
sS'503643124787609600'
p1161
S'donation_needs_or_offers_or_volunteering_services'
p1162
sS'503645191329554433'
p1163
S'other_useful_information'
p1164
sS'503645041294704640'
p1165
S'other_useful_information'
p1166
sS'503644171606192128'
p1167
S'infrastructure_and_utilities_damage'
p1168
sS'503645481780510720'
p1169
S'other_useful_information'
p1170
sS'503643163857526784'
p1171
S'other_useful_information'
p1172
sS'503644369497645057'
p1173
S'injured_or_dead_people'
p1174
sS'503645195380879360'
p1175
S'injured_or_dead_people'
p1176
sS'503644288169676800'
p1177
S'infrastructure_and_utilities_damage'
p1178
sS'503645520946941952'
p1179
S'other_useful_information'
p1180
sS'503644047853223936'
p1181
S'other_useful_information'
p1182
sS'503645071443382272'
p1183
S'infrastructure_and_utilities_damage'
p1184
sS'503643287954001920'
p1185
S'other_useful_information'
p1186
sS'503643907797032960'
p1187
S'infrastructure_and_utilities_damage'
p1188
sS'503643908438786050'
p1189
S'other_useful_information'
p1190
sS'503643156941111296'
p1191
S'other_useful_information'
p1192
sS'503644974479470592'
p1193
S'injured_or_dead_people'
p1194
sS'503643291859292161'
p1195
S'other_useful_information'
p1196
sS'503643595816316928'
p1197
S'other_useful_information'
p1198
sS'503644849225351169'
p1199
S'other_useful_information'
p1200
sS'503643359668604928'
p1201
S'caution_and_advice'
p1202
sS'503643826582728704'
p1203
S'not_related_or_irrelevant'
p1204
sS'503644932838785025'
p1205
S'not_related_or_irrelevant'
p1206
sS'503644959237758976'
p1207
S'sympathy_and_emotional_support'
p1208
sS'503644198424551424'
p1209
S'infrastructure_and_utilities_damage'
p1210
sS'503644299352080384'
p1211
S'infrastructure_and_utilities_damage'
p1212
sS'503644217101398016'
p1213
S'sympathy_and_emotional_support'
p1214
sS'503643557849477120'
p1215
S'infrastructure_and_utilities_damage'
p1216
sS'503644069546164225'
p1217
S'other_useful_information'
p1218
sS'503643343197577216'
p1219
S'infrastructure_and_utilities_damage'
p1220
sS'503643469982605312'
p1221
S'other_useful_information'
p1222
sS'503644837883940864'
p1223
S'other_useful_information'
p1224
sS'503645287592652801'
p1225
S'donation_needs_or_offers_or_volunteering_services'
p1226
sS'503645264503005184'
p1227
S'other_useful_information'
p1228
sS'503644783903252481'
p1229
S'sympathy_and_emotional_support'
p1230
sS'503643329922215937'
p1231
S'other_useful_information'
p1232
sS'503644630089732097'
p1233
S'other_useful_information'
p1234
sS'503643364265193472'
p1235
S'other_useful_information'
p1236
sS'503644638142799872'
p1237
S'infrastructure_and_utilities_damage'
p1238
sS'503644137267023872'
p1239
S'donation_needs_or_offers_or_volunteering_services'
p1240
sS'503643738468798465'
p1241
S'other_useful_information'
p1242
sS'503643169402003456'
p1243
S'injured_or_dead_people'
p1244
sS'503645608411140097'
p1245
S'other_useful_information'
p1246
sS'503645538504671232'
p1247
S'other_useful_information'
p1248
sS'503645470896316416'
p1249
S'other_useful_information'
p1250
sS'503644622409588736'
p1251
S'not_related_or_irrelevant'
p1252
sS'503643538752815106'
p1253
S'other_useful_information'
p1254
sS'503643604774961152'
p1255
S'other_useful_information'
p1256
sS'503645045082570752'
p1257
S'other_useful_information'
p1258
sS'503644983019446272'
p1259
S'other_useful_information'
p1260
sS'503643105338216448'
p1261
S'infrastructure_and_utilities_damage'
p1262
sS'503643062715703296'
p1263
S'other_useful_information'
p1264
sS'503645557525852160'
p1265
S'other_useful_information'
p1266
sS'503645250242375680'
p1267
S'other_useful_information'
p1268
sS'503643039764860932'
p1269
S'injured_or_dead_people'
p1270
sS'503643227858030593'
p1271
S'other_useful_information'
p1272
sS'503643274196684800'
p1273
S'injured_or_dead_people'
p1274
sS'503643003508883458'
p1275
S'not_related_or_irrelevant'
p1276
sS'503643019653181440'
p1277
S'injured_or_dead_people'
p1278
sS'503645423005757442'
p1279
S'other_useful_information'
p1280
sS'503644709768941572'
p1281
S'other_useful_information'
p1282
sS'503643062913212416'
p1283
S'injured_or_dead_people'
p1284
sS'503643799029956608'
p1285
S'other_useful_information'
p1286
sS'503643111206027264'
p1287
S'other_useful_information'
p1288
sS'503643535112163328'
p1289
S'infrastructure_and_utilities_damage'
p1290
sS'503645242206478338'
p1291
S'other_useful_information'
p1292
sS'503643190864257024'
p1293
S'sympathy_and_emotional_support'
p1294
sS'503644873619435520'
p1295
S'infrastructure_and_utilities_damage'
p1296
sS'503644396223729665'
p1297
S'other_useful_information'
p1298
sS'503643779262205953'
p1299
S'sympathy_and_emotional_support'
p1300
sS'503645420900196352'
p1301
S'infrastructure_and_utilities_damage'
p1302
sS'503644044174454784'
p1303
S'sympathy_and_emotional_support'
p1304
sS'503645592837312512'
p1305
S'other_useful_information'
p1306
sS'503644424845283328'
p1307
S'other_useful_information'
p1308
sS'503645460280528896'
p1309
S'other_useful_information'
p1310
sS'503644148667518976'
p1311
S'other_useful_information'
p1312
sS'503644270889553921'
p1313
S'other_useful_information'
p1314
sS'503644703825612800'
p1315
S'injured_or_dead_people'
p1316
sS'503644405014593538'
p1317
S'other_useful_information'
p1318
sS'503645316239745024'
p1319
S'other_useful_information'
p1320
sS'503643253875286016'
p1321
S'not_related_or_irrelevant'
p1322
sS'503643868022075392'
p1323
S'infrastructure_and_utilities_damage'
p1324
sS'503643746777722881'
p1325
S'infrastructure_and_utilities_damage'
p1326
sS'503644686846681088'
p1327
S'injured_or_dead_people'
p1328
sS'503644932251594752'
p1329
S'other_useful_information'
p1330
sS'503644662780157954'
p1331
S'other_useful_information'
p1332
sS'503643829656768512'
p1333
S'infrastructure_and_utilities_damage'
p1334
sS'503645436360417280'
p1335
S'not_related_or_irrelevant'
p1336
sS'503643529697320960'
p1337
S'other_useful_information'
p1338
sS'503645226565517312'
p1339
S'caution_and_advice'
p1340
sS'503644948411850752'
p1341
S'other_useful_information'
p1342
sS'503643979280175105'
p1343
S'other_useful_information'
p1344
sS'503644659944419328'
p1345
S'infrastructure_and_utilities_damage'
p1346
sS'503644366863212544'
p1347
S'other_useful_information'
p1348
sS'503644058087350272'
p1349
S'other_useful_information'
p1350
sS'503645159536738306'
p1351
S'other_useful_information'
p1352
sS'503644311737475073'
p1353
S'infrastructure_and_utilities_damage'
p1354
sS'503645525250699264'
p1355
S'other_useful_information'
p1356
sS'503645373379125248'
p1357
S'injured_or_dead_people'
p1358
sS'503643726351450112'
p1359
S'injured_or_dead_people'
p1360
sS'503644038017597440'
p1361
S'injured_or_dead_people'
p1362
sS'503644617267761152'
p1363
S'other_useful_information'
p1364
sS'503644841818206209'
p1365
S'infrastructure_and_utilities_damage'
p1366
sS'503644541397004288'
p1367
S'infrastructure_and_utilities_damage'
p1368
sS'503644543757996032'
p1369
S'other_useful_information'
p1370
sS'503644902946013184'
p1371
S'other_useful_information'
p1372
sS'503644282931007488'
p1373
S'injured_or_dead_people'
p1374
sS'503643212112994305'
p1375
S'other_useful_information'
p1376
sS'503645369356402688'
p1377
S'other_useful_information'
p1378
sS'503645400079675392'
p1379
S'donation_needs_or_offers_or_volunteering_services'
p1380
sS'503644709202305024'
p1381
S'other_useful_information'
p1382
sS'503644188479483904'
p1383
S'other_useful_information'
p1384
sS'503643528447016960'
p1385
S'other_useful_information'
p1386
sS'503645282987679744'
p1387
S'infrastructure_and_utilities_damage'
p1388
sS'503645469482827778'
p1389
S'other_useful_information'
p1390
sS'503643618096058368'
p1391
S'other_useful_information'
p1392
sS'503643809310593024'
p1393
S'other_useful_information'
p1394
sS'503644223959097344'
p1395
S'other_useful_information'
p1396
sS'503642984429395968'
p1397
S'other_useful_information'
p1398
sS'503643800208547840'
p1399
S'infrastructure_and_utilities_damage'
p1400
sS'503643559577550848'
p1401
S'other_useful_information'
p1402
sS'503643033909202947'
p1403
S'other_useful_information'
p1404
sS'503643191531167744'
p1405
S'infrastructure_and_utilities_damage'
p1406
sS'503645235222573057'
p1407
S'not_related_or_irrelevant'
p1408
sS'503644802223587328'
p1409
S'infrastructure_and_utilities_damage'
p1410
sS'503643207486283776'
p1411
S'other_useful_information'
p1412
sS'503645577717235712'
p1413
S'other_useful_information'
p1414
sS'503645044575064064'
p1415
S'other_useful_information'
p1416
sS'503644225930805248'
p1417
S'sympathy_and_emotional_support'
p1418
sS'503644248898404352'
p1419
S'infrastructure_and_utilities_damage'
p1420
sS'503643283294142464'
p1421
S'other_useful_information'
p1422
sS'503643517907111936'
p1423
S'infrastructure_and_utilities_damage'
p1424
sS'503643896413696000'
p1425
S'other_useful_information'
p1426
sS'503644166467751936'
p1427
S'injured_or_dead_people'
p1428
sS'503643519719071746'
p1429
S'other_useful_information'
p1430
sS'503643096567926784'
p1431
S'other_useful_information'
p1432
sS'503645330370723843'
p1433
S'not_related_or_irrelevant'
p1434
sS'503645632952041472'
p1435
S'caution_and_advice'
p1436
sS'503644770728947712'
p1437
S'other_useful_information'
p1438
sS'503644355383787520'
p1439
S'other_useful_information'
p1440
sS'503645247868383232'
p1441
S'other_useful_information'
p1442
sS'503643808349687808'
p1443
S'infrastructure_and_utilities_damage'
p1444
sS'503643458708717568'
p1445
S'injured_or_dead_people'
p1446
sS'503643204865236992'
p1447
S'other_useful_information'
p1448
sS'503645155120144384'
p1449
S'not_related_or_irrelevant'
p1450
sS'503643001722118144'
p1451
S'other_useful_information'
p1452
sS'503645289597919232'
p1453
S'infrastructure_and_utilities_damage'
p1454
sS'503644107936645121'
p1455
S'other_useful_information'
p1456
sS'503643180756393984'
p1457
S'other_useful_information'
p1458
sS'503643296577880064'
p1459
S'injured_or_dead_people'
p1460
sS'503645095695233025'
p1461
S'other_useful_information'
p1462
sS'503644013212073984'
p1463
S'infrastructure_and_utilities_damage'
p1464
sS'503645305246470144'
p1465
S'other_useful_information'
p1466
sS'503645475170312192'
p1467
S'not_related_or_irrelevant'
p1468
sS'503645591570620416'
p1469
S'other_useful_information'
p1470
sS'503645469784813568'
p1471
S'other_useful_information'
p1472
sS'503644905345134592'
p1473
S'injured_or_dead_people'
p1474
sS'503643984355291136'
p1475
S'caution_and_advice'
p1476
sS'503643264348467200'
p1477
S'other_useful_information'
p1478
sS'503643271743037441'
p1479
S'not_related_or_irrelevant'
p1480
sS'503645238645518338'
p1481
S'infrastructure_and_utilities_damage'
p1482
sS'503643452748615681'
p1483
S'injured_or_dead_people'
p1484
sS'503643500576272384'
p1485
S'other_useful_information'
p1486
sS'503645383499993088'
p1487
S'other_useful_information'
p1488
sS'503643212108795904'
p1489
S'other_useful_information'
p1490
sS'503644296403103744'
p1491
S'infrastructure_and_utilities_damage'
p1492
sS'503643524487577600'
p1493
S'other_useful_information'
p1494
sS'503644041737560064'
p1495
S'other_useful_information'
p1496
sS'503643343151448065'
p1497
S'infrastructure_and_utilities_damage'
p1498
sS'503645356207665152'
p1499
S'other_useful_information'
p1500
sS'503643323844685825'
p1501
S'other_useful_information'
p1502
sS'503645011096117248'
p1503
S'other_useful_information'
p1504
sS'503644304427216896'
p1505
S'infrastructure_and_utilities_damage'
p1506
sS'503643866767966209'
p1507
S'other_useful_information'
p1508
sS'503644425935781888'
p1509
S'infrastructure_and_utilities_damage'
p1510
sS'503644405480181760'
p1511
S'caution_and_advice'
p1512
sS'503644421070798848'
p1513
S'injured_or_dead_people'
p1514
sS'503643219885031424'
p1515
S'not_related_or_irrelevant'
p1516
sS'503643526375407616'
p1517
S'infrastructure_and_utilities_damage'
p1518
sS'503645317905252352'
p1519
S'not_related_or_irrelevant'
p1520
sS'503643494846836736'
p1521
S'other_useful_information'
p1522
sS'503645213274165250'
p1523
S'other_useful_information'
p1524
sS'503645340306644992'
p1525
S'infrastructure_and_utilities_damage'
p1526
sS'503644704689647617'
p1527
S'other_useful_information'
p1528
sS'503644002986389504'
p1529
S'other_useful_information'
p1530
sS'503643097293914112'
p1531
S'other_useful_information'
p1532
sS'503645466220052480'
p1533
S'injured_or_dead_people'
p1534
sS'503643622198083584'
p1535
S'other_useful_information'
p1536
sS'503642992541171712'
p1537
S'infrastructure_and_utilities_damage'
p1538
sS'503643168941015040'
p1539
S'other_useful_information'
p1540
sS'503643874674630656'
p1541
S'other_useful_information'
p1542
sS'503645116276293632'
p1543
S'other_useful_information'
p1544
sS'503643171352739842'
p1545
S'other_useful_information'
p1546
sS'503644367522123776'
p1547
S'other_useful_information'
p1548
sS'503644676776161280'
p1549
S'infrastructure_and_utilities_damage'
p1550
sS'503643528455790592'
p1551
S'sympathy_and_emotional_support'
p1552
sS'503643972418297856'
p1553
S'other_useful_information'
p1554
sS'503644867747012609'
p1555
S'injured_or_dead_people'
p1556
sS'503644745047228417'
p1557
S'not_related_or_irrelevant'
p1558
sS'503644805650333696'
p1559
S'other_useful_information'
p1560
sS'503643640447905792'
p1561
S'injured_or_dead_people'
p1562
sS'503645146844758016'
p1563
S'donation_needs_or_offers_or_volunteering_services'
p1564
sS'503645426260525056'
p1565
S'sympathy_and_emotional_support'
p1566
sS'503645429058109440'
p1567
S'other_useful_information'
p1568
sS'503643448092942337'
p1569
S'other_useful_information'
p1570
sS'503644486975516673'
p1571
S'other_useful_information'
p1572
sS'503644571130396672'
p1573
S'infrastructure_and_utilities_damage'
p1574
sS'503643217514868736'
p1575
S'other_useful_information'
p1576
sS'503643818466754562'
p1577
S'injured_or_dead_people'
p1578
sS'503644329508749312'
p1579
S'infrastructure_and_utilities_damage'
p1580
sS'503643518276206593'
p1581
S'injured_or_dead_people'
p1582
sS'503643545958641664'
p1583
S'other_useful_information'
p1584
sS'503643485418037249'
p1585
S'not_related_or_irrelevant'
p1586
sS'503643757494161408'
p1587
S'other_useful_information'
p1588
sS'503643868986744832'
p1589
S'not_related_or_irrelevant'
p1590
sS'503644112520630272'
p1591
S'infrastructure_and_utilities_damage'
p1592
sS'503643360381652992'
p1593
S'sympathy_and_emotional_support'
p1594
sS'503643321412378624'
p1595
S'infrastructure_and_utilities_damage'
p1596
sS'503643885600784386'
p1597
S'other_useful_information'
p1598
sS'503645438495694848'
p1599
S'injured_or_dead_people'
p1600
sS'503645448134201344'
p1601
S'other_useful_information'
p1602
sS'503643205879861250'
p1603
S'other_useful_information'
p1604
sS'503645005349527552'
p1605
S'other_useful_information'
p1606
sS'503644250945634305'
p1607
S'other_useful_information'
p1608
sS'503644328359505920'
p1609
S'other_useful_information'
p1610
sS'503645242944663552'
p1611
S'injured_or_dead_people'
p1612
sS'503645172102889472'
p1613
S'other_useful_information'
p1614
sS'503644147933511680'
p1615
S'not_related_or_irrelevant'
p1616
sS'503644237851025410'
p1617
S'other_useful_information'
p1618
sS'503644109480136704'
p1619
S'injured_or_dead_people'
p1620
sS'503645102347014144'
p1621
S'not_related_or_irrelevant'
p1622
sS'503643785759182848'
p1623
S'other_useful_information'
p1624
sS'503644087715917824'
p1625
S'other_useful_information'
p1626
sS'503644281265868800'
p1627
S'other_useful_information'
p1628
sS'503645611871051776'
p1629
S'sympathy_and_emotional_support'
p1630
sS'503643996170633216'
p1631
S'other_useful_information'
p1632
sS'503645043538657280'
p1633
S'other_useful_information'
p1634
sS'503645223369465856'
p1635
S'infrastructure_and_utilities_damage'
p1636
sS'503644949011644416'
p1637
S'caution_and_advice'
p1638
sS'503643484646277121'
p1639
S'other_useful_information'
p1640
sS'503644931341041664'
p1641
S'not_related_or_irrelevant'
p1642
sS'503643516174868480'
p1643
S'other_useful_information'
p1644
sS'503645519529263104'
p1645
S'caution_and_advice'
p1646
sS'503644885908750336'
p1647
S'other_useful_information'
p1648
sS'503644975788089344'
p1649
S'infrastructure_and_utilities_damage'
p1650
sS'503643280400453633'
p1651
S'infrastructure_and_utilities_damage'
p1652
sS'503643332229480448'
p1653
S'caution_and_advice'
p1654
sS'503644232402599937'
p1655
S'infrastructure_and_utilities_damage'
p1656
sS'503643149776875521'
p1657
S'infrastructure_and_utilities_damage'
p1658
sS'503645559568498690'
p1659
S'not_related_or_irrelevant'
p1660
sS'503644663526354944'
p1661
S'other_useful_information'
p1662
sS'503643717891149824'
p1663
S'infrastructure_and_utilities_damage'
p1664
sS'503645439795548160'
p1665
S'other_useful_information'
p1666
sS'503643451490324480'
p1667
S'other_useful_information'
p1668
sS'503645225659957249'
p1669
S'infrastructure_and_utilities_damage'
p1670
sS'503645628732170240'
p1671
S'other_useful_information'
p1672
sS'503642995879849985'
p1673
S'other_useful_information'
p1674
sS'503643244337451008'
p1675
S'other_useful_information'
p1676
sS'503644329316196352'
p1677
S'other_useful_information'
p1678
sS'503644280439570432'
p1679
S'caution_and_advice'
p1680
sS'503643697834389505'
p1681
S'sympathy_and_emotional_support'
p1682
sS'503643300877058049'
p1683
S'caution_and_advice'
p1684
sS'503643822073446400'
p1685
S'other_useful_information'
p1686
sS'503645484104167424'
p1687
S'other_useful_information'
p1688
sS'503643509052932097'
p1689
S'other_useful_information'
p1690
sS'503644346517049344'
p1691
S'other_useful_information'
p1692
sS'503643117648486400'
p1693
S'injured_or_dead_people'
p1694
sS'503643127132221440'
p1695
S'other_useful_information'
p1696
sS'503643568888881152'
p1697
S'other_useful_information'
p1698
sS'503645371428384768'
p1699
S'other_useful_information'
p1700
sS'503643298657861632'
p1701
S'other_useful_information'
p1702
sS'503643703249235968'
p1703
S'other_useful_information'
p1704
sS'503643904017985536'
p1705
S'other_useful_information'
p1706
sS'503643237022564352'
p1707
S'other_useful_information'
p1708
sS'503643849370386432'
p1709
S'other_useful_information'
p1710
sS'503643517512851456'
p1711
S'sympathy_and_emotional_support'
p1712
sS'503643532541046784'
p1713
S'other_useful_information'
p1714
sS'503645605353095169'
p1715
S'injured_or_dead_people'
p1716
sS'503643561511112706'
p1717
S'other_useful_information'
p1718
sS'503643341205299200'
p1719
S'infrastructure_and_utilities_damage'
p1720
sS'503643305352372224'
p1721
S'injured_or_dead_people'
p1722
sS'503644686452809728'
p1723
S'other_useful_information'
p1724
sS'503643657137041409'
p1725
S'infrastructure_and_utilities_damage'
p1726
sS'503643473434906624'
p1727
S'other_useful_information'
p1728
sS'503645214926307328'
p1729
S'other_useful_information'
p1730
sS'503644008120188928'
p1731
S'other_useful_information'
p1732
sS'503643583069839360'
p1733
S'other_useful_information'
p1734
sS'503643971193544704'
p1735
S'injured_or_dead_people'
p1736
sS'503643056629768192'
p1737
S'other_useful_information'
p1738
sS'503645591839072257'
p1739
S'infrastructure_and_utilities_damage'
p1740
sS'503644309884002306'
p1741
S'injured_or_dead_people'
p1742
sS'503643218278240256'
p1743
S'not_related_or_irrelevant'
p1744
sS'503644146587168768'
p1745
S'other_useful_information'
p1746
sS'503643678305300480'
p1747
S'injured_or_dead_people'
p1748
sS'503643009817128960'
p1749
S'injured_or_dead_people'
p1750
sS'503645274342838272'
p1751
S'other_useful_information'
p1752
sS'503643040171700225'
p1753
S'caution_and_advice'
p1754
sS'503644800814309376'
p1755
S'injured_or_dead_people'
p1756
sS'503643011990183936'
p1757
S'other_useful_information'
p1758
sS'503643599293386752'
p1759
S'infrastructure_and_utilities_damage'
p1760
sS'503645270446702593'
p1761
S'other_useful_information'
p1762
sS'503644244599640064'
p1763
S'infrastructure_and_utilities_damage'
p1764
sS'503643992878088192'
p1765
S'other_useful_information'
p1766
sS'503643485493559299'
p1767
S'infrastructure_and_utilities_damage'
p1768
sS'503643250842796032'
p1769
S'other_useful_information'
p1770
sS'503644208289173504'
p1771
S'other_useful_information'
p1772
sS'503643497703153664'
p1773
S'donation_needs_or_offers_or_volunteering_services'
p1774
sS'503644312979009536'
p1775
S'other_useful_information'
p1776
sS'503645602358362112'
p1777
S'other_useful_information'
p1778
sS'503644694476488704'
p1779
S'other_useful_information'
p1780
sS'503643571254075393'
p1781
S'sympathy_and_emotional_support'
p1782
sS'503645174958804992'
p1783
S'sympathy_and_emotional_support'
p1784
sS'503645053978705920'
p1785
S'not_related_or_irrelevant'
p1786
sS'503645294420951041'
p1787
S'not_related_or_irrelevant'
p1788
sS'503645549178785792'
p1789
S'other_useful_information'
p1790
sS'503643341905752064'
p1791
S'other_useful_information'
p1792
sS'503645250091757568'
p1793
S'caution_and_advice'
p1794
sS'503643728863436800'
p1795
S'sympathy_and_emotional_support'
p1796
sS'503643952122048512'
p1797
S'infrastructure_and_utilities_damage'
p1798
sS'503643740633038850'
p1799
S'injured_or_dead_people'
p1800
sS'503643822812057600'
p1801
S'other_useful_information'
p1802
sS'503644369065218049'
p1803
S'caution_and_advice'
p1804
sS'503644950525775872'
p1805
S'infrastructure_and_utilities_damage'
p1806
sS'503643697981169664'
p1807
S'infrastructure_and_utilities_damage'
p1808
sS'503645178906050561'
p1809
S'other_useful_information'
p1810
sS'503643291150458880'
p1811
S'donation_needs_or_offers_or_volunteering_services'
p1812
sS'503643308460347392'
p1813
S'injured_or_dead_people'
p1814
sS'503645572113661953'
p1815
S'other_useful_information'
p1816
sS'503643965791293440'
p1817
S'other_useful_information'
p1818
sS'503643692591095808'
p1819
S'not_related_or_irrelevant'
p1820
sS'503643808144572416'
p1821
S'other_useful_information'
p1822
sS'503645598680363010'
p1823
S'other_useful_information'
p1824
sS'503643197294514176'
p1825
S'other_useful_information'
p1826
sS'503644364451487744'
p1827
S'other_useful_information'
p1828
sS'503644241713586176'
p1829
S'caution_and_advice'
p1830
sS'503645540542738432'
p1831
S'other_useful_information'
p1832
sS'503643315548323840'
p1833
S'not_related_or_irrelevant'
p1834
sS'503645537238003713'
p1835
S'injured_or_dead_people'
p1836
sS'503645448754962434'
p1837
S'injured_or_dead_people'
p1838
sS'503645162233290752'
p1839
S'sympathy_and_emotional_support'
p1840
sS'503644933316542464'
p1841
S'other_useful_information'
p1842
sS'503644180917125121'
p1843
S'other_useful_information'
p1844
sS'503643812518838272'
p1845
S'other_useful_information'
p1846
sS'503645136426119168'
p1847
S'other_useful_information'
p1848
sS'503645568942747648'
p1849
S'other_useful_information'
p1850
sS'503644914849042432'
p1851
S'not_related_or_irrelevant'
p1852
sS'503643507215839235'
p1853
S'other_useful_information'
p1854
sS'503644213381050368'
p1855
S'other_useful_information'
p1856
sS'503643618041528320'
p1857
S'other_useful_information'
p1858
sS'503643551025348609'
p1859
S'not_related_or_irrelevant'
p1860
sS'503645283457064960'
p1861
S'injured_or_dead_people'
p1862
sS'503645560142708736'
p1863
S'other_useful_information'
p1864
sS'503645445416304640'
p1865
S'not_related_or_irrelevant'
p1866
sS'503643467869085696'
p1867
S'other_useful_information'
p1868
sS'503645339211952128'
p1869
S'injured_or_dead_people'
p1870
sS'503645453766778880'
p1871
S'other_useful_information'
p1872
sS'503643507865968641'
p1873
S'donation_needs_or_offers_or_volunteering_services'
p1874
sS'503643668272529408'
p1875
S'infrastructure_and_utilities_damage'
p1876
sS'503643499808718850'
p1877
S'infrastructure_and_utilities_damage'
p1878
sS'503643180412436480'
p1879
S'other_useful_information'
p1880
sS'503644713761517568'
p1881
S'donation_needs_or_offers_or_volunteering_services'
p1882
sS'503644316535758848'
p1883
S'other_useful_information'
p1884
sS'503645436129714176'
p1885
S'other_useful_information'
p1886
sS'503645102385143809'
p1887
S'other_useful_information'
p1888
sS'503643863077380096'
p1889
S'other_useful_information'
p1890
sS'503645074786222080'
p1891
S'other_useful_information'
p1892
sS'503644423079464961'
p1893
S'other_useful_information'
p1894
sS'503644955743485952'
p1895
S'infrastructure_and_utilities_damage'
p1896
sS'503644819009187842'
p1897
S'injured_or_dead_people'
p1898
sS'503644231257165824'
p1899
S'infrastructure_and_utilities_damage'
p1900
sS'503644288501436416'
p1901
S'caution_and_advice'
p1902
sS'503644458899243008'
p1903
S'injured_or_dead_people'
p1904
sS'503643464047681536'
p1905
S'injured_or_dead_people'
p1906
sS'503644125586259968'
p1907
S'infrastructure_and_utilities_damage'
p1908
sS'503644869500227584'
p1909
S'other_useful_information'
p1910
sS'503643344946601984'
p1911
S'caution_and_advice'
p1912
sS'503645490143952897'
p1913
S'other_useful_information'
p1914
sS'503644172688318468'
p1915
S'other_useful_information'
p1916
sS'503645461924687872'
p1917
S'other_useful_information'
p1918
sS'503644158310248448'
p1919
S'other_useful_information'
p1920
sS'503643506100150274'
p1921
S'missing_trapped_or_found_people'
p1922
sS'503645456820617217'
p1923
S'other_useful_information'
p1924
sS'503644710951714816'
p1925
S'other_useful_information'
p1926
sS'503644240522391552'
p1927
S'other_useful_information'
p1928
sS'503645593705529344'
p1929
S'other_useful_information'
p1930
sS'503644845479837696'
p1931
S'infrastructure_and_utilities_damage'
p1932
sS'503643365771341825'
p1933
S'sympathy_and_emotional_support'
p1934
sS'503645123133964288'
p1935
S'other_useful_information'
p1936
sS'503645436838952960'
p1937
S'injured_or_dead_people'
p1938
sS'503643494725197824'
p1939
S'infrastructure_and_utilities_damage'
p1940
sS'503643739836133376'
p1941
S'infrastructure_and_utilities_damage'
p1942
sS'503645129983660032'
p1943
S'infrastructure_and_utilities_damage'
p1944
sS'503644079729565697'
p1945
S'other_useful_information'
p1946
sS'503644489786085378'
p1947
S'injured_or_dead_people'
p1948
sS'503645131883286528'
p1949
S'other_useful_information'
p1950
sS'503643279083061248'
p1951
S'infrastructure_and_utilities_damage'
p1952
sS'503643365850628097'
p1953
S'caution_and_advice'
p1954
sS'503644135610273792'
p1955
S'other_useful_information'
p1956
sS'503643715987337216'
p1957
S'other_useful_information'
p1958
sS'503643826050052096'
p1959
S'other_useful_information'
p1960
sS'503643838406479872'
p1961
S'infrastructure_and_utilities_damage'
p1962
sS'503643466073915393'
p1963
S'other_useful_information'
p1964
sS'503644137904537601'
p1965
S'other_useful_information'
p1966
sS'503645293867302912'
p1967
S'caution_and_advice'
p1968
sS'503643479025909761'
p1969
S'other_useful_information'
p1970
sS'503644512636637185'
p1971
S'injured_or_dead_people'
p1972
sS'503644974131707904'
p1973
S'donation_needs_or_offers_or_volunteering_services'
p1974
sS'503645380249018368'
p1975
S'infrastructure_and_utilities_damage'
p1976
sS'503644323577991168'
p1977
S'other_useful_information'
p1978
sS'503645447869591552'
p1979
S'infrastructure_and_utilities_damage'
p1980
sS'503643727491907584'
p1981
S'other_useful_information'
p1982
sS'503644474556551170'
p1983
S'caution_and_advice'
p1984
sS'503643302915489795'
p1985
S'other_useful_information'
p1986
sS'503643465667076096'
p1987
S'other_useful_information'
p1988
sS'503643013852463104'
p1989
S'infrastructure_and_utilities_damage'
p1990
sS'503644487789182977'
p1991
S'other_useful_information'
p1992
sS'503643597259157504'
p1993
S'other_useful_information'
p1994
sS'503643175550861314'
p1995
S'other_useful_information'
p1996
sS'503643656939520000'
p1997
S'other_useful_information'
p1998
sS'503645289987600385'
p1999
S'other_useful_information'
p2000
sS'503644895353905152'
p2001
S'infrastructure_and_utilities_damage'
p2002
sS'503645022244200448'
p2003
S'other_useful_information'
p2004
sS'503643870563794944'
p2005
S'other_useful_information'
p2006
sS'503643104709066752'
p2007
S'other_useful_information'
p2008
sS'503643902763876354'
p2009
S'injured_or_dead_people'
p2010
sS'503644355513442304'
p2011
S'infrastructure_and_utilities_damage'
p2012
sS'503643317704212480'
p2013
S'caution_and_advice'
p2014
sS'503645567587999744'
p2015
S'injured_or_dead_people'
p2016
sS'503643727294779392'
p2017
S'displaced_people_and_evacuations'
p2018
sS'503645593088978944'
p2019
S'other_useful_information'
p2020
sS'503643290307403776'
p2021
S'other_useful_information'
p2022
sS'503643867632386048'
p2023
S'injured_or_dead_people'
p2024
sS'503643965292150784'
p2025
S'sympathy_and_emotional_support'
p2026
sS'503644160419586048'
p2027
S'other_useful_information'
p2028
sS'503645024949530624'
p2029
S'infrastructure_and_utilities_damage'
p2030
sS'503644857777524736'
p2031
S'not_related_or_irrelevant'
p2032
sS'503644006048206848'
p2033
S'infrastructure_and_utilities_damage'
p2034
sS'503645279711539200'
p2035
S'other_useful_information'
p2036
sS'503644193776865280'
p2037
S'other_useful_information'
p2038
sS'503644562016178177'
p2039
S'infrastructure_and_utilities_damage'
p2040
sS'503644196771610624'
p2041
S'other_useful_information'
p2042
sS'503644737815851009'
p2043
S'other_useful_information'
p2044
sS'503644337721188352'
p2045
S'injured_or_dead_people'
p2046
sS'503644573906653184'
p2047
S'sympathy_and_emotional_support'
p2048
sS'503643128994086912'
p2049
S'other_useful_information'
p2050
sS'503644946109181952'
p2051
S'other_useful_information'
p2052
sS'503645383856103424'
p2053
S'infrastructure_and_utilities_damage'
p2054
sS'503643692176269312'
p2055
S'other_useful_information'
p2056
sS'503643325715730432'
p2057
S'caution_and_advice'
p2058
sS'503645057157586944'
p2059
S'injured_or_dead_people'
p2060
sS'503644518689013762'
p2061
S'sympathy_and_emotional_support'
p2062
sS'503643506141708288'
p2063
S'other_useful_information'
p2064
sS'503645505541652480'
p2065
S'injured_or_dead_people'
p2066
sS'503645245003677696'
p2067
S'other_useful_information'
p2068
sS'503643956790308864'
p2069
S'other_useful_information'
p2070
sS'503645179807416320'
p2071
S'injured_or_dead_people'
p2072
sS'503643359794434049'
p2073
S'infrastructure_and_utilities_damage'
p2074
sS'503645372590219265'
p2075
S'injured_or_dead_people'
p2076
sS'503644841272950785'
p2077
S'other_useful_information'
p2078
sS'503645582893019137'
p2079
S'injured_or_dead_people'
p2080
sS'503645618384809984'
p2081
S'not_related_or_irrelevant'
p2082
sS'503643533647949825'
p2083
S'infrastructure_and_utilities_damage'
p2084
sS'503644070153969665'
p2085
S'infrastructure_and_utilities_damage'
p2086
sS'503643366580424704'
p2087
S'other_useful_information'
p2088
sS'503644800789123073'
p2089
S'other_useful_information'
p2090
sS'503643920752852992'
p2091
S'other_useful_information'
p2092
sS'503645225214951424'
p2093
S'other_useful_information'
p2094
sS'503643310557503488'
p2095
S'other_useful_information'
p2096
sS'503644726734516224'
p2097
S'other_useful_information'
p2098
sS'503644108943286272'
p2099
S'other_useful_information'
p2100
sS'503644918146158593'
p2101
S'other_useful_information'
p2102
sS'503645180017524736'
p2103
S'other_useful_information'
p2104
sS'503643490316607488'
p2105
S'other_useful_information'
p2106
sS'503643352106299392'
p2107
S'not_related_or_irrelevant'
p2108
sS'503645291586015232'
p2109
S'other_useful_information'
p2110
sS'503643780265046016'
p2111
S'displaced_people_and_evacuations'
p2112
sS'503643452140453889'
p2113
S'other_useful_information'
p2114
sS'503644910386704384'
p2115
S'other_useful_information'
p2116
sS'503643995265048576'
p2117
S'other_useful_information'
p2118
sS'503645353531695105'
p2119
S'other_useful_information'
p2120
sS'503644402170863616'
p2121
S'other_useful_information'
p2122
sS'503643779036098560'
p2123
S'other_useful_information'
p2124
sS'503645300506914816'
p2125
S'injured_or_dead_people'
p2126
sS'503645238447988736'
p2127
S'injured_or_dead_people'
p2128
sS'503645455415119872'
p2129
S'donation_needs_or_offers_or_volunteering_services'
p2130
sS'503643360469725184'
p2131
S'other_useful_information'
p2132
sS'503643493286567936'
p2133
S'other_useful_information'
p2134
sS'503643677437464577'
p2135
S'not_related_or_irrelevant'
p2136
sS'503643229460262912'
p2137
S'infrastructure_and_utilities_damage'
p2138
sS'503643887169454081'
p2139
S'infrastructure_and_utilities_damage'
p2140
sS'503643797319069696'
p2141
S'caution_and_advice'
p2142
sS'503643510911021056'
p2143
S'other_useful_information'
p2144
sS'503643505336782848'
p2145
S'other_useful_information'
p2146
sS'503644784381415425'
p2147
S'infrastructure_and_utilities_damage'
p2148
sS'503643995013001216'
p2149
S'other_useful_information'
p2150
sS'503644991239909376'
p2151
S'infrastructure_and_utilities_damage'
p2152
sS'503643820622622720'
p2153
S'donation_needs_or_offers_or_volunteering_services'
p2154
sS'503644131374014464'
p2155
S'infrastructure_and_utilities_damage'
p2156
sS'503643551138607105'
p2157
S'not_related_or_irrelevant'
p2158
sS'503645117404553216'
p2159
S'other_useful_information'
p2160
sS'503643968786427905'
p2161
S'other_useful_information'
p2162
sS'503644918078660608'
p2163
S'infrastructure_and_utilities_damage'
p2164
sS'503644606907826176'
p2165
S'other_useful_information'
p2166
sS'503645218063654912'
p2167
S'other_useful_information'
p2168
sS'503644322643054592'
p2169
S'other_useful_information'
p2170
sS'503643449988751361'
p2171
S'other_useful_information'
p2172
sS'503644352552660992'
p2173
S'donation_needs_or_offers_or_volunteering_services'
p2174
sS'503643259571167232'
p2175
S'infrastructure_and_utilities_damage'
p2176
sS'503643489956290560'
p2177
S'infrastructure_and_utilities_damage'
p2178
sS'503644698402361344'
p2179
S'caution_and_advice'
p2180
sS'503644869458677761'
p2181
S'other_useful_information'
p2182
sS'503644172889636864'
p2183
S'other_useful_information'
p2184
sS'503643460797485056'
p2185
S'not_related_or_irrelevant'
p2186
sS'503644329835892736'
p2187
S'infrastructure_and_utilities_damage'
p2188
sS'503643366446608384'
p2189
S'infrastructure_and_utilities_damage'
p2190
sS'503643362658750464'
p2191
S'donation_needs_or_offers_or_volunteering_services'
p2192
sS'503643357495963648'
p2193
S'caution_and_advice'
p2194
sS'503643289317552128'
p2195
S'infrastructure_and_utilities_damage'
p2196
sS'503645420875423746'
p2197
S'injured_or_dead_people'
p2198
sS'503644744199573504'
p2199
S'other_useful_information'
p2200
sS'503643491143282688'
p2201
S'infrastructure_and_utilities_damage'
p2202
sS'503643238574456832'
p2203
S'other_useful_information'
p2204
sS'503645460574531584'
p2205
S'injured_or_dead_people'
p2206
sS'503644466885193728'
p2207
S'other_useful_information'
p2208
sS'503643644180824064'
p2209
S'other_useful_information'
p2210
sS'503644771429412864'
p2211
S'injured_or_dead_people'
p2212
sS'503644297900875777'
p2213
S'caution_and_advice'
p2214
sS'503643683015888896'
p2215
S'other_useful_information'
p2216
sS'503643309190156288'
p2217
S'other_useful_information'
p2218
sS'503643216084602880'
p2219
S'infrastructure_and_utilities_damage'
p2220
sS'503644960588333056'
p2221
S'not_related_or_irrelevant'
p2222
sS'503643946795274242'
p2223
S'other_useful_information'
p2224
sS'503645288754470915'
p2225
S'other_useful_information'
p2226
sS'503645561388806144'
p2227
S'injured_or_dead_people'
p2228
sS'503643450034491392'
p2229
S'other_useful_information'
p2230
sS'503645237776875520'
p2231
S'other_useful_information'
p2232
sS'503643985429024768'
p2233
S'other_useful_information'
p2234
sS'503644377227350016'
p2235
S'other_useful_information'
p2236
sS'503644898449293312'
p2237
S'other_useful_information'
p2238
sS'503643033905410048'
p2239
S'other_useful_information'
p2240
sS'503643843078942720'
p2241
S'other_useful_information'
p2242
sS'503643561116450816'
p2243
S'infrastructure_and_utilities_damage'
p2244
sS'503643356715835392'
p2245
S'other_useful_information'
p2246
sS'503643245361242112'
p2247
S'infrastructure_and_utilities_damage'
p2248
sS'503645610197544960'
p2249
S'caution_and_advice'
p2250
sS'503643156668096513'
p2251
S'infrastructure_and_utilities_damage'
p2252
sS'503644079373025280'
p2253
S'other_useful_information'
p2254
sS'503643285572055042'
p2255
S'not_related_or_irrelevant'
p2256
sS'503643480372314112'
p2257
S'other_useful_information'
p2258
sS'503645585032085508'
p2259
S'injured_or_dead_people'
p2260
sS'503644694295769088'
p2261
S'other_useful_information'
p2262
sS'503645609371246592'
p2263
S'not_related_or_irrelevant'
p2264
sS'503645594926469120'
p2265
S'infrastructure_and_utilities_damage'
p2266
sS'503644182255132672'
p2267
S'other_useful_information'
p2268
sS'503643746265997312'
p2269
S'sympathy_and_emotional_support'
p2270
sS'503643475544645632'
p2271
S'other_useful_information'
p2272
sS'503643916055224320'
p2273
S'other_useful_information'
p2274
sS'503645446498430976'
p2275
S'other_useful_information'
p2276
sS'503643330551775232'
p2277
S'infrastructure_and_utilities_damage'
p2278
sS'503643811290304512'
p2279
S'other_useful_information'
p2280
sS'503643524840308737'
p2281
S'infrastructure_and_utilities_damage'
p2282
sS'503644945614262272'
p2283
S'other_useful_information'
p2284
sS'503645219917922304'
p2285
S'donation_needs_or_offers_or_volunteering_services'
p2286
sS'503644219425050626'
p2287
S'other_useful_information'
p2288
sS'503645376532848640'
p2289
S'other_useful_information'
p2290
sS'503645362532270080'
p2291
S'infrastructure_and_utilities_damage'
p2292
sS'503643210892464128'
p2293
S'sympathy_and_emotional_support'
p2294
sS'503643553608646657'
p2295
S'infrastructure_and_utilities_damage'
p2296
sS'503643320405725184'
p2297
S'other_useful_information'
p2298
sS'503644185904574465'
p2299
S'other_useful_information'
p2300
sS'503645043010584576'
p2301
S'other_useful_information'
p2302
sS'503644490792701953'
p2303
S'other_useful_information'
p2304
sS'503644526792433664'
p2305
S'other_useful_information'
p2306
sS'503645478882250752'
p2307
S'donation_needs_or_offers_or_volunteering_services'
p2308
sS'503644681402859520'
p2309
S'other_useful_information'
p2310
sS'503644993727516672'
p2311
S'caution_and_advice'
p2312
sS'503644148122263552'
p2313
S'other_useful_information'
p2314
sS'503645005290823681'
p2315
S'other_useful_information'
p2316
sS'503644938798522368'
p2317
S'infrastructure_and_utilities_damage'
p2318
sS'503644494013558784'
p2319
S'not_related_or_irrelevant'
p2320
sS'503644977407483904'
p2321
S'not_related_or_irrelevant'
p2322
sS'503643151970869249'
p2323
S'other_useful_information'
p2324
sS'503643481244725248'
p2325
S'other_useful_information'
p2326
sS'503643611486248961'
p2327
S'other_useful_information'
p2328
sS'503643196945997825'
p2329
S'other_useful_information'
p2330
sS'503645532242194432'
p2331
S'other_useful_information'
p2332
sS'503644024654548992'
p2333
S'other_useful_information'
p2334
sS'503643806013857793'
p2335
S'other_useful_information'
p2336
sS'503643666070921216'
p2337
S'not_related_or_irrelevant'
p2338
sS'503643171775983616'
p2339
S'sympathy_and_emotional_support'
p2340
sS'503644931567935490'
p2341
S'infrastructure_and_utilities_damage'
p2342
sS'503643449279938561'
p2343
S'other_useful_information'
p2344
sS'503643972284055552'
p2345
S'injured_or_dead_people'
p2346
sS'503644293819797504'
p2347
S'other_useful_information'
p2348
sS'503643613780516865'
p2349
S'other_useful_information'
p2350
sS'503643954731294722'
p2351
S'donation_needs_or_offers_or_volunteering_services'
p2352
sS'503643364827598848'
p2353
S'not_related_or_irrelevant'
p2354
sS'503644209430409217'
p2355
S'other_useful_information'
p2356
sS'503644952845234177'
p2357
S'caution_and_advice'
p2358
sS'503645286942515200'
p2359
S'sympathy_and_emotional_support'
p2360
sS'503643509929558016'
p2361
S'other_useful_information'
p2362
sS'503643198116225024'
p2363
S'other_useful_information'
p2364
sS'503643538081726464'
p2365
S'infrastructure_and_utilities_damage'
p2366
sS'503645170060259328'
p2367
S'sympathy_and_emotional_support'
p2368
sS'503644220419502080'
p2369
S'other_useful_information'
p2370
sS'503644971879002112'
p2371
S'other_useful_information'
p2372
sS'503643162515349505'
p2373
S'other_useful_information'
p2374
sS'503643464899518464'
p2375
S'other_useful_information'
p2376
sS'503643683267571712'
p2377
S'infrastructure_and_utilities_damage'
p2378
sS'503643202125955073'
p2379
S'infrastructure_and_utilities_damage'
p2380
sS'503643903762104320'
p2381
S'other_useful_information'
p2382
sS'503644636414767105'
p2383
S'caution_and_advice'
p2384
sS'503644917617283073'
p2385
S'injured_or_dead_people'
p2386
sS'503644463944589312'
p2387
S'injured_or_dead_people'
p2388
sS'503643095204782081'
p2389
S'other_useful_information'
p2390
sS'503644199095644160'
p2391
S'sympathy_and_emotional_support'
p2392
sS'503644018488905728'
p2393
S'infrastructure_and_utilities_damage'
p2394
sS'503644081982304256'
p2395
S'injured_or_dead_people'
p2396
sS'503643548093526016'
p2397
S'other_useful_information'
p2398
sS'503644239285088256'
p2399
S'other_useful_information'
p2400
sS'503644523646316544'
p2401
S'injured_or_dead_people'
p2402
sS'503644579875540992'
p2403
S'other_useful_information'
p2404
sS'503644266871394304'
p2405
S'caution_and_advice'
p2406
sS'503644541371822080'
p2407
S'infrastructure_and_utilities_damage'
p2408
sS'503643687889272832'
p2409
S'injured_or_dead_people'
p2410
sS'503644432663863296'
p2411
S'injured_or_dead_people'
p2412
sS'503644727149723648'
p2413
S'donation_needs_or_offers_or_volunteering_services'
p2414
sS'503645013793062912'
p2415
S'infrastructure_and_utilities_damage'
p2416
sS'503643260590759936'
p2417
S'injured_or_dead_people'
p2418
sS'503644298731339776'
p2419
S'other_useful_information'
p2420
sS'503644307719720961'
p2421
S'sympathy_and_emotional_support'
p2422
sS'503644805583228928'
p2423
S'other_useful_information'
p2424
sS'503643762690514944'
p2425
S'other_useful_information'
p2426
sS'503643686182596609'
p2427
S'other_useful_information'
p2428
sS'503645442614497280'
p2429
S'other_useful_information'
p2430
sS'503643716465086464'
p2431
S'other_useful_information'
p2432
sS'503644063934218242'
p2433
S'other_useful_information'
p2434
sS'503645232697974784'
p2435
S'other_useful_information'
p2436
sS'503643216424357888'
p2437
S'sympathy_and_emotional_support'
p2438
sS'503643594729598976'
p2439
S'other_useful_information'
p2440
sS'503643781603028994'
p2441
S'infrastructure_and_utilities_damage'
p2442
sS'503643306291896320'
p2443
S'not_related_or_irrelevant'
p2444
sS'503643450680803328'
p2445
S'other_useful_information'
p2446
sS'503645207590486017'
p2447
S'other_useful_information'
p2448
sS'503643054327484418'
p2449
S'injured_or_dead_people'
p2450
sS'503644735618428929'
p2451
S'other_useful_information'
p2452
sS'503643537536069633'
p2453
S'other_useful_information'
p2454
sS'503643205280468992'
p2455
S'injured_or_dead_people'
p2456
sS'503645351069626370'
p2457
S'infrastructure_and_utilities_damage'
p2458
sS'503644162466795522'
p2459
S'not_related_or_irrelevant'
p2460
sS'503643553999126528'
p2461
S'other_useful_information'
p2462
sS'503643927124406273'
p2463
S'other_useful_information'
p2464
sS'503644015145676800'
p2465
S'other_useful_information'
p2466
sS'503643972485406721'
p2467
S'other_useful_information'
p2468
sS'503644334093512704'
p2469
S'other_useful_information'
p2470
sS'503643357688500225'
p2471
S'infrastructure_and_utilities_damage'
p2472
sS'503645334414049280'
p2473
S'other_useful_information'
p2474
sS'503643600719052801'
p2475
S'infrastructure_and_utilities_damage'
p2476
sS'503644348828090368'
p2477
S'infrastructure_and_utilities_damage'
p2478
sS'503643612609921024'
p2479
S'injured_or_dead_people'
p2480
sS'503644540729708545'
p2481
S'other_useful_information'
p2482
sS'503645367934918656'
p2483
S'infrastructure_and_utilities_damage'
p2484
sS'503643580552839168'
p2485
S'other_useful_information'
p2486
sS'503644089158733825'
p2487
S'other_useful_information'
p2488
sS'503643917770694656'
p2489
S'other_useful_information'
p2490
sS'503645323970224130'
p2491
S'infrastructure_and_utilities_damage'
p2492
sS'503643821817602048'
p2493
S'other_useful_information'
p2494
sS'503645257804689409'
p2495
S'injured_or_dead_people'
p2496
sS'503645627415154688'
p2497
S'not_related_or_irrelevant'
p2498
sS'503645219670085632'
p2499
S'other_useful_information'
p2500
sS'503643262541111296'
p2501
S'other_useful_information'
p2502
sS'503643345496047616'
p2503
S'not_related_or_irrelevant'
p2504
sS'503645498415513600'
p2505
S'other_useful_information'
p2506
sS'503643362075742208'
p2507
S'infrastructure_and_utilities_damage'
p2508
sS'503644449210384384'
p2509
S'other_useful_information'
p2510
sS'503645551435333634'
p2511
S'other_useful_information'
p2512
sS'503644544932384769'
p2513
S'other_useful_information'
p2514
sS'503643344644239360'
p2515
S'not_related_or_irrelevant'
p2516
sS'503644709525274624'
p2517
S'other_useful_information'
p2518
sS'503643549456273409'
p2519
S'infrastructure_and_utilities_damage'
p2520
sS'503645207355592704'
p2521
S'injured_or_dead_people'
p2522
sS'503644950995537920'
p2523
S'injured_or_dead_people'
p2524
sS'503643331281555456'
p2525
S'other_useful_information'
p2526
sS'503643477683752961'
p2527
S'not_related_or_irrelevant'
p2528
sS'503644610485571584'
p2529
S'other_useful_information'
p2530
sS'503643339187830784'
p2531
S'not_related_or_irrelevant'
p2532
sS'503644311968178176'
p2533
S'not_related_or_irrelevant'
p2534
sS'503645243539861504'
p2535
S'injured_or_dead_people'
p2536
sS'503643474768703489'
p2537
S'other_useful_information'
p2538
sS'503643719061757952'
p2539
S'other_useful_information'
p2540
sS'503643682860716032'
p2541
S'other_useful_information'
p2542
sS'503645094181085185'
p2543
S'other_useful_information'
p2544
sS'503645461266169856'
p2545
S'other_useful_information'
p2546
sS'503644930187993089'
p2547
S'infrastructure_and_utilities_damage'
p2548
sS'503645495689224193'
p2549
S'infrastructure_and_utilities_damage'
p2550
sS'503643923596599296'
p2551
S'infrastructure_and_utilities_damage'
p2552
sS'503645418459103232'
p2553
S'other_useful_information'
p2554
sS'503644457259245568'
p2555
S'not_related_or_irrelevant'
p2556
sS'503645433244426240'
p2557
S'other_useful_information'
p2558
sS'503643665416208384'
p2559
S'other_useful_information'
p2560
sS'503644565849374722'
p2561
S'donation_needs_or_offers_or_volunteering_services'
p2562
sS'503645477456187394'
p2563
S'other_useful_information'
p2564
sS'503643525712736256'
p2565
S'infrastructure_and_utilities_damage'
p2566
sS'503645228130004992'
p2567
S'other_useful_information'
p2568
sS'503645441301311489'
p2569
S'infrastructure_and_utilities_damage'
p2570
sS'503644429195173888'
p2571
S'displaced_people_and_evacuations'
p2572
sS'503644807839748096'
p2573
S'other_useful_information'
p2574
sS'503643166453825537'
p2575
S'donation_needs_or_offers_or_volunteering_services'
p2576
sS'503644311721111554'
p2577
S'injured_or_dead_people'
p2578
sS'503643693455134720'
p2579
S'infrastructure_and_utilities_damage'
p2580
sS'503645431490805760'
p2581
S'donation_needs_or_offers_or_volunteering_services'
p2582
sS'503645423370645504'
p2583
S'not_related_or_irrelevant'
p2584
sS'503643989992407040'
p2585
S'sympathy_and_emotional_support'
p2586
sS'503644740609654784'
p2587
S'injured_or_dead_people'
p2588
sS'503644183417339905'
p2589
S'injured_or_dead_people'
p2590
sS'503645400704630784'
p2591
S'infrastructure_and_utilities_damage'
p2592
sS'503645131342229504'
p2593
S'other_useful_information'
p2594
sS'503644306461048832'
p2595
S'other_useful_information'
p2596
sS'503644319728033792'
p2597
S'donation_needs_or_offers_or_volunteering_services'
p2598
sS'503644574019907584'
p2599
S'sympathy_and_emotional_support'
p2600
sS'503644907635245058'
p2601
S'other_useful_information'
p2602
sS'503643619707068416'
p2603
S'other_useful_information'
p2604
sS'503643865962651648'
p2605
S'infrastructure_and_utilities_damage'
p2606
sS'503643674799255552'
p2607
S'injured_or_dead_people'
p2608
sS'503643460101230594'
p2609
S'other_useful_information'
p2610
sS'503643650224451584'
p2611
S'other_useful_information'
p2612
sS'503644192552546304'
p2613
S'other_useful_information'
p2614
sS'503644609839632384'
p2615
S'sympathy_and_emotional_support'
p2616
sS'503643987576909825'
p2617
S'other_useful_information'
p2618
sS'503643214180392961'
p2619
S'infrastructure_and_utilities_damage'
p2620
sS'503643353146064896'
p2621
S'infrastructure_and_utilities_damage'
p2622
sS'503645042398208000'
p2623
S'other_useful_information'
p2624
sS'503643491852111872'
p2625
S'donation_needs_or_offers_or_volunteering_services'
p2626
sS'503644497948192768'
p2627
S'infrastructure_and_utilities_damage'
p2628
sS'503643774996996096'
p2629
S'infrastructure_and_utilities_damage'
p2630
sS'503643077836546048'
p2631
S'infrastructure_and_utilities_damage'
p2632
sS'503643096601858048'
p2633
S'infrastructure_and_utilities_damage'
p2634
sS'503644034372751360'
p2635
S'displaced_people_and_evacuations'
p2636
sS'503643128931565568'
p2637
S'other_useful_information'
p2638
sS'503645393385582592'
p2639
S'not_related_or_irrelevant'
p2640
sS'503644163556925440'
p2641
S'other_useful_information'
p2642
sS'503643878986350592'
p2643
S'infrastructure_and_utilities_damage'
p2644
sS'503643620315258880'
p2645
S'other_useful_information'
p2646
sS'503643832324726785'
p2647
S'other_useful_information'
p2648
sS'503643589922926592'
p2649
S'infrastructure_and_utilities_damage'
p2650
sS'503643350701191168'
p2651
S'other_useful_information'
p2652
sS'503644749648384000'
p2653
S'other_useful_information'
p2654
sS'503643712430542848'
p2655
S'infrastructure_and_utilities_damage'
p2656
sS'503643931720966144'
p2657
S'other_useful_information'
p2658
sS'503645574503997441'
p2659
S'other_useful_information'
p2660
sS'503644442969251840'
p2661
S'other_useful_information'
p2662
sS'503643196661174272'
p2663
S'caution_and_advice'
p2664
sS'503643778063007744'
p2665
S'sympathy_and_emotional_support'
p2666
sS'503643982031646720'
p2667
S'donation_needs_or_offers_or_volunteering_services'
p2668
sS'503645429452771331'
p2669
S'not_related_or_irrelevant'
p2670
sS'503643766679695361'
p2671
S'other_useful_information'
p2672
sS'503645598935822336'
p2673
S'other_useful_information'
p2674
sS'503643541625917441'
p2675
S'other_useful_information'
p2676
sS'503644839162826752'
p2677
S'not_related_or_irrelevant'
p2678
sS'503644609709215744'
p2679
S'other_useful_information'
p2680
sS'503643981469593600'
p2681
S'not_related_or_irrelevant'
p2682
sS'503645594326282240'
p2683
S'other_useful_information'
p2684
sS'503643487531978752'
p2685
S'other_useful_information'
p2686
sS'503643117308764160'
p2687
S'other_useful_information'
p2688
sS'503643733296824321'
p2689
S'other_useful_information'
p2690
sS'503645633329508354'
p2691
S'other_useful_information'
p2692
sS'503643210330435584'
p2693
S'other_useful_information'
p2694
sS'503643191061401601'
p2695
S'infrastructure_and_utilities_damage'
p2696
sS'503645281628352512'
p2697
S'other_useful_information'
p2698
sS'503643210288496643'
p2699
S'donation_needs_or_offers_or_volunteering_services'
p2700
sS'503644202719514624'
p2701
S'other_useful_information'
p2702
sS'503645285948481536'
p2703
S'infrastructure_and_utilities_damage'
p2704
sS'503643027076694016'
p2705
S'infrastructure_and_utilities_damage'
p2706
sS'503644904850219008'
p2707
S'injured_or_dead_people'
p2708
sS'503645085654089728'
p2709
S'caution_and_advice'
p2710
sS'503643955871748096'
p2711
S'injured_or_dead_people'
p2712
sS'503643266764374016'
p2713
S'infrastructure_and_utilities_damage'
p2714
sS'503644096565874688'
p2715
S'caution_and_advice'
p2716
sS'503643234498015232'
p2717
S'other_useful_information'
p2718
sS'503645020247687168'
p2719
S'not_related_or_irrelevant'
p2720
sS'503643974880329729'
p2721
S'infrastructure_and_utilities_damage'
p2722
sS'503644800944336896'
p2723
S'other_useful_information'
p2724
sS'503644582069161984'
p2725
S'other_useful_information'
p2726
sS'503645076828848128'
p2727
S'infrastructure_and_utilities_damage'
p2728
sS'503644876115017728'
p2729
S'other_useful_information'
p2730
sS'503644085807501313'
p2731
S'infrastructure_and_utilities_damage'
p2732
sS'503643799101657088'
p2733
S'infrastructure_and_utilities_damage'
p2734
sS'503645252956475393'
p2735
S'donation_needs_or_offers_or_volunteering_services'
p2736
sS'503643158580690944'
p2737
S'not_related_or_irrelevant'
p2738
sS'503645267464163328'
p2739
S'donation_needs_or_offers_or_volunteering_services'
p2740
sS'503645481524686849'
p2741
S'not_related_or_irrelevant'
p2742
sS'503645363127869440'
p2743
S'not_related_or_irrelevant'
p2744
sS'503644949418500097'
p2745
S'caution_and_advice'
p2746
sS'503644789611708416'
p2747
S'missing_trapped_or_found_people'
p2748
sS'503643564375416832'
p2749
S'caution_and_advice'
p2750
sS'503644673454645248'
p2751
S'other_useful_information'
p2752
sS'503645336129515521'
p2753
S'other_useful_information'
p2754
sS'503644975889133568'
p2755
S'other_useful_information'
p2756
sS'503643979783471104'
p2757
S'infrastructure_and_utilities_damage'
p2758
sS'503645598365790208'
p2759
S'other_useful_information'
p2760
sS'503643298310148097'
p2761
S'other_useful_information'
p2762
sS'503644084435550208'
p2763
S'not_related_or_irrelevant'
p2764
sS'503643572307255296'
p2765
S'other_useful_information'
p2766
sS'503643221218824192'
p2767
S'not_related_or_irrelevant'
p2768
sS'503643998171299840'
p2769
S'caution_and_advice'
p2770
sS'503643235265576960'
p2771
S'other_useful_information'
p2772
sS'503643618423234561'
p2773
S'infrastructure_and_utilities_damage'
p2774
sS'503643903191302145'
p2775
S'infrastructure_and_utilities_damage'
p2776
sS'503644701619019777'
p2777
S'other_useful_information'
p2778
sS'503643549879918592'
p2779
S'other_useful_information'
p2780
sS'503645468845293568'
p2781
S'other_useful_information'
p2782
sS'503645565100781568'
p2783
S'other_useful_information'
p2784
sS'503644890841235456'
p2785
S'other_useful_information'
p2786
sS'503643504493731840'
p2787
S'not_related_or_irrelevant'
p2788
sS'503643028591218688'
p2789
S'other_useful_information'
p2790
sS'503644240346218497'
p2791
S'infrastructure_and_utilities_damage'
p2792
sS'503644788868931584'
p2793
S'other_useful_information'
p2794
sS'503643209894211587'
p2795
S'other_useful_information'
p2796
sS'503643276654559233'
p2797
S'other_useful_information'
p2798
sS'503644118711828480'
p2799
S'injured_or_dead_people'
p2800
sS'503643743879065600'
p2801
S'injured_or_dead_people'
p2802
sS'503645296157421568'
p2803
S'other_useful_information'
p2804
sS'503644909392646144'
p2805
S'other_useful_information'
p2806
sS'503645277354721280'
p2807
S'other_useful_information'
p2808
sS'503643551813877760'
p2809
S'other_useful_information'
p2810
sS'503644166480732160'
p2811
S'other_useful_information'
p2812
sS'503645559949758464'
p2813
S'infrastructure_and_utilities_damage'
p2814
sS'503643529621823488'
p2815
S'sympathy_and_emotional_support'
p2816
sS'503643521140928512'
p2817
S'not_related_or_irrelevant'
p2818
sS'503644453459218432'
p2819
S'not_related_or_irrelevant'
p2820
sS'503644959665188865'
p2821
S'other_useful_information'
p2822
sS'503644221182472192'
p2823
S'other_useful_information'
p2824
sS'503644998386982912'
p2825
S'other_useful_information'
p2826
sS'503643803308539904'
p2827
S'other_useful_information'
p2828
sS'503645225009426432'
p2829
S'injured_or_dead_people'
p2830
sS'503643508537049091'
p2831
S'other_useful_information'
p2832
sS'503645420472397824'
p2833
S'caution_and_advice'
p2834
sS'503644444071976960'
p2835
S'other_useful_information'
p2836
sS'503645366018113536'
p2837
S'infrastructure_and_utilities_damage'
p2838
sS'503644742194712576'
p2839
S'injured_or_dead_people'
p2840
sS'503644459582517248'
p2841
S'other_useful_information'
p2842
sS'503645560398569472'
p2843
S'missing_trapped_or_found_people'
p2844
sS'503644821521567744'
p2845
S'other_useful_information'
p2846
sS'503644922080395264'
p2847
S'other_useful_information'
p2848
sS'503644311993729024'
p2849
S'infrastructure_and_utilities_damage'
p2850
sS'503643681866264576'
p2851
S'not_related_or_irrelevant'
p2852
sS'503644949083357184'
p2853
S'other_useful_information'
p2854
sS'503643844811169792'
p2855
S'injured_or_dead_people'
p2856
sS'503643916131131393'
p2857
S'other_useful_information'
p2858
sS'503643293406609409'
p2859
S'donation_needs_or_offers_or_volunteering_services'
p2860
sS'503645457156169728'
p2861
S'other_useful_information'
p2862
sS'503645568728449024'
p2863
S'donation_needs_or_offers_or_volunteering_services'
p2864
sS'503643154797854720'
p2865
S'other_useful_information'
p2866
sS'503645064124305408'
p2867
S'other_useful_information'
p2868
sS'503644808070447104'
p2869
S'other_useful_information'
p2870
sS'503643678993174528'
p2871
S'infrastructure_and_utilities_damage'
p2872
sS'503645239966306306'
p2873
S'injured_or_dead_people'
p2874
sS'503643000913006593'
p2875
S'other_useful_information'
p2876
sS'503644248592220160'
p2877
S'donation_needs_or_offers_or_volunteering_services'
p2878
sS'503643809515700224'
p2879
S'not_related_or_irrelevant'
p2880
sS'503644873950756865'
p2881
S'injured_or_dead_people'
p2882
sS'503644356839211009'
p2883
S'caution_and_advice'
p2884
sS'503645368626597889'
p2885
S'other_useful_information'
p2886
sS'503645509622714369'
p2887
S'not_related_or_irrelevant'
p2888
sS'503643301535551490'
p2889
S'other_useful_information'
p2890
sS'503644764307468288'
p2891
S'other_useful_information'
p2892
sS'503644046397816832'
p2893
S'other_useful_information'
p2894
sS'503644510682091520'
p2895
S'infrastructure_and_utilities_damage'
p2896
sS'503644536997150721'
p2897
S'other_useful_information'
p2898
sS'503644966787108864'
p2899
S'donation_needs_or_offers_or_volunteering_services'
p2900
sS'503643541776908288'
p2901
S'donation_needs_or_offers_or_volunteering_services'
p2902
sS'503645546423537664'
p2903
S'donation_needs_or_offers_or_volunteering_services'
p2904
sS'503644756967444482'
p2905
S'sympathy_and_emotional_support'
p2906
sS'503645328252219392'
p2907
S'other_useful_information'
p2908
sS'503643197969424384'
p2909
S'other_useful_information'
p2910
sS'503645578874847232'
p2911
S'other_useful_information'
p2912
sS'503643033280462848'
p2913
S'other_useful_information'
p2914
sS'503644883698319360'
p2915
S'sympathy_and_emotional_support'
p2916
sS'503644958251679744'
p2917
S'other_useful_information'
p2918
sS'503644282818150401'
p2919
S'other_useful_information'
p2920
sS'503644654781222912'
p2921
S'caution_and_advice'
p2922
sS'503645114619551744'
p2923
S'sympathy_and_emotional_support'
p2924
sS'503645494879338496'
p2925
S'caution_and_advice'
p2926
sS'503645108739526656'
p2927
S'not_related_or_irrelevant'
p2928
sS'503643196111327232'
p2929
S'other_useful_information'
p2930
sS'503645219276226561'
p2931
S'other_useful_information'
p2932
sS'503644963507556352'
p2933
S'other_useful_information'
p2934
sS'503643773973168128'
p2935
S'infrastructure_and_utilities_damage'
p2936
sS'503645595232264192'
p2937
S'infrastructure_and_utilities_damage'
p2938
sS'503645618774880256'
p2939
S'infrastructure_and_utilities_damage'
p2940
sS'503644288383987712'
p2941
S'other_useful_information'
p2942
sS'503643997458292739'
p2943
S'other_useful_information'
p2944
sS'503645293653409792'
p2945
S'infrastructure_and_utilities_damage'
p2946
sS'503642985167609856'
p2947
S'injured_or_dead_people'
p2948
sS'503644903994171392'
p2949
S'infrastructure_and_utilities_damage'
p2950
sS'503643509292023808'
p2951
S'missing_trapped_or_found_people'
p2952
sS'503644089212891136'
p2953
S'injured_or_dead_people'
p2954
sS'503645288246939649'
p2955
S'infrastructure_and_utilities_damage'
p2956
sS'503643502723735553'
p2957
S'other_useful_information'
p2958
sS'503644648129441792'
p2959
S'infrastructure_and_utilities_damage'
p2960
sS'503643778687963136'
p2961
S'not_related_or_irrelevant'
p2962
sS'503644177398132736'
p2963
S'other_useful_information'
p2964
sS'503645634092867584'
p2965
S'other_useful_information'
p2966
sS'503644656337301504'
p2967
S'other_useful_information'
p2968
sS'503643994338103296'
p2969
S'other_useful_information'
p2970
sS'503643659682594816'
p2971
S'other_useful_information'
p2972
sS'503643137835675648'
p2973
S'other_useful_information'
p2974
sS'503644602549555200'
p2975
S'injured_or_dead_people'
p2976
sS'503643770974633985'
p2977
S'other_useful_information'
p2978
sS'503644190933536768'
p2979
S'infrastructure_and_utilities_damage'
p2980
sS'503645202007851008'
p2981
S'other_useful_information'
p2982
sS'503643777651974144'
p2983
S'infrastructure_and_utilities_damage'
p2984
sS'503644677409865728'
p2985
S'infrastructure_and_utilities_damage'
p2986
sS'503643759050260480'
p2987
S'other_useful_information'
p2988
sS'503644405916770304'
p2989
S'infrastructure_and_utilities_damage'
p2990
sS'503644585428791297'
p2991
S'other_useful_information'
p2992
sS'503645429960290304'
p2993
S'other_useful_information'
p2994
sS'503643358934605824'
p2995
S'other_useful_information'
p2996
sS'503643220949991424'
p2997
S'not_related_or_irrelevant'
p2998
sS'503643218714439680'
p2999
S'infrastructure_and_utilities_damage'
p3000
sS'503644588301504512'
p3001
S'not_related_or_irrelevant'
p3002
sS'503645245373169664'
p3003
S'other_useful_information'
p3004
sS'503643958304862209'
p3005
S'infrastructure_and_utilities_damage'
p3006
sS'503644694174515200'
p3007
S'other_useful_information'
p3008
sS'503643292505210880'
p3009
S'other_useful_information'
p3010
sS'503644988606259200'
p3011
S'not_related_or_irrelevant'
p3012
sS'503643063529398272'
p3013
S'other_useful_information'
p3014
sS'503643678821605376'
p3015
S'infrastructure_and_utilities_damage'
p3016
sS'503643873353007104'
p3017
S'other_useful_information'
p3018
sS'503643824581656576'
p3019
S'infrastructure_and_utilities_damage'
p3020
sS'503643214943764480'
p3021
S'other_useful_information'
p3022
sS'503645212208427008'
p3023
S'other_useful_information'
p3024
sS'503642983666032640'
p3025
S'other_useful_information'
p3026
sS'503643222598356992'
p3027
S'donation_needs_or_offers_or_volunteering_services'
p3028
sS'503643291167248384'
p3029
S'other_useful_information'
p3030
sS'503643823474749440'
p3031
S'injured_or_dead_people'
p3032
sS'503644720166604800'
p3033
S'other_useful_information'
p3034
sS'503645486427803648'
p3035
S'infrastructure_and_utilities_damage'
p3036
sS'503643832387661825'
p3037
S'other_useful_information'
p3038
sS'503644573672157184'
p3039
S'injured_or_dead_people'
p3040
sS'503643751961874432'
p3041
S'not_related_or_irrelevant'
p3042
sS'503643527101034497'
p3043
S'other_useful_information'
p3044
sS'503645103496638464'
p3045
S'caution_and_advice'
p3046
sS'503643349954613248'
p3047
S'caution_and_advice'
p3048
sS'503644141675233280'
p3049
S'other_useful_information'
p3050
sS'503645383231172608'
p3051
S'infrastructure_and_utilities_damage'
p3052
sS'503643016653860864'
p3053
S'injured_or_dead_people'
p3054
sS'503645379263352832'
p3055
S'other_useful_information'
p3056
sS'503645461824036864'
p3057
S'donation_needs_or_offers_or_volunteering_services'
p3058
sS'503643293176332289'
p3059
S'other_useful_information'
p3060
sS'503645208383201281'
p3061
S'injured_or_dead_people'
p3062
sS'503643113793933312'
p3063
S'not_related_or_irrelevant'
p3064
sS'503644587693711360'
p3065
S'other_useful_information'
p3066
sS'503643276499353600'
p3067
S'other_useful_information'
p3068
sS'503644185564442624'
p3069
S'other_useful_information'
p3070
sS'503643923940532224'
p3071
S'other_useful_information'
p3072
sS'503643195897810944'
p3073
S'other_useful_information'
p3074
sS'503643302130753536'
p3075
S'other_useful_information'
p3076
sS'503643732810289152'
p3077
S'other_useful_information'
p3078
sS'503643144991567872'
p3079
S'other_useful_information'
p3080
sS'503643578287935488'
p3081
S'other_useful_information'
p3082
sS'503644228748980225'
p3083
S'other_useful_information'
p3084
sS'503644601220362240'
p3085
S'other_useful_information'
p3086
sS'503644314262851584'
p3087
S'sympathy_and_emotional_support'
p3088
sS'503643676950921216'
p3089
S'other_useful_information'
p3090
sS'503643213979070465'
p3091
S'other_useful_information'
p3092
sS'503645459177820161'
p3093
S'other_useful_information'
p3094
sS'503643910522933248'
p3095
S'other_useful_information'
p3096
sS'503644057068130305'
p3097
S'other_useful_information'
p3098
sS'503643929275662338'
p3099
S'infrastructure_and_utilities_damage'
p3100
sS'503643181620015104'
p3101
S'donation_needs_or_offers_or_volunteering_services'
p3102
sS'503645450608836608'
p3103
S'infrastructure_and_utilities_damage'
p3104
sS'503645222136725504'
p3105
S'infrastructure_and_utilities_damage'
p3106
sS'503643511355617280'
p3107
S'other_useful_information'
p3108
sS'503645392248922112'
p3109
S'other_useful_information'
p3110
sS'503645463703068672'
p3111
S'infrastructure_and_utilities_damage'
p3112
sS'503643109620588544'
p3113
S'injured_or_dead_people'
p3114
sS'503644668484415488'
p3115
S'sympathy_and_emotional_support'
p3116
sS'503643187903488000'
p3117
S'injured_or_dead_people'
p3118
sS'503644745160073216'
p3119
S'other_useful_information'
p3120
sS'503644502104752128'
p3121
S'other_useful_information'
p3122
sS'503644800235483136'
p3123
S'other_useful_information'
p3124
sS'503645225126883328'
p3125
S'injured_or_dead_people'
p3126
sS'503645475396808704'
p3127
S'infrastructure_and_utilities_damage'
p3128
sS'503643497426350081'
p3129
S'infrastructure_and_utilities_damage'
p3130
sS'503644834150617088'
p3131
S'other_useful_information'
p3132
sS'503645363069542401'
p3133
S'other_useful_information'
p3134
sS'503643570721394688'
p3135
S'not_related_or_irrelevant'
p3136
sS'503643620587896832'
p3137
S'other_useful_information'
p3138
sS'503644902493011968'
p3139
S'other_useful_information'
p3140
sS'503644328280223745'
p3141
S'infrastructure_and_utilities_damage'
p3142
sS'503645457252233216'
p3143
S'other_useful_information'
p3144
sS'503643984351088640'
p3145
S'donation_needs_or_offers_or_volunteering_services'
p3146
sS'503644432797687808'
p3147
S'donation_needs_or_offers_or_volunteering_services'
p3148
sS'503645055320485888'
p3149
S'other_useful_information'
p3150
sS'503645067932733440'
p3151
S'other_useful_information'
p3152
sS'503644318478118912'
p3153
S'infrastructure_and_utilities_damage'
p3154
sS'503643342585233408'
p3155
S'not_related_or_irrelevant'
p3156
sS'503644961011945472'
p3157
S'missing_trapped_or_found_people'
p3158
sS'503644361541050368'
p3159
S'caution_and_advice'
p3160
sS'503645439766568962'
p3161
S'other_useful_information'
p3162
sS'503644658325397504'
p3163
S'other_useful_information'
p3164
sS'503643288612913153'
p3165
S'infrastructure_and_utilities_damage'
p3166
sS'503643850775494656'
p3167
S'other_useful_information'
p3168
sS'503645401270845440'
p3169
S'infrastructure_and_utilities_damage'
p3170
sS'503644998412554240'
p3171
S'other_useful_information'
p3172
sS'503643261315985408'
p3173
S'injured_or_dead_people'
p3174
sS'503644980775514112'
p3175
S'not_related_or_irrelevant'
p3176
sS'503644767159218176'
p3177
S'injured_or_dead_people'
p3178
sS'503642998832242689'
p3179
S'caution_and_advice'
p3180
sS'503645117094182912'
p3181
S'other_useful_information'
p3182
sS'503643855715958785'
p3183
S'other_useful_information'
p3184
sS'503645554635976704'
p3185
S'injured_or_dead_people'
p3186
sS'503644061811875840'
p3187
S'caution_and_advice'
p3188
sS'503644654383153152'
p3189
S'donation_needs_or_offers_or_volunteering_services'
p3190
sS'503643180508909570'
p3191
S'other_useful_information'
p3192
sS'503644566180745217'
p3193
S'infrastructure_and_utilities_damage'
p3194
sS'503643354677407744'
p3195
S'injured_or_dead_people'
p3196
sS'503643994145181697'
p3197
S'other_useful_information'
p3198
sS'503643233834893313'
p3199
S'injured_or_dead_people'
p3200
sS'503644440154501121'
p3201
S'other_useful_information'
p3202
sS'503644617825615872'
p3203
S'other_useful_information'
p3204
sS'503643795020582912'
p3205
S'other_useful_information'
p3206
sS'503643639562911746'
p3207
S'other_useful_information'
p3208
sS'503643542393487360'
p3209
S'injured_or_dead_people'
p3210
sS'503645175696990208'
p3211
S'other_useful_information'
p3212
sS'503644917210423296'
p3213
S'other_useful_information'
p3214
sS'503643363632226304'
p3215
S'infrastructure_and_utilities_damage'
p3216
sS'503643287706931201'
p3217
S'caution_and_advice'
p3218
sS'503644301885456384'
p3219
S'infrastructure_and_utilities_damage'
p3220
sS'503644673442078720'
p3221
S'other_useful_information'
p3222
sS'503644851309928448'
p3223
S'infrastructure_and_utilities_damage'
p3224
sS'503645097565495296'
p3225
S'donation_needs_or_offers_or_volunteering_services'
p3226
sS'503645387882647552'
p3227
S'infrastructure_and_utilities_damage'
p3228
sS'503644918074843137'
p3229
S'infrastructure_and_utilities_damage'
p3230
sS'503643823260442624'
p3231
S'sympathy_and_emotional_support'
p3232
sS'503643502606311426'
p3233
S'other_useful_information'
p3234
sS'503645297457635328'
p3235
S'other_useful_information'
p3236
sS'503643081871089664'
p3237
S'other_useful_information'
p3238
sS'503645479951794176'
p3239
S'other_useful_information'
p3240
sS'503643473178673152'
p3241
S'other_useful_information'
p3242
sS'503643485035978752'
p3243
S'other_useful_information'
p3244
sS'503644361213505536'
p3245
S'other_useful_information'
p3246
sS'503643544436113409'
p3247
S'other_useful_information'
p3248
sS'503645310875226113'
p3249
S'injured_or_dead_people'
p3250
sS'503644948949123072'
p3251
S'injured_or_dead_people'
p3252
sS'503643486923403264'
p3253
S'sympathy_and_emotional_support'
p3254
sS'503644885753143296'
p3255
S'other_useful_information'
p3256
sS'503643304790360065'
p3257
S'not_related_or_irrelevant'
p3258
sS'503643997181472768'
p3259
S'injured_or_dead_people'
p3260
sS'503643263018872832'
p3261
S'other_useful_information'
p3262
sS'503643798929670145'
p3263
S'other_useful_information'
p3264
sS'503643820433489920'
p3265
S'injured_or_dead_people'
p3266
sS'503643789136003073'
p3267
S'other_useful_information'
p3268
sS'503645308975194113'
p3269
S'other_useful_information'
p3270
sS'503645263764811776'
p3271
S'other_useful_information'
p3272
sS'503644185384083457'
p3273
S'other_useful_information'
p3274
sS'503643183675219968'
p3275
S'other_useful_information'
p3276
sS'503643675730407424'
p3277
S'other_useful_information'
p3278
sS'503643298918334465'
p3279
S'infrastructure_and_utilities_damage'
p3280
sS'503643717480087552'
p3281
S'other_useful_information'
p3282
sS'503644843243876353'
p3283
S'other_useful_information'
p3284
sS'503644061048528898'
p3285
S'sympathy_and_emotional_support'
p3286
sS'503645231967772672'
p3287
S'other_useful_information'
p3288
sS'503644178912669696'
p3289
S'other_useful_information'
p3290
sS'503644609021374464'
p3291
S'not_related_or_irrelevant'
p3292
sS'503644553228713984'
p3293
S'not_related_or_irrelevant'
p3294
sS'503645153534693377'
p3295
S'other_useful_information'
p3296
sS'503645237722361857'
p3297
S'infrastructure_and_utilities_damage'
p3298
sS'503645322162499584'
p3299
S'other_useful_information'
p3300
sS'503643801093558272'
p3301
S'other_useful_information'
p3302
sS'503645170760683523'
p3303
S'infrastructure_and_utilities_damage'
p3304
sS'503643571535114241'
p3305
S'other_useful_information'
p3306
sS'503643339392966657'
p3307
S'other_useful_information'
p3308
sS'503644484316712961'
p3309
S'injured_or_dead_people'
p3310
sS'503644914408636417'
p3311
S'infrastructure_and_utilities_damage'
p3312
sS'503643757338578944'
p3313
S'sympathy_and_emotional_support'
p3314
sS'503643295218958338'
p3315
S'caution_and_advice'
p3316
sS'503643472445071361'
p3317
S'caution_and_advice'
p3318
sS'503644548925759488'
p3319
S'not_related_or_irrelevant'
p3320
sS'503645576542433280'
p3321
S'other_useful_information'
p3322
sS'503644708564783105'
p3323
S'other_useful_information'
p3324
sS'503645217510019073'
p3325
S'infrastructure_and_utilities_damage'
p3326
sS'503643488219852800'
p3327
S'other_useful_information'
p3328
sS'503644018006183936'
p3329
S'other_useful_information'
p3330
sS'503643893108183040'
p3331
S'injured_or_dead_people'
p3332
sS'503644276144631808'
p3333
S'infrastructure_and_utilities_damage'
p3334
sS'503644177523957761'
p3335
S'other_useful_information'
p3336
sS'503643197919469568'
p3337
S'injured_or_dead_people'
p3338
sS'503644949330415617'
p3339
S'infrastructure_and_utilities_damage'
p3340
sS'503645254386716672'
p3341
S'not_related_or_irrelevant'
p3342
sS'503645347264995328'
p3343
S'other_useful_information'
p3344
sS'503643987710713856'
p3345
S'other_useful_information'
p3346
sS'503645294601330690'
p3347
S'other_useful_information'
p3348
sS'503644412065615874'
p3349
S'not_related_or_irrelevant'
p3350
sS'503643459379789825'
p3351
S'other_useful_information'
p3352
sS'503644220964356096'
p3353
S'not_related_or_irrelevant'
p3354
sS'503645368001634304'
p3355
S'other_useful_information'
p3356
sS'503643312063258625'
p3357
S'not_related_or_irrelevant'
p3358
sS'503643098891575296'
p3359
S'other_useful_information'
p3360
sS'503645413422145538'
p3361
S'other_useful_information'
p3362
sS'503645238435807232'
p3363
S'other_useful_information'
p3364
sS'503645454006222848'
p3365
S'caution_and_advice'
p3366
sS'503644943202525184'
p3367
S'other_useful_information'
p3368
sS'503645322972000256'
p3369
S'infrastructure_and_utilities_damage'
p3370
sS'503643966890180608'
p3371
S'other_useful_information'
p3372
sS'503643169524047873'
p3373
S'injured_or_dead_people'
p3374
sS'503644959132499968'
p3375
S'other_useful_information'
p3376
sS'503644243462995968'
p3377
S'other_useful_information'
p3378
sS'503645513145929728'
p3379
S'caution_and_advice'
p3380
sS'503645036760666112'
p3381
S'other_useful_information'
p3382
sS'503643584055476225'
p3383
S'other_useful_information'
p3384
sS'503643741270183936'
p3385
S'other_useful_information'
p3386
sS'503643209151807490'
p3387
S'other_useful_information'
p3388
sS'503645393997946880'
p3389
S'other_useful_information'
p3390
sS'503645076942102528'
p3391
S'other_useful_information'
p3392
sS'503643455734956032'
p3393
S'other_useful_information'
p3394
sS'503644409343512576'
p3395
S'other_useful_information'
p3396
sS'503643190675505153'
p3397
S'other_useful_information'
p3398
sS'503643663868514304'
p3399
S'injured_or_dead_people'
p3400
sS'503643969842974721'
p3401
S'infrastructure_and_utilities_damage'
p3402
sS'503645080565977088'
p3403
S'other_useful_information'
p3404
sS'503643365217693697'
p3405
S'caution_and_advice'
p3406
sS'503643755560185856'
p3407
S'donation_needs_or_offers_or_volunteering_services'
p3408
sS'503644582610206720'
p3409
S'injured_or_dead_people'
p3410
sS'503643977132687360'
p3411
S'caution_and_advice'
p3412
sS'503643497426341888'
p3413
S'other_useful_information'
p3414
sS'503643490967109632'
p3415
S'donation_needs_or_offers_or_volunteering_services'
p3416
sS'503643239782420480'
p3417
S'other_useful_information'
p3418
sS'503644817264742400'
p3419
S'other_useful_information'
p3420
sS'503644568831553536'
p3421
S'other_useful_information'
p3422
sS'503643908338102273'
p3423
S'other_useful_information'
p3424
sS'503644108968452096'
p3425
S'other_useful_information'
p3426
sS'503644198797864960'
p3427
S'sympathy_and_emotional_support'
p3428
sS'503644228971290624'
p3429
S'donation_needs_or_offers_or_volunteering_services'
p3430
sS'503643042926977025'
p3431
S'sympathy_and_emotional_support'
p3432
sS'503645597153636355'
p3433
S'not_related_or_irrelevant'
p3434
sS'503643130059829248'
p3435
S'donation_needs_or_offers_or_volunteering_services'
p3436
sS'503644054538964992'
p3437
S'caution_and_advice'
p3438
sS'503644510728249344'
p3439
S'donation_needs_or_offers_or_volunteering_services'
p3440
sS'503643789513474049'
p3441
S'not_related_or_irrelevant'
p3442
sS'503645323323920385'
p3443
S'infrastructure_and_utilities_damage'
p3444
sS'503643596894273537'
p3445
S'other_useful_information'
p3446
sS'503643302147915777'
p3447
S'infrastructure_and_utilities_damage'
p3448
sS'503644702839562241'
p3449
S'not_related_or_irrelevant'
p3450
sS'503643319713673217'
p3451
S'other_useful_information'
p3452
sS'503643256409030657'
p3453
S'injured_or_dead_people'
p3454
sS'503643605521944576'
p3455
S'not_related_or_irrelevant'
p3456
sS'503643897088991232'
p3457
S'infrastructure_and_utilities_damage'
p3458
sS'503645420803735552'
p3459
S'infrastructure_and_utilities_damage'
p3460
sS'503643966202712065'
p3461
S'infrastructure_and_utilities_damage'
p3462
sS'503644758699290624'
p3463
S'not_related_or_irrelevant'
p3464
sS'503644613278568448'
p3465
S'infrastructure_and_utilities_damage'
p3466
sS'503645346132922369'
p3467
S'infrastructure_and_utilities_damage'
p3468
sS'503643889648287749'
p3469
S'other_useful_information'
p3470
sS'503645235767816192'
p3471
S'other_useful_information'
p3472
sS'503644827422965760'
p3473
S'other_useful_information'
p3474
sS'503643649591476224'
p3475
S'other_useful_information'
p3476
sS'503644916732682240'
p3477
S'other_useful_information'
p3478
sS'503643100204773377'
p3479
S'infrastructure_and_utilities_damage'
p3480
sS'503644676289617920'
p3481
S'other_useful_information'
p3482
sS'503644097018486784'
p3483
S'infrastructure_and_utilities_damage'
p3484
sS'503645621493190657'
p3485
S'other_useful_information'
p3486
sS'503645006327209984'
p3487
S'other_useful_information'
p3488
sS'503644810020782081'
p3489
S'other_useful_information'
p3490
sS'503645060307484673'
p3491
S'other_useful_information'
p3492
sS'503643463125311488'
p3493
S'not_related_or_irrelevant'
p3494
sS'503643297685200896'
p3495
S'other_useful_information'
p3496
sS'503644713699004416'
p3497
S'other_useful_information'
p3498
sS'503645102318034944'
p3499
S'other_useful_information'
p3500
sS'503645593495814144'
p3501
S'donation_needs_or_offers_or_volunteering_services'
p3502
sS'503644329446240256'
p3503
S'other_useful_information'
p3504
sS'503643045305516033'
p3505
S'infrastructure_and_utilities_damage'
p3506
sS'503643711733891072'
p3507
S'other_useful_information'
p3508
sS'503644086856077313'
p3509
S'not_related_or_irrelevant'
p3510
sS'503643773385969664'
p3511
S'other_useful_information'
p3512
sS'503644639228723200'
p3513
S'other_useful_information'
p3514
sS'503643685691858944'
p3515
S'infrastructure_and_utilities_damage'
p3516
sS'503645622046453760'
p3517
S'sympathy_and_emotional_support'
p3518
sS'503643720466845696'
p3519
S'other_useful_information'
p3520
sS'503645528794873856'
p3521
S'infrastructure_and_utilities_damage'
p3522
sS'503645301886832640'
p3523
S'other_useful_information'
p3524
sS'503644233723826176'
p3525
S'sympathy_and_emotional_support'
p3526
sS'503644502687768576'
p3527
S'injured_or_dead_people'
p3528
sS'503643926922674176'
p3529
S'other_useful_information'
p3530
sS'503645478781583360'
p3531
S'injured_or_dead_people'
p3532
sS'503643928902770688'
p3533
S'other_useful_information'
p3534
sS'503644688490852352'
p3535
S'other_useful_information'
p3536
sS'503645299886530562'
p3537
S'sympathy_and_emotional_support'
p3538
sS'503645632322895872'
p3539
S'injured_or_dead_people'
p3540
sS'503643967553282050'
p3541
S'sympathy_and_emotional_support'
p3542
sS'503645486490730497'
p3543
S'infrastructure_and_utilities_damage'
p3544
sS'503643780327546880'
p3545
S'other_useful_information'
p3546
sS'503644644321013761'
p3547
S'other_useful_information'
p3548
sS'503644199523086336'
p3549
S'other_useful_information'
p3550
sS'503643146115223552'
p3551
S'infrastructure_and_utilities_damage'
p3552
sS'503644118883389440'
p3553
S'other_useful_information'
p3554
sS'503644818472726530'
p3555
S'sympathy_and_emotional_support'
p3556
sS'503645556787646464'
p3557
S'sympathy_and_emotional_support'
p3558
sS'503645613250981888'
p3559
S'other_useful_information'
p3560
sS'503645222186668032'
p3561
S'other_useful_information'
p3562
sS'503645233746165760'
p3563
S'other_useful_information'
p3564
sS'503645271398416384'
p3565
S'infrastructure_and_utilities_damage'
p3566
sS'503644411298078721'
p3567
S'not_related_or_irrelevant'
p3568
sS'503643044827394048'
p3569
S'other_useful_information'
p3570
sS'503643143729082369'
p3571
S'other_useful_information'
p3572
sS'503643514321002498'
p3573
S'sympathy_and_emotional_support'
p3574
sS'503643206219624450'
p3575
S'caution_and_advice'
p3576
sS'503645262175567872'
p3577
S'other_useful_information'
p3578
sS'503643974800666624'
p3579
S'infrastructure_and_utilities_damage'
p3580
sS'503644616592076800'
p3581
S'other_useful_information'
p3582
sS'503643961693458432'
p3583
S'caution_and_advice'
p3584
sS'503643360557412352'
p3585
S'other_useful_information'
p3586
sS'503644856569577476'
p3587
S'other_useful_information'
p3588
sS'503643478166102017'
p3589
S'other_useful_information'
p3590
sS'503643603986419712'
p3591
S'other_useful_information'
p3592
sS'503644966342512642'
p3593
S'injured_or_dead_people'
p3594
sS'503644953478565888'
p3595
S'other_useful_information'
p3596
sS'503644808523829250'
p3597
S'other_useful_information'
p3598
sS'503645632381214721'
p3599
S'other_useful_information'
p3600
sS'503644606844502016'
p3601
S'other_useful_information'
p3602
sS'503644457938747392'
p3603
S'caution_and_advice'
p3604
sS'503645196156805120'
p3605
S'other_useful_information'
p3606
sS'503644202568527872'
p3607
S'other_useful_information'
p3608
sS'503644088042659840'
p3609
S'infrastructure_and_utilities_damage'
p3610
sS'503644706106900480'
p3611
S'other_useful_information'
p3612
sS'503643461690466304'
p3613
S'other_useful_information'
p3614
sS'503643349119549440'
p3615
S'other_useful_information'
p3616
sS'503645327107190784'
p3617
S'other_useful_information'
p3618
sS'503644978183413761'
p3619
S'other_useful_information'
p3620
sS'503643944530366464'
p3621
S'donation_needs_or_offers_or_volunteering_services'
p3622
sS'503644817197645825'
p3623
S'injured_or_dead_people'
p3624
sS'503643962377510912'
p3625
S'injured_or_dead_people'
p3626
sS'503643321248395264'
p3627
S'caution_and_advice'
p3628
sS'503643512160923649'
p3629
S'injured_or_dead_people'
p3630
sS'503645320010805249'
p3631
S'infrastructure_and_utilities_damage'
p3632
sS'503644608815845376'
p3633
S'other_useful_information'
p3634
sS'503645428378648576'
p3635
S'infrastructure_and_utilities_damage'
p3636
sS'503643304039575552'
p3637
S'other_useful_information'
p3638
sS'503643476207337472'
p3639
S'not_related_or_irrelevant'
p3640
sS'503643063450083328'
p3641
S'injured_or_dead_people'
p3642
sS'503644414531481600'
p3643
S'other_useful_information'
p3644
sS'503644336656228352'
p3645
S'other_useful_information'
p3646
sS'503644119965900800'
p3647
S'donation_needs_or_offers_or_volunteering_services'
p3648
sS'503643187802406912'
p3649
S'other_useful_information'
p3650
sS'503643033016233985'
p3651
S'infrastructure_and_utilities_damage'
p3652
sS'503644434924179456'
p3653
S'other_useful_information'
p3654
sS'503645086958096386'
p3655
S'not_related_or_irrelevant'
p3656
sS'503644479622873090'
p3657
S'injured_or_dead_people'
p3658
sS'503643314424655872'
p3659
S'other_useful_information'
p3660
sS'503643136636506112'
p3661
S'caution_and_advice'
p3662
sS'503645382249697280'
p3663
S'infrastructure_and_utilities_damage'
p3664
sS'503644307715555330'
p3665
S'other_useful_information'
p3666
sS'503643335857569792'
p3667
S'sympathy_and_emotional_support'
p3668
sS'503643274926518272'
p3669
S'not_related_or_irrelevant'
p3670
sS'503644491148840960'
p3671
S'injured_or_dead_people'
p3672
sS'503644936390987776'
p3673
S'other_useful_information'
p3674
sS'503643817929879552'
p3675
S'other_useful_information'
p3676
sS'503643730877100032'
p3677
S'other_useful_information'
p3678
sS'503643311337639936'
p3679
S'injured_or_dead_people'
p3680
sS'503644691167211520'
p3681
S'other_useful_information'
p3682
sS'503643324017020928'
p3683
S'infrastructure_and_utilities_damage'
p3684
sS'503643137663725568'
p3685
S'infrastructure_and_utilities_damage'
p3686
sS'503644088433139712'
p3687
S'other_useful_information'
p3688
sS'503644920843079680'
p3689
S'infrastructure_and_utilities_damage'
p3690
sS'503645477410062336'
p3691
S'other_useful_information'
p3692
sS'503645426122113024'
p3693
S'other_useful_information'
p3694
sS'503645568540106753'
p3695
S'other_useful_information'
p3696
sS'503644073044238336'
p3697
S'other_useful_information'
p3698
sS'503644742358667265'
p3699
S'other_useful_information'
p3700
sS'503645564257705984'
p3701
S'injured_or_dead_people'
p3702
sS'503642996584513536'
p3703
S'not_related_or_irrelevant'
p3704
sS'503645292990722048'
p3705
S'other_useful_information'
p3706
sS'503644943332556800'
p3707
S'infrastructure_and_utilities_damage'
p3708
sS'503643495815720960'
p3709
S'other_useful_information'
p3710
sS'503643529382748163'
p3711
S'other_useful_information'
p3712
sS'503643804860424192'
p3713
S'infrastructure_and_utilities_damage'
p3714
sS'503645085934694400'
p3715
S'other_useful_information'
p3716
sS'503643299329359872'
p3717
S'other_useful_information'
p3718
sS'503643516883709952'
p3719
S'not_related_or_irrelevant'
p3720
sS'503643956630933504'
p3721
S'injured_or_dead_people'
p3722
sS'503644688641826816'
p3723
S'other_useful_information'
p3724
sS'503643158748880896'
p3725
S'injured_or_dead_people'
p3726
sS'503645383617413121'
p3727
S'not_related_or_irrelevant'
p3728
sS'503643328320385025'
p3729
S'other_useful_information'
p3730
sS'503643275643719680'
p3731
S'other_useful_information'
p3732
sS'503643209671925761'
p3733
S'not_related_or_irrelevant'
p3734
sS'503644464368189440'
p3735
S'caution_and_advice'
p3736
sS'503643138674528256'
p3737
S'other_useful_information'
p3738
sS'503644627405381632'
p3739
S'caution_and_advice'
p3740
sS'503643479734755329'
p3741
S'other_useful_information'
p3742
sS'503644802110341121'
p3743
S'infrastructure_and_utilities_damage'
p3744
sS'503643472654393344'
p3745
S'injured_or_dead_people'
p3746
sS'503645531219197953'
p3747
S'not_related_or_irrelevant'
p3748
sS'503643902495031297'
p3749
S'donation_needs_or_offers_or_volunteering_services'
p3750
sS'503645228687831040'
p3751
S'other_useful_information'
p3752
sS'503642976976113664'
p3753
S'infrastructure_and_utilities_damage'
p3754
sS'503645243351515136'
p3755
S'other_useful_information'
p3756
sS'503643002875969536'
p3757
S'other_useful_information'
p3758
sS'503643190054764544'
p3759
S'other_useful_information'
p3760
sS'503643044642848768'
p3761
S'other_useful_information'
p3762
sS'503643518922145792'
p3763
S'other_useful_information'
p3764
sS'503643734299648002'
p3765
S'not_related_or_irrelevant'
p3766
sS'503645172240891904'
p3767
S'other_useful_information'
p3768
sS'503644622220836864'
p3769
S'sympathy_and_emotional_support'
p3770
sS'503644638914174976'
p3771
S'other_useful_information'
p3772
sS'503643074514272256'
p3773
S'not_related_or_irrelevant'
p3774
sS'503644798335877122'
p3775
S'caution_and_advice'
p3776
sS'503644098805235712'
p3777
S'other_useful_information'
p3778
sS'503643131624292352'
p3779
S'injured_or_dead_people'
p3780
sS'503645297600249856'
p3781
S'other_useful_information'
p3782
sS'503644281131634688'
p3783
S'other_useful_information'
p3784
sS'503644786063331329'
p3785
S'infrastructure_and_utilities_damage'
p3786
sS'503644652084678656'
p3787
S'injured_or_dead_people'
p3788
sS'503644650767261696'
p3789
S'sympathy_and_emotional_support'
p3790
sS'503645371340312576'
p3791
S'injured_or_dead_people'
p3792
sS'503644565354455040'
p3793
S'infrastructure_and_utilities_damage'
p3794
sS'503645523950460929'
p3795
S'donation_needs_or_offers_or_volunteering_services'
p3796
sS'503645323101626368'
p3797
S'other_useful_information'
p3798
sS'503643836417986561'
p3799
S'sympathy_and_emotional_support'
p3800
sS'503645336758669312'
p3801
S'other_useful_information'
p3802
sS'503645515951923202'
p3803
S'other_useful_information'
p3804
sS'503643644684161025'
p3805
S'other_useful_information'
p3806
sS'503643705635381248'
p3807
S'other_useful_information'
p3808
sS'503645272086282240'
p3809
S'infrastructure_and_utilities_damage'
p3810
sS'503644972344954880'
p3811
S'not_related_or_irrelevant'
p3812
sS'503643501943615488'
p3813
S'infrastructure_and_utilities_damage'
p3814
sS'503644986257440768'
p3815
S'injured_or_dead_people'
p3816
sS'503645313564155906'
p3817
S'other_useful_information'
p3818
sS'503643852734222337'
p3819
S'sympathy_and_emotional_support'
p3820
sS'503644091477790720'
p3821
S'caution_and_advice'
p3822
sS'503644370873368577'
p3823
S'infrastructure_and_utilities_damage'
p3824
sS'503645121712492544'
p3825
S'other_useful_information'
p3826
sS'503645428135374848'
p3827
S'other_useful_information'
p3828
sS'503643326789062657'
p3829
S'other_useful_information'
p3830
sS'503645021330235393'
p3831
S'other_useful_information'
p3832
sS'503643876461400064'
p3833
S'infrastructure_and_utilities_damage'
p3834
sS'503645223998599168'
p3835
S'other_useful_information'
p3836
sS'503643018906570752'
p3837
S'other_useful_information'
p3838
sS'503645289408765952'
p3839
S'infrastructure_and_utilities_damage'
p3840
sS'503642985431830528'
p3841
S'other_useful_information'
p3842
sS'503645056050290688'
p3843
S'other_useful_information'
p3844
sS'503643330543357952'
p3845
S'infrastructure_and_utilities_damage'
p3846
sS'503644237460557824'
p3847
S'other_useful_information'
p3848
sS'503644053590654976'
p3849
S'other_useful_information'
p3850
sS'503645228948279296'
p3851
S'other_useful_information'
p3852
sS'503643512932667393'
p3853
S'other_useful_information'
p3854
sS'503644289059258370'
p3855
S'other_useful_information'
p3856
sS'503643851643686912'
p3857
S'other_useful_information'
p3858
sS'503643675214499840'
p3859
S'infrastructure_and_utilities_damage'
p3860
sS'503644197799591936'
p3861
S'infrastructure_and_utilities_damage'
p3862
sS'503645019048534016'
p3863
S'infrastructure_and_utilities_damage'
p3864
sS'503644096649756673'
p3865
S'injured_or_dead_people'
p3866
sS'503643127253450753'
p3867
S'other_useful_information'
p3868
sS'503645301450625024'
p3869
S'injured_or_dead_people'
p3870
sS'503643482029047808'
p3871
S'other_useful_information'
p3872
sS'503644528180756480'
p3873
S'other_useful_information'
p3874
sS'503644837993021440'
p3875
S'donation_needs_or_offers_or_volunteering_services'
p3876
sS'503644342263640064'
p3877
S'other_useful_information'
p3878
sS'503645203572346880'
p3879
S'other_useful_information'
p3880
sS'503645522566320128'
p3881
S'other_useful_information'
p3882
sS'503643535044653056'
p3883
S'infrastructure_and_utilities_damage'
p3884
sS'503643159088218112'
p3885
S'other_useful_information'
p3886
sS'503644678437482496'
p3887
S'other_useful_information'
p3888
sS'503644945605881856'
p3889
S'other_useful_information'
p3890
sS'503645139160428544'
p3891
S'other_useful_information'
p3892
sS'503643349224804353'
p3893
S'other_useful_information'
p3894
sS'503645486927335424'
p3895
S'infrastructure_and_utilities_damage'
p3896
sS'503644902702325760'
p3897
S'other_useful_information'
p3898
sS'503645315618967552'
p3899
S'not_related_or_irrelevant'
p3900
sS'503644401327804416'
p3901
S'other_useful_information'
p3902
sS'503645476860616705'
p3903
S'other_useful_information'
p3904
sS'503643214834724864'
p3905
S'other_useful_information'
p3906
sS'503643913240854529'
p3907
S'other_useful_information'
p3908
sS'503645197587070976'
p3909
S'donation_needs_or_offers_or_volunteering_services'
p3910
sS'503645260845944832'
p3911
S'other_useful_information'
p3912
sS'503643956341522432'
p3913
S'other_useful_information'
p3914
sS'503644799472136192'
p3915
S'other_useful_information'
p3916
sS'503645008755687424'
p3917
S'donation_needs_or_offers_or_volunteering_services'
p3918
sS'503644116974989313'
p3919
S'other_useful_information'
p3920
sS'503645599250804736'
p3921
S'other_useful_information'
p3922
sS'503645601436024833'
p3923
S'other_useful_information'
p3924
sS'503643332015554560'
p3925
S'other_useful_information'
p3926
sS'503643864641835009'
p3927
S'caution_and_advice'
p3928
sS'503643056567255040'
p3929
S'other_useful_information'
p3930
sS'503644078500618241'
p3931
S'other_useful_information'
p3932
sS'503645249034387456'
p3933
S'caution_and_advice'
p3934
sS'503643579034501120'
p3935
S'other_useful_information'
p3936
sS'503644751912923136'
p3937
S'other_useful_information'
p3938
sS'503643542690856960'
p3939
S'injured_or_dead_people'
p3940
sS'503645314301964288'
p3941
S'not_related_or_irrelevant'
p3942
sS'503643828897591296'
p3943
S'other_useful_information'
p3944
sS'503645255720124416'
p3945
S'other_useful_information'
p3946
sS'503644805130223616'
p3947
S'other_useful_information'
p3948
sS'503643776183959553'
p3949
S'other_useful_information'
p3950
sS'503643004759195650'
p3951
S'injured_or_dead_people'
p3952
sS'503643051378483200'
p3953
S'other_useful_information'
p3954
sS'503643566883622913'
p3955
S'infrastructure_and_utilities_damage'
p3956
sS'503643486076538881'
p3957
S'infrastructure_and_utilities_damage'
p3958
sS'503643486956957697'
p3959
S'donation_needs_or_offers_or_volunteering_services'
p3960
sS'503644942896336896'
p3961
S'other_useful_information'
p3962
sS'503643307071639552'
p3963
S'not_related_or_irrelevant'
p3964
sS'503645030742233088'
p3965
S'infrastructure_and_utilities_damage'
p3966
sS'503645556736925697'
p3967
S'injured_or_dead_people'
p3968
sS'503643362030026754'
p3969
S'other_useful_information'
p3970
sS'503644948411871232'
p3971
S'other_useful_information'
p3972
sS'503645330986913792'
p3973
S'infrastructure_and_utilities_damage'
p3974
sS'503643112363671552'
p3975
S'infrastructure_and_utilities_damage'
p3976
sS'503644562342940672'
p3977
S'injured_or_dead_people'
p3978
sS'503643775164350465'
p3979
S'infrastructure_and_utilities_damage'
p3980
sS'503645124019384320'
p3981
S'injured_or_dead_people'
p3982
sS'503644946587721730'
p3983
S'sympathy_and_emotional_support'
p3984
sS'503645554526519296'
p3985
S'infrastructure_and_utilities_damage'
p3986
sS'503643932387864576'
p3987
S'injured_or_dead_people'
p3988
sS'503643888968814592'
p3989
S'other_useful_information'
p3990
sS'503643806239956993'
p3991
S'infrastructure_and_utilities_damage'
p3992
sS'503644802907254784'
p3993
S'injured_or_dead_people'
p3994
sS'503643126683009025'
p3995
S'not_related_or_irrelevant'
p3996
sS'503644015841918977'
p3997
S'injured_or_dead_people'
p3998
sS'503644000981491712'
p3999
S'infrastructure_and_utilities_damage'
p4000
s.