(dp0
S'498515125008355328'
p1
S'injured_or_dead_people'
p2
sS'498507831021428737'
p3
S'injured_or_dead_people'
p4
sS'498502497376669696'
p5
S'not_related_or_irrelevant'
p6
sS'498504448768217091'
p7
S'injured_or_dead_people'
p8
sS'498515383599394816'
p9
S'other_useful_information'
p10
sS'498500510396071936'
p11
S'not_related_or_irrelevant'
p12
sS'498507744614563840'
p13
S'donation_needs_or_offers_or_volunteering_services'
p14
sS'498510508538871809'
p15
S'not_related_or_irrelevant'
p16
sS'498501204544991235'
p17
S'not_related_or_irrelevant'
p18
sS'498500881957289985'
p19
S'not_related_or_irrelevant'
p20
sS'498503494777970689'
p21
S'other_useful_information'
p22
sS'498503893891174401'
p23
S'infrastructure_and_utilities_damage'
p24
sS'498502216106643456'
p25
S'not_related_or_irrelevant'
p26
sS'498504765622743040'
p27
S'injured_or_dead_people'
p28
sS'498499078729113600'
p29
S'not_related_or_irrelevant'
p30
sS'498498517812269056'
p31
S'not_related_or_irrelevant'
p32
sS'498500997719678977'
p33
S'not_related_or_irrelevant'
p34
sS'498500773349576704'
p35
S'not_related_or_irrelevant'
p36
sS'498515236883009536'
p37
S'other_useful_information'
p38
sS'498514230078083072'
p39
S'injured_or_dead_people'
p40
sS'498497779606781952'
p41
S'not_related_or_irrelevant'
p42
sS'498513886312538112'
p43
S'injured_or_dead_people'
p44
sS'498514545007398912'
p45
S'other_useful_information'
p46
sS'498509266433875968'
p47
S'infrastructure_and_utilities_damage'
p48
sS'498499872413065216'
p49
S'not_related_or_irrelevant'
p50
sS'498498652705660928'
p51
S'not_related_or_irrelevant'
p52
sS'498498232784146433'
p53
S'not_related_or_irrelevant'
p54
sS'498511080608772096'
p55
S'infrastructure_and_utilities_damage'
p56
sS'498502980342398976'
p57
S'not_related_or_irrelevant'
p58
sS'498507635441008641'
p59
S'other_useful_information'
p60
sS'498506944391675904'
p61
S'injured_or_dead_people'
p62
sS'498499435195023361'
p63
S'not_related_or_irrelevant'
p64
sS'498513164838129666'
p65
S'injured_or_dead_people'
p66
sS'498499077928415232'
p67
S'not_related_or_irrelevant'
p68
sS'498512020296069120'
p69
S'caution_and_advice'
p70
sS'498505211799801856'
p71
S'injured_or_dead_people'
p72
sS'498506769141088257'
p73
S'injured_or_dead_people'
p74
sS'498513709535203328'
p75
S'other_useful_information'
p76
sS'498506076988657664'
p77
S'injured_or_dead_people'
p78
sS'498507104106582016'
p79
S'not_related_or_irrelevant'
p80
sS'498507167092072448'
p81
S'injured_or_dead_people'
p82
sS'498509180287090690'
p83
S'injured_or_dead_people'
p84
sS'498497752012451840'
p85
S'not_related_or_irrelevant'
p86
sS'498511148518752256'
p87
S'injured_or_dead_people'
p88
sS'498498650415587328'
p89
S'not_related_or_irrelevant'
p90
sS'498515030057689089'
p91
S'injured_or_dead_people'
p92
sS'498513665247961088'
p93
S'injured_or_dead_people'
p94
sS'498501447122964480'
p95
S'not_related_or_irrelevant'
p96
sS'498508993493737472'
p97
S'other_useful_information'
p98
sS'498507909220012033'
p99
S'other_useful_information'
p100
sS'498500104907935744'
p101
S'not_related_or_irrelevant'
p102
sS'498504654020706305'
p103
S'other_useful_information'
p104
sS'498515598499131392'
p105
S'injured_or_dead_people'
p106
sS'498511035511623680'
p107
S'injured_or_dead_people'
p108
sS'498515696893300736'
p109
S'injured_or_dead_people'
p110
sS'498512745348612096'
p111
S'injured_or_dead_people'
p112
sS'498499596554076160'
p113
S'not_related_or_irrelevant'
p114
sS'498505881739206656'
p115
S'displaced_people_and_evacuations'
p116
sS'498514819553959936'
p117
S'sympathy_and_emotional_support'
p118
sS'498508745614581760'
p119
S'other_useful_information'
p120
sS'498502811114405889'
p121
S'not_related_or_irrelevant'
p122
sS'498514144883384320'
p123
S'other_useful_information'
p124
sS'498503078979829761'
p125
S'not_related_or_irrelevant'
p126
sS'498511217930301441'
p127
S'not_related_or_irrelevant'
p128
sS'498516490585251840'
p129
S'injured_or_dead_people'
p130
sS'498507108447309827'
p131
S'other_useful_information'
p132
sS'498513322078371840'
p133
S'other_useful_information'
p134
sS'498516455307378688'
p135
S'injured_or_dead_people'
p136
sS'498511991292444672'
p137
S'injured_or_dead_people'
p138
sS'498500152689442816'
p139
S'not_related_or_irrelevant'
p140
sS'498499146240643073'
p141
S'not_related_or_irrelevant'
p142
sS'498516707640475649'
p143
S'displaced_people_and_evacuations'
p144
sS'498499224024383488'
p145
S'not_related_or_irrelevant'
p146
sS'498500002096762880'
p147
S'not_related_or_irrelevant'
p148
sS'498509572286341121'
p149
S'donation_needs_or_offers_or_volunteering_services'
p150
sS'498506366852800512'
p151
S'injured_or_dead_people'
p152
sS'498501319888744448'
p153
S'not_related_or_irrelevant'
p154
sS'498513405914128384'
p155
S'other_useful_information'
p156
sS'498507304556191744'
p157
S'other_useful_information'
p158
sS'498513253404651520'
p159
S'injured_or_dead_people'
p160
sS'498513168604217344'
p161
S'infrastructure_and_utilities_damage'
p162
sS'498506210669121536'
p163
S'sympathy_and_emotional_support'
p164
sS'498509567643643904'
p165
S'sympathy_and_emotional_support'
p166
sS'498507201049542656'
p167
S'injured_or_dead_people'
p168
sS'498510586226147329'
p169
S'injured_or_dead_people'
p170
sS'498512146138144769'
p171
S'injured_or_dead_people'
p172
sS'498505590918762496'
p173
S'injured_or_dead_people'
p174
sS'498515076530585600'
p175
S'injured_or_dead_people'
p176
sS'498498689993027584'
p177
S'not_related_or_irrelevant'
p178
sS'498512765896491008'
p179
S'other_useful_information'
p180
sS'498511584902545408'
p181
S'infrastructure_and_utilities_damage'
p182
sS'498505086021009408'
p183
S'injured_or_dead_people'
p184
sS'498514208544555008'
p185
S'injured_or_dead_people'
p186
sS'498514237543563264'
p187
S'injured_or_dead_people'
p188
sS'498504974285152256'
p189
S'other_useful_information'
p190
sS'498503600373764097'
p191
S'injured_or_dead_people'
p192
sS'498511365527855104'
p193
S'injured_or_dead_people'
p194
sS'498510808775942144'
p195
S'other_useful_information'
p196
sS'498513924149747712'
p197
S'injured_or_dead_people'
p198
sS'498514175736303617'
p199
S'injured_or_dead_people'
p200
sS'498502074380713984'
p201
S'not_related_or_irrelevant'
p202
sS'498506608566337536'
p203
S'infrastructure_and_utilities_damage'
p204
sS'498505615288045570'
p205
S'other_useful_information'
p206
sS'498506517398556673'
p207
S'injured_or_dead_people'
p208
sS'498507047835406336'
p209
S'displaced_people_and_evacuations'
p210
sS'498513211810152448'
p211
S'displaced_people_and_evacuations'
p212
sS'498503072981999617'
p213
S'not_related_or_irrelevant'
p214
sS'498504504846086145'
p215
S'injured_or_dead_people'
p216
sS'498514880488411136'
p217
S'not_related_or_irrelevant'
p218
sS'498510509818146816'
p219
S'other_useful_information'
p220
sS'498499165622910976'
p221
S'not_related_or_irrelevant'
p222
sS'498512583872499712'
p223
S'not_related_or_irrelevant'
p224
sS'498514558240055296'
p225
S'injured_or_dead_people'
p226
sS'498512383262724098'
p227
S'injured_or_dead_people'
p228
sS'498508675473235968'
p229
S'other_useful_information'
p230
sS'498515563472101376'
p231
S'injured_or_dead_people'
p232
sS'498501230533283840'
p233
S'not_related_or_irrelevant'
p234
sS'498505007273353218'
p235
S'other_useful_information'
p236
sS'498498905064345601'
p237
S'not_related_or_irrelevant'
p238
sS'498497771918614528'
p239
S'not_related_or_irrelevant'
p240
sS'498514523649613824'
p241
S'not_related_or_irrelevant'
p242
sS'498501929354682368'
p243
S'not_related_or_irrelevant'
p244
sS'498513843036106753'
p245
S'injured_or_dead_people'
p246
sS'498515034792673280'
p247
S'injured_or_dead_people'
p248
sS'498498358122905601'
p249
S'not_related_or_irrelevant'
p250
sS'498507417538531328'
p251
S'sympathy_and_emotional_support'
p252
sS'498509384754806786'
p253
S'injured_or_dead_people'
p254
sS'498502566938816514'
p255
S'not_related_or_irrelevant'
p256
sS'498513541474045952'
p257
S'other_useful_information'
p258
sS'498504095943376896'
p259
S'injured_or_dead_people'
p260
sS'498511912012087298'
p261
S'other_useful_information'
p262
sS'498509919545741312'
p263
S'not_related_or_irrelevant'
p264
sS'498501787117432832'
p265
S'not_related_or_irrelevant'
p266
sS'498506222790660096'
p267
S'injured_or_dead_people'
p268
sS'498514742198431744'
p269
S'injured_or_dead_people'
p270
sS'498503494672711681'
p271
S'injured_or_dead_people'
p272
sS'498513853789900800'
p273
S'other_useful_information'
p274
sS'498516796325236736'
p275
S'other_useful_information'
p276
sS'498501404022304769'
p277
S'not_related_or_irrelevant'
p278
sS'498509143523590145'
p279
S'not_related_or_irrelevant'
p280
sS'498501846236155905'
p281
S'not_related_or_irrelevant'
p282
sS'498516669895942144'
p283
S'injured_or_dead_people'
p284
sS'498508305644683264'
p285
S'caution_and_advice'
p286
sS'498505644006068224'
p287
S'other_useful_information'
p288
sS'498506909000151040'
p289
S'other_useful_information'
p290
sS'498504238767828993'
p291
S'injured_or_dead_people'
p292
sS'498515343229587456'
p293
S'other_useful_information'
p294
sS'498504941489491969'
p295
S'other_useful_information'
p296
sS'498503044964028417'
p297
S'not_related_or_irrelevant'
p298
sS'498509270527139840'
p299
S'caution_and_advice'
p300
sS'498511152088113153'
p301
S'injured_or_dead_people'
p302
sS'498515213386526720'
p303
S'donation_needs_or_offers_or_volunteering_services'
p304
sS'498513175021887488'
p305
S'injured_or_dead_people'
p306
sS'498507134259048448'
p307
S'injured_or_dead_people'
p308
sS'498500442733961216'
p309
S'not_related_or_irrelevant'
p310
sS'498504783553363968'
p311
S'injured_or_dead_people'
p312
sS'498499008957255681'
p313
S'not_related_or_irrelevant'
p314
sS'498515969904738304'
p315
S'injured_or_dead_people'
p316
sS'498503416729989121'
p317
S'injured_or_dead_people'
p318
sS'498505396748025856'
p319
S'injured_or_dead_people'
p320
sS'498511470791897089'
p321
S'other_useful_information'
p322
sS'498503800391729152'
p323
S'injured_or_dead_people'
p324
sS'498497845067259905'
p325
S'not_related_or_irrelevant'
p326
sS'498504894039355392'
p327
S'displaced_people_and_evacuations'
p328
sS'498500158448234496'
p329
S'not_related_or_irrelevant'
p330
sS'498502350311800832'
p331
S'not_related_or_irrelevant'
p332
sS'498502445539295232'
p333
S'not_related_or_irrelevant'
p334
sS'498510420249178112'
p335
S'other_useful_information'
p336
sS'498512120032821248'
p337
S'injured_or_dead_people'
p338
sS'498511924724654082'
p339
S'not_related_or_irrelevant'
p340
sS'498511844407930880'
p341
S'injured_or_dead_people'
p342
sS'498506522746302464'
p343
S'donation_needs_or_offers_or_volunteering_services'
p344
sS'498501867652276224'
p345
S'not_related_or_irrelevant'
p346
sS'498516781515165697'
p347
S'injured_or_dead_people'
p348
sS'498503680107483136'
p349
S'other_useful_information'
p350
sS'498516531555627008'
p351
S'other_useful_information'
p352
sS'498516369025945600'
p353
S'infrastructure_and_utilities_damage'
p354
sS'498500253880811520'
p355
S'not_related_or_irrelevant'
p356
sS'498508382119018496'
p357
S'caution_and_advice'
p358
sS'498502790365577216'
p359
S'not_related_or_irrelevant'
p360
sS'498508546641002497'
p361
S'missing_trapped_or_found_people'
p362
sS'498499345491038208'
p363
S'not_related_or_irrelevant'
p364
sS'498499446553206784'
p365
S'not_related_or_irrelevant'
p366
sS'498515833766047744'
p367
S'donation_needs_or_offers_or_volunteering_services'
p368
sS'498506279166283776'
p369
S'injured_or_dead_people'
p370
sS'498497845880963072'
p371
S'not_related_or_irrelevant'
p372
sS'498497714183626754'
p373
S'not_related_or_irrelevant'
p374
sS'498516027576451072'
p375
S'injured_or_dead_people'
p376
sS'498498108616351744'
p377
S'not_related_or_irrelevant'
p378
sS'498506584306106371'
p379
S'other_useful_information'
p380
sS'498497878609125376'
p381
S'not_related_or_irrelevant'
p382
sS'498508971003891712'
p383
S'injured_or_dead_people'
p384
sS'498502830915739648'
p385
S'not_related_or_irrelevant'
p386
sS'498498066258079744'
p387
S'not_related_or_irrelevant'
p388
sS'498509806203047938'
p389
S'not_related_or_irrelevant'
p390
sS'498502381248978945'
p391
S'not_related_or_irrelevant'
p392
sS'498503441862635522'
p393
S'injured_or_dead_people'
p394
sS'498514652062838785'
p395
S'injured_or_dead_people'
p396
sS'498504916428521474'
p397
S'caution_and_advice'
p398
sS'498509433115123712'
p399
S'other_useful_information'
p400
sS'498515086328086528'
p401
S'injured_or_dead_people'
p402
sS'498508915655852034'
p403
S'sympathy_and_emotional_support'
p404
sS'498504257922813952'
p405
S'injured_or_dead_people'
p406
sS'498509595078557697'
p407
S'other_useful_information'
p408
sS'498507610421993472'
p409
S'other_useful_information'
p410
sS'498501834940895233'
p411
S'sympathy_and_emotional_support'
p412
sS'498515729361018880'
p413
S'injured_or_dead_people'
p414
sS'498502488300208128'
p415
S'not_related_or_irrelevant'
p416
sS'498504194324586496'
p417
S'other_useful_information'
p418
sS'498506046563184640'
p419
S'injured_or_dead_people'
p420
sS'498512248235892736'
p421
S'injured_or_dead_people'
p422
sS'498498483712581632'
p423
S'not_related_or_irrelevant'
p424
sS'498513861696565248'
p425
S'injured_or_dead_people'
p426
sS'498510127298015233'
p427
S'not_related_or_irrelevant'
p428
sS'498502351112511488'
p429
S'not_related_or_irrelevant'
p430
sS'498509291637465089'
p431
S'injured_or_dead_people'
p432
sS'498511813341085696'
p433
S'injured_or_dead_people'
p434
sS'498499026476888065'
p435
S'not_related_or_irrelevant'
p436
sS'498498625886896128'
p437
S'not_related_or_irrelevant'
p438
sS'498509578561003520'
p439
S'injured_or_dead_people'
p440
sS'498501563116027904'
p441
S'not_related_or_irrelevant'
p442
sS'498498228825104385'
p443
S'donation_needs_or_offers_or_volunteering_services'
p444
sS'498508297180172288'
p445
S'injured_or_dead_people'
p446
sS'498497681036025856'
p447
S'not_related_or_irrelevant'
p448
sS'498516536584601600'
p449
S'injured_or_dead_people'
p450
sS'498501155320631298'
p451
S'not_related_or_irrelevant'
p452
sS'498499712140738561'
p453
S'not_related_or_irrelevant'
p454
sS'498506612412534784'
p455
S'injured_or_dead_people'
p456
sS'498505974970597376'
p457
S'infrastructure_and_utilities_damage'
p458
sS'498514563919134721'
p459
S'injured_or_dead_people'
p460
sS'498503707051319296'
p461
S'injured_or_dead_people'
p462
sS'498511770668240896'
p463
S'not_related_or_irrelevant'
p464
sS'498501271137955840'
p465
S'not_related_or_irrelevant'
p466
sS'498498645814427650'
p467
S'not_related_or_irrelevant'
p468
sS'498499593588334592'
p469
S'not_related_or_irrelevant'
p470
sS'498514149694246913'
p471
S'injured_or_dead_people'
p472
sS'498512714361102336'
p473
S'injured_or_dead_people'
p474
sS'498516763660009472'
p475
S'injured_or_dead_people'
p476
sS'498508656082948096'
p477
S'injured_or_dead_people'
p478
sS'498508653679628290'
p479
S'injured_or_dead_people'
p480
sS'498515682158735360'
p481
S'other_useful_information'
p482
sS'498497864885338112'
p483
S'injured_or_dead_people'
p484
sS'498512906364125184'
p485
S'other_useful_information'
p486
sS'498514532759654400'
p487
S'other_useful_information'
p488
sS'498508223264358400'
p489
S'injured_or_dead_people'
p490
sS'498512159798988800'
p491
S'injured_or_dead_people'
p492
sS'498500003644858368'
p493
S'not_related_or_irrelevant'
p494
sS'498506222253780992'
p495
S'not_related_or_irrelevant'
p496
sS'498501190062051328'
p497
S'not_related_or_irrelevant'
p498
sS'498500649269473280'
p499
S'not_related_or_irrelevant'
p500
sS'498505129918996480'
p501
S'injured_or_dead_people'
p502
sS'498499881405661184'
p503
S'not_related_or_irrelevant'
p504
sS'498507042693185536'
p505
S'injured_or_dead_people'
p506
sS'498510321540419584'
p507
S'injured_or_dead_people'
p508
sS'498500315444834305'
p509
S'not_related_or_irrelevant'
p510
sS'498510674319142914'
p511
S'injured_or_dead_people'
p512
sS'498506053009813505'
p513
S'other_useful_information'
p514
sS'498503547630399488'
p515
S'infrastructure_and_utilities_damage'
p516
sS'498506850145681408'
p517
S'injured_or_dead_people'
p518
sS'498512435767025665'
p519
S'caution_and_advice'
p520
sS'498499666284396544'
p521
S'not_related_or_irrelevant'
p522
sS'498502922662322176'
p523
S'not_related_or_irrelevant'
p524
sS'498514161827979265'
p525
S'injured_or_dead_people'
p526
sS'498515185217593344'
p527
S'injured_or_dead_people'
p528
sS'498500752101216256'
p529
S'not_related_or_irrelevant'
p530
sS'498510194801139712'
p531
S'injured_or_dead_people'
p532
sS'498511497325080577'
p533
S'injured_or_dead_people'
p534
sS'498515413341200386'
p535
S'injured_or_dead_people'
p536
sS'498511814729031680'
p537
S'injured_or_dead_people'
p538
sS'498508429825441793'
p539
S'injured_or_dead_people'
p540
sS'498504694616965120'
p541
S'injured_or_dead_people'
p542
sS'498506077361545217'
p543
S'injured_or_dead_people'
p544
sS'498516914679721984'
p545
S'injured_or_dead_people'
p546
sS'498510664252395520'
p547
S'donation_needs_or_offers_or_volunteering_services'
p548
sS'498506531630223361'
p549
S'injured_or_dead_people'
p550
sS'498499876414435328'
p551
S'not_related_or_irrelevant'
p552
sS'498502754885595136'
p553
S'not_related_or_irrelevant'
p554
sS'498508396560392193'
p555
S'injured_or_dead_people'
p556
sS'498513976133967872'
p557
S'injured_or_dead_people'
p558
sS'498506474663190528'
p559
S'injured_or_dead_people'
p560
sS'498504156957536256'
p561
S'injured_or_dead_people'
p562
sS'498503780196167680'
p563
S'injured_or_dead_people'
p564
sS'498498367488413696'
p565
S'not_related_or_irrelevant'
p566
sS'498507680416534528'
p567
S'injured_or_dead_people'
p568
sS'498515656175009792'
p569
S'infrastructure_and_utilities_damage'
p570
sS'498500865205211136'
p571
S'not_related_or_irrelevant'
p572
sS'498506007807418368'
p573
S'injured_or_dead_people'
p574
sS'498512748247261184'
p575
S'other_useful_information'
p576
sS'498513894454099969'
p577
S'injured_or_dead_people'
p578
sS'498513270039666688'
p579
S'other_useful_information'
p580
sS'498509007251058688'
p581
S'displaced_people_and_evacuations'
p582
sS'498500152332914688'
p583
S'not_related_or_irrelevant'
p584
sS'498514689824133121'
p585
S'injured_or_dead_people'
p586
sS'498502875153432576'
p587
S'not_related_or_irrelevant'
p588
sS'498514975921831937'
p589
S'other_useful_information'
p590
sS'498503729356607488'
p591
S'other_useful_information'
p592
sS'498497663609085955'
p593
S'not_related_or_irrelevant'
p594
sS'498511048711110656'
p595
S'injured_or_dead_people'
p596
sS'498513207200595968'
p597
S'not_related_or_irrelevant'
p598
sS'498510636910145537'
p599
S'infrastructure_and_utilities_damage'
p600
sS'498507080400371713'
p601
S'injured_or_dead_people'
p602
sS'498505091343593472'
p603
S'injured_or_dead_people'
p604
sS'498501992302387200'
p605
S'not_related_or_irrelevant'
p606
sS'498516073038094336'
p607
S'injured_or_dead_people'
p608
sS'498506300763176960'
p609
S'injured_or_dead_people'
p610
sS'498500003099590656'
p611
S'not_related_or_irrelevant'
p612
sS'498515701263372288'
p613
S'injured_or_dead_people'
p614
sS'498515101134389248'
p615
S'infrastructure_and_utilities_damage'
p616
sS'498509457044033538'
p617
S'injured_or_dead_people'
p618
sS'498507706119258112'
p619
S'injured_or_dead_people'
p620
sS'498507869537718272'
p621
S'injured_or_dead_people'
p622
sS'498516390681522176'
p623
S'other_useful_information'
p624
sS'498499965916696576'
p625
S'not_related_or_irrelevant'
p626
sS'498513192872841216'
p627
S'injured_or_dead_people'
p628
sS'498512586401660928'
p629
S'other_useful_information'
p630
sS'498501726513922048'
p631
S'not_related_or_irrelevant'
p632
sS'498516707229433856'
p633
S'injured_or_dead_people'
p634
sS'498500908796624896'
p635
S'not_related_or_irrelevant'
p636
sS'498506342441951233'
p637
S'other_useful_information'
p638
sS'498512664818380800'
p639
S'injured_or_dead_people'
p640
sS'498515976191606784'
p641
S'injured_or_dead_people'
p642
sS'498507876303130624'
p643
S'injured_or_dead_people'
p644
sS'498508536641748992'
p645
S'injured_or_dead_people'
p646
sS'498501681986822144'
p647
S'not_related_or_irrelevant'
p648
sS'498514285182865410'
p649
S'injured_or_dead_people'
p650
sS'498503236153008128'
p651
S'other_useful_information'
p652
sS'498514018383167489'
p653
S'other_useful_information'
p654
sS'498506161482510336'
p655
S'other_useful_information'
p656
sS'498514313599258624'
p657
S'injured_or_dead_people'
p658
sS'498507550937993219'
p659
S'not_related_or_irrelevant'
p660
sS'498502191116992512'
p661
S'not_related_or_irrelevant'
p662
sS'498508075364794369'
p663
S'injured_or_dead_people'
p664
sS'498503738496417793'
p665
S'injured_or_dead_people'
p666
sS'498513637699776514'
p667
S'injured_or_dead_people'
p668
sS'498503935066247168'
p669
S'injured_or_dead_people'
p670
sS'498507079489826816'
p671
S'other_useful_information'
p672
sS'498512479471685632'
p673
S'injured_or_dead_people'
p674
sS'498513473966309376'
p675
S'injured_or_dead_people'
p676
sS'498507797672497152'
p677
S'sympathy_and_emotional_support'
p678
sS'498514702973304832'
p679
S'donation_needs_or_offers_or_volunteering_services'
p680
sS'498508577481707520'
p681
S'injured_or_dead_people'
p682
sS'498512191805743104'
p683
S'injured_or_dead_people'
p684
sS'498507034489532416'
p685
S'other_useful_information'
p686
sS'498511103207677952'
p687
S'injured_or_dead_people'
p688
sS'498499891564654592'
p689
S'not_related_or_irrelevant'
p690
sS'498506733560401921'
p691
S'not_related_or_irrelevant'
p692
sS'498506842495275008'
p693
S'infrastructure_and_utilities_damage'
p694
sS'498505306281107457'
p695
S'injured_or_dead_people'
p696
sS'498504698005962752'
p697
S'injured_or_dead_people'
p698
sS'498515027176198144'
p699
S'infrastructure_and_utilities_damage'
p700
sS'498504965925515264'
p701
S'injured_or_dead_people'
p702
sS'498506616778412032'
p703
S'injured_or_dead_people'
p704
sS'498505121450688513'
p705
S'injured_or_dead_people'
p706
sS'498503201260584960'
p707
S'injured_or_dead_people'
p708
sS'498511139765243904'
p709
S'displaced_people_and_evacuations'
p710
sS'498499321709334528'
p711
S'not_related_or_irrelevant'
p712
sS'498500625236508672'
p713
S'not_related_or_irrelevant'
p714
sS'498509396939653121'
p715
S'other_useful_information'
p716
sS'498498502855376896'
p717
S'not_related_or_irrelevant'
p718
sS'498514530926751744'
p719
S'other_useful_information'
p720
sS'498509914109906944'
p721
S'injured_or_dead_people'
p722
sS'498515310769897472'
p723
S'injured_or_dead_people'
p724
sS'498502921966088192'
p725
S'not_related_or_irrelevant'
p726
sS'498505966875582465'
p727
S'injured_or_dead_people'
p728
sS'498515741822689281'
p729
S'injured_or_dead_people'
p730
sS'498499385375064065'
p731
S'not_related_or_irrelevant'
p732
sS'498503663233806336'
p733
S'missing_trapped_or_found_people'
p734
sS'498511468120113153'
p735
S'injured_or_dead_people'
p736
sS'498507362727370753'
p737
S'injured_or_dead_people'
p738
sS'498499864784019458'
p739
S'donation_needs_or_offers_or_volunteering_services'
p740
sS'498506620750790656'
p741
S'injured_or_dead_people'
p742
sS'498500821240143872'
p743
S'not_related_or_irrelevant'
p744
sS'498504688354881536'
p745
S'injured_or_dead_people'
p746
sS'498501894008889344'
p747
S'not_related_or_irrelevant'
p748
sS'498501561845157888'
p749
S'not_related_or_irrelevant'
p750
sS'498510349176303616'
p751
S'injured_or_dead_people'
p752
sS'498510078761127936'
p753
S'not_related_or_irrelevant'
p754
sS'498516707837632513'
p755
S'injured_or_dead_people'
p756
sS'498511042821885952'
p757
S'injured_or_dead_people'
p758
sS'498514489940377600'
p759
S'other_useful_information'
p760
sS'498505594676858882'
p761
S'not_related_or_irrelevant'
p762
sS'498515071837155328'
p763
S'injured_or_dead_people'
p764
sS'498506721976147968'
p765
S'injured_or_dead_people'
p766
sS'498510055096848385'
p767
S'injured_or_dead_people'
p768
sS'498499200317808640'
p769
S'not_related_or_irrelevant'
p770
sS'498511433286434816'
p771
S'injured_or_dead_people'
p772
sS'498501811532488704'
p773
S'not_related_or_irrelevant'
p774
sS'498513903882895360'
p775
S'injured_or_dead_people'
p776
sS'498507648070090753'
p777
S'injured_or_dead_people'
p778
sS'498509687801643008'
p779
S'injured_or_dead_people'
p780
sS'498504445659860992'
p781
S'other_useful_information'
p782
sS'498508361697329152'
p783
S'injured_or_dead_people'
p784
sS'498512511952359424'
p785
S'displaced_people_and_evacuations'
p786
sS'498505314950721536'
p787
S'injured_or_dead_people'
p788
sS'498516794500739072'
p789
S'injured_or_dead_people'
p790
sS'498516054977830912'
p791
S'injured_or_dead_people'
p792
sS'498506897272885248'
p793
S'other_useful_information'
p794
sS'498497696949235712'
p795
S'not_related_or_irrelevant'
p796
sS'498503102388240384'
p797
S'not_related_or_irrelevant'
p798
sS'498511155296743425'
p799
S'injured_or_dead_people'
p800
sS'498499641684815873'
p801
S'not_related_or_irrelevant'
p802
sS'498498241239871488'
p803
S'not_related_or_irrelevant'
p804
sS'498503831018147840'
p805
S'injured_or_dead_people'
p806
sS'498509187006357504'
p807
S'infrastructure_and_utilities_damage'
p808
sS'498512909782507522'
p809
S'other_useful_information'
p810
sS'498507367508889602'
p811
S'injured_or_dead_people'
p812
sS'498515961675137025'
p813
S'injured_or_dead_people'
p814
sS'498500419153174529'
p815
S'not_related_or_irrelevant'
p816
sS'498498774390407168'
p817
S'other_useful_information'
p818
sS'498500101896024064'
p819
S'not_related_or_irrelevant'
p820
sS'498503379271032834'
p821
S'sympathy_and_emotional_support'
p822
sS'498516114159050752'
p823
S'injured_or_dead_people'
p824
sS'498501418874327040'
p825
S'not_related_or_irrelevant'
p826
sS'498502975569276928'
p827
S'not_related_or_irrelevant'
p828
sS'498503346735439874'
p829
S'other_useful_information'
p830
sS'498513028087021568'
p831
S'other_useful_information'
p832
sS'498504456695058433'
p833
S'injured_or_dead_people'
p834
sS'498506930399506432'
p835
S'other_useful_information'
p836
sS'498506973231329280'
p837
S'other_useful_information'
p838
sS'498515329489059840'
p839
S'infrastructure_and_utilities_damage'
p840
sS'498504354186657792'
p841
S'injured_or_dead_people'
p842
sS'498515767533395970'
p843
S'injured_or_dead_people'
p844
sS'498505561944891393'
p845
S'injured_or_dead_people'
p846
sS'498498400330203137'
p847
S'not_related_or_irrelevant'
p848
sS'498504502195269633'
p849
S'injured_or_dead_people'
p850
sS'498511102175498240'
p851
S'caution_and_advice'
p852
sS'498515684520108032'
p853
S'not_related_or_irrelevant'
p854
sS'498504343813775361'
p855
S'injured_or_dead_people'
p856
sS'498510533323395072'
p857
S'donation_needs_or_offers_or_volunteering_services'
p858
sS'498497964202274818'
p859
S'not_related_or_irrelevant'
p860
sS'498512421636829185'
p861
S'injured_or_dead_people'
p862
sS'498511441171738624'
p863
S'missing_trapped_or_found_people'
p864
sS'498514296905953280'
p865
S'other_useful_information'
p866
sS'498499812665606144'
p867
S'not_related_or_irrelevant'
p868
sS'498504979729358849'
p869
S'injured_or_dead_people'
p870
sS'498497744609488896'
p871
S'not_related_or_irrelevant'
p872
sS'498512788193832960'
p873
S'not_related_or_irrelevant'
p874
sS'498513042049871873'
p875
S'injured_or_dead_people'
p876
sS'498498883027492865'
p877
S'not_related_or_irrelevant'
p878
sS'498504319985922049'
p879
S'other_useful_information'
p880
sS'498515894524719104'
p881
S'other_useful_information'
p882
sS'498505640822984704'
p883
S'other_useful_information'
p884
sS'498499618989412353'
p885
S'not_related_or_irrelevant'
p886
sS'498507522341617664'
p887
S'injured_or_dead_people'
p888
sS'498506865475469312'
p889
S'injured_or_dead_people'
p890
sS'498502548995575808'
p891
S'not_related_or_irrelevant'
p892
sS'498510148261146625'
p893
S'injured_or_dead_people'
p894
sS'498501693899018240'
p895
S'not_related_or_irrelevant'
p896
sS'498504652485574656'
p897
S'other_useful_information'
p898
sS'498497954681192448'
p899
S'not_related_or_irrelevant'
p900
sS'498499317984817152'
p901
S'not_related_or_irrelevant'
p902
sS'498500285141356545'
p903
S'not_related_or_irrelevant'
p904
sS'498505489907728384'
p905
S'other_useful_information'
p906
sS'498504088720801792'
p907
S'injured_or_dead_people'
p908
sS'498507434508697604'
p909
S'injured_or_dead_people'
p910
sS'498500839120842753'
p911
S'not_related_or_irrelevant'
p912
sS'498499509190553600'
p913
S'not_related_or_irrelevant'
p914
sS'498507907055362048'
p915
S'injured_or_dead_people'
p916
sS'498515660448608256'
p917
S'infrastructure_and_utilities_damage'
p918
sS'498509300894273536'
p919
S'caution_and_advice'
p920
sS'498500597427867648'
p921
S'not_related_or_irrelevant'
p922
sS'498513429951287296'
p923
S'injured_or_dead_people'
p924
sS'498503374644736000'
p925
S'injured_or_dead_people'
p926
sS'498514377876578306'
p927
S'injured_or_dead_people'
p928
sS'498511252595830784'
p929
S'injured_or_dead_people'
p930
sS'498508405330280448'
p931
S'injured_or_dead_people'
p932
sS'498500514938490881'
p933
S'not_related_or_irrelevant'
p934
sS'498506722672394240'
p935
S'injured_or_dead_people'
p936
sS'498508149847232513'
p937
S'injured_or_dead_people'
p938
sS'498501496502505472'
p939
S'not_related_or_irrelevant'
p940
sS'498505163057803265'
p941
S'injured_or_dead_people'
p942
sS'498507059990495232'
p943
S'injured_or_dead_people'
p944
sS'498514918279499776'
p945
S'not_related_or_irrelevant'
p946
sS'498497916127154176'
p947
S'not_related_or_irrelevant'
p948
sS'498505663710912512'
p949
S'injured_or_dead_people'
p950
sS'498516823844073472'
p951
S'other_useful_information'
p952
sS'498514478246289408'
p953
S'injured_or_dead_people'
p954
sS'498501500982022144'
p955
S'not_related_or_irrelevant'
p956
sS'498511756030124032'
p957
S'injured_or_dead_people'
p958
sS'498506926398124032'
p959
S'injured_or_dead_people'
p960
sS'498504444913258496'
p961
S'injured_or_dead_people'
p962
sS'498503890770624513'
p963
S'injured_or_dead_people'
p964
sS'498497825807015937'
p965
S'not_related_or_irrelevant'
p966
sS'498504857628602369'
p967
S'injured_or_dead_people'
p968
sS'498512158511337472'
p969
S'injured_or_dead_people'
p970
sS'498501234148802561'
p971
S'not_related_or_irrelevant'
p972
sS'498505527211855872'
p973
S'injured_or_dead_people'
p974
sS'498503882587512833'
p975
S'donation_needs_or_offers_or_volunteering_services'
p976
sS'498502197010001920'
p977
S'not_related_or_irrelevant'
p978
sS'498511464685404160'
p979
S'infrastructure_and_utilities_damage'
p980
sS'498515724210831360'
p981
S'injured_or_dead_people'
p982
sS'498502260318826497'
p983
S'not_related_or_irrelevant'
p984
sS'498515836702040064'
p985
S'not_related_or_irrelevant'
p986
sS'498512427680813056'
p987
S'not_related_or_irrelevant'
p988
sS'498516226759352322'
p989
S'other_useful_information'
p990
sS'498512771471142913'
p991
S'injured_or_dead_people'
p992
sS'498512501169225728'
p993
S'injured_or_dead_people'
p994
sS'498497823802159104'
p995
S'not_related_or_irrelevant'
p996
sS'498498899468775424'
p997
S'not_related_or_irrelevant'
p998
sS'498516337463803904'
p999
S'injured_or_dead_people'
p1000
sS'498500419300368385'
p1001
S'not_related_or_irrelevant'
p1002
sS'498509456855285762'
p1003
S'donation_needs_or_offers_or_volunteering_services'
p1004
sS'498515125956259840'
p1005
S'injured_or_dead_people'
p1006
sS'498503103856254976'
p1007
S'other_useful_information'
p1008
sS'498507358763368449'
p1009
S'injured_or_dead_people'
p1010
sS'498499478270124032'
p1011
S'not_related_or_irrelevant'
p1012
sS'498503052358201344'
p1013
S'not_related_or_irrelevant'
p1014
sS'498503567184236544'
p1015
S'injured_or_dead_people'
p1016
sS'498514973694636032'
p1017
S'other_useful_information'
p1018
sS'498512604621729792'
p1019
S'other_useful_information'
p1020
sS'498512967118229504'
p1021
S'donation_needs_or_offers_or_volunteering_services'
p1022
sS'498516316626505729'
p1023
S'injured_or_dead_people'
p1024
sS'498506956987195393'
p1025
S'injured_or_dead_people'
p1026
sS'498505536971603968'
p1027
S'injured_or_dead_people'
p1028
sS'498515579436011520'
p1029
S'injured_or_dead_people'
p1030
sS'498506330744049664'
p1031
S'injured_or_dead_people'
p1032
sS'498500048108654592'
p1033
S'not_related_or_irrelevant'
p1034
sS'498509395588706304'
p1035
S'injured_or_dead_people'
p1036
sS'498513708466049024'
p1037
S'other_useful_information'
p1038
sS'498503777176289280'
p1039
S'caution_and_advice'
p1040
sS'498505647516708867'
p1041
S'injured_or_dead_people'
p1042
sS'498508728640237569'
p1043
S'injured_or_dead_people'
p1044
sS'498512872646144002'
p1045
S'injured_or_dead_people'
p1046
sS'498500932565749761'
p1047
S'not_related_or_irrelevant'
p1048
sS'498509577134948352'
p1049
S'injured_or_dead_people'
p1050
sS'498500409754136577'
p1051
S'not_related_or_irrelevant'
p1052
sS'498498678735523840'
p1053
S'not_related_or_irrelevant'
p1054
sS'498505352544256001'
p1055
S'not_related_or_irrelevant'
p1056
sS'498501862078029825'
p1057
S'not_related_or_irrelevant'
p1058
sS'498509167012106241'
p1059
S'other_useful_information'
p1060
sS'498503972236570624'
p1061
S'injured_or_dead_people'
p1062
sS'498507518495424512'
p1063
S'other_useful_information'
p1064
sS'498506625930784769'
p1065
S'injured_or_dead_people'
p1066
sS'498498576092127233'
p1067
S'not_related_or_irrelevant'
p1068
sS'498501206151413762'
p1069
S'injured_or_dead_people'
p1070
sS'498507868891783168'
p1071
S'injured_or_dead_people'
p1072
sS'498501514491867136'
p1073
S'not_related_or_irrelevant'
p1074
sS'498511033229922304'
p1075
S'injured_or_dead_people'
p1076
sS'498500712348024832'
p1077
S'not_related_or_irrelevant'
p1078
sS'498502392753979392'
p1079
S'not_related_or_irrelevant'
p1080
sS'498504692247564288'
p1081
S'injured_or_dead_people'
p1082
sS'498499522708766723'
p1083
S'not_related_or_irrelevant'
p1084
sS'498506106356764673'
p1085
S'injured_or_dead_people'
p1086
sS'498499481365934080'
p1087
S'not_related_or_irrelevant'
p1088
sS'498515163205894147'
p1089
S'injured_or_dead_people'
p1090
sS'498507755003445249'
p1091
S'caution_and_advice'
p1092
sS'498506891996459008'
p1093
S'injured_or_dead_people'
p1094
sS'498515257003081730'
p1095
S'injured_or_dead_people'
p1096
sS'498506648244080640'
p1097
S'injured_or_dead_people'
p1098
sS'498515329501655040'
p1099
S'other_useful_information'
p1100
sS'498515920361254912'
p1101
S'injured_or_dead_people'
p1102
sS'498509686711529472'
p1103
S'injured_or_dead_people'
p1104
sS'498502076385996802'
p1105
S'not_related_or_irrelevant'
p1106
sS'498506748693475331'
p1107
S'other_useful_information'
p1108
sS'498502295471259648'
p1109
S'not_related_or_irrelevant'
p1110
sS'498514674473009152'
p1111
S'injured_or_dead_people'
p1112
sS'498503452973363201'
p1113
S'injured_or_dead_people'
p1114
sS'498507697504153600'
p1115
S'injured_or_dead_people'
p1116
sS'498513706834460672'
p1117
S'injured_or_dead_people'
p1118
sS'498512513399402496'
p1119
S'injured_or_dead_people'
p1120
sS'498515329493254145'
p1121
S'injured_or_dead_people'
p1122
sS'498502509317853185'
p1123
S'not_related_or_irrelevant'
p1124
sS'498499205229740033'
p1125
S'not_related_or_irrelevant'
p1126
sS'498497995214573568'
p1127
S'not_related_or_irrelevant'
p1128
sS'498501375199047680'
p1129
S'not_related_or_irrelevant'
p1130
sS'498509435619139585'
p1131
S'infrastructure_and_utilities_damage'
p1132
sS'498503777566330880'
p1133
S'injured_or_dead_people'
p1134
sS'498505869961617408'
p1135
S'injured_or_dead_people'
p1136
sS'498502104269340674'
p1137
S'not_related_or_irrelevant'
p1138
sS'498504810862477313'
p1139
S'injured_or_dead_people'
p1140
sS'498513072806723587'
p1141
S'injured_or_dead_people'
p1142
sS'498504397198856192'
p1143
S'other_useful_information'
p1144
sS'498512172247687168'
p1145
S'injured_or_dead_people'
p1146
sS'498502024028495872'
p1147
S'not_related_or_irrelevant'
p1148
sS'498505880661676032'
p1149
S'injured_or_dead_people'
p1150
sS'498504384066887681'
p1151
S'caution_and_advice'
p1152
sS'498516842001203200'
p1153
S'not_related_or_irrelevant'
p1154
sS'498498179026141184'
p1155
S'not_related_or_irrelevant'
p1156
sS'498501200904331264'
p1157
S'not_related_or_irrelevant'
p1158
sS'498500086515912704'
p1159
S'not_related_or_irrelevant'
p1160
sS'498513112153092096'
p1161
S'injured_or_dead_people'
p1162
sS'498497974960275456'
p1163
S'not_related_or_irrelevant'
p1164
sS'498507532277932032'
p1165
S'injured_or_dead_people'
p1166
sS'498514735508123648'
p1167
S'not_related_or_irrelevant'
p1168
sS'498511946061471745'
p1169
S'injured_or_dead_people'
p1170
sS'498507166181883904'
p1171
S'injured_or_dead_people'
p1172
sS'498514933706158080'
p1173
S'injured_or_dead_people'
p1174
sS'498506862741192704'
p1175
S'injured_or_dead_people'
p1176
sS'498501181677637632'
p1177
S'not_related_or_irrelevant'
p1178
sS'498503617389682688'
p1179
S'donation_needs_or_offers_or_volunteering_services'
p1180
sS'498515177860767744'
p1181
S'donation_needs_or_offers_or_volunteering_services'
p1182
sS'498505741880139777'
p1183
S'injured_or_dead_people'
p1184
sS'498502318380548096'
p1185
S'not_related_or_irrelevant'
p1186
sS'498514920292364288'
p1187
S'not_related_or_irrelevant'
p1188
sS'498511992622419968'
p1189
S'injured_or_dead_people'
p1190
sS'498510312191328256'
p1191
S'injured_or_dead_people'
p1192
sS'498512565916270593'
p1193
S'injured_or_dead_people'
p1194
sS'498505870653665281'
p1195
S'donation_needs_or_offers_or_volunteering_services'
p1196
sS'498507167557619712'
p1197
S'injured_or_dead_people'
p1198
sS'498515746805526528'
p1199
S'injured_or_dead_people'
p1200
sS'498514519384420352'
p1201
S'other_useful_information'
p1202
sS'498498681092714496'
p1203
S'not_related_or_irrelevant'
p1204
sS'498506833448165376'
p1205
S'injured_or_dead_people'
p1206
sS'498498056669896704'
p1207
S'not_related_or_irrelevant'
p1208
sS'498507637601075200'
p1209
S'injured_or_dead_people'
p1210
sS'498503854372450304'
p1211
S'injured_or_dead_people'
p1212
sS'498511040167305216'
p1213
S'injured_or_dead_people'
p1214
sS'498505161158184960'
p1215
S'other_useful_information'
p1216
sS'498513284824580096'
p1217
S'not_related_or_irrelevant'
p1218
sS'498500358608412672'
p1219
S'not_related_or_irrelevant'
p1220
sS'498513697963524098'
p1221
S'not_related_or_irrelevant'
p1222
sS'498499702225403904'
p1223
S'not_related_or_irrelevant'
p1224
sS'498508964980883456'
p1225
S'injured_or_dead_people'
p1226
sS'498501362112790528'
p1227
S'not_related_or_irrelevant'
p1228
sS'498504512529657858'
p1229
S'injured_or_dead_people'
p1230
sS'498499630116524032'
p1231
S'not_related_or_irrelevant'
p1232
sS'498514924747100160'
p1233
S'not_related_or_irrelevant'
p1234
sS'498514135575851008'
p1235
S'injured_or_dead_people'
p1236
sS'498503255811297280'
p1237
S'injured_or_dead_people'
p1238
sS'498498333791764481'
p1239
S'not_related_or_irrelevant'
p1240
sS'498500325998092288'
p1241
S'not_related_or_irrelevant'
p1242
sS'498512903675596800'
p1243
S'injured_or_dead_people'
p1244
sS'498512132246601728'
p1245
S'injured_or_dead_people'
p1246
sS'498509913619177473'
p1247
S'injured_or_dead_people'
p1248
sS'498514234725003264'
p1249
S'other_useful_information'
p1250
sS'498505300216143872'
p1251
S'injured_or_dead_people'
p1252
sS'498514409094774785'
p1253
S'injured_or_dead_people'
p1254
sS'498507618265350144'
p1255
S'other_useful_information'
p1256
sS'498513538378633217'
p1257
S'not_related_or_irrelevant'
p1258
sS'498514823114928128'
p1259
S'injured_or_dead_people'
p1260
sS'498514987267403776'
p1261
S'other_useful_information'
p1262
sS'498512489848795136'
p1263
S'other_useful_information'
p1264
sS'498513024135995393'
p1265
S'injured_or_dead_people'
p1266
sS'498501762077442049'
p1267
S'not_related_or_irrelevant'
p1268
sS'498503424405946368'
p1269
S'injured_or_dead_people'
p1270
sS'498515954385424384'
p1271
S'injured_or_dead_people'
p1272
sS'498512963163418624'
p1273
S'injured_or_dead_people'
p1274
sS'498498319514361857'
p1275
S'not_related_or_irrelevant'
p1276
sS'498513448687263744'
p1277
S'injured_or_dead_people'
p1278
sS'498505661123014656'
p1279
S'not_related_or_irrelevant'
p1280
sS'498503509919023104'
p1281
S'injured_or_dead_people'
p1282
sS'498511717044076544'
p1283
S'other_useful_information'
p1284
sS'498503176903864321'
p1285
S'injured_or_dead_people'
p1286
sS'498512538041327616'
p1287
S'injured_or_dead_people'
p1288
sS'498516623301804032'
p1289
S'injured_or_dead_people'
p1290
sS'498511407441133568'
p1291
S'injured_or_dead_people'
p1292
sS'498514171370418176'
p1293
S'other_useful_information'
p1294
sS'498510164517851137'
p1295
S'other_useful_information'
p1296
sS'498511564496830464'
p1297
S'infrastructure_and_utilities_damage'
p1298
sS'498513752212664320'
p1299
S'injured_or_dead_people'
p1300
sS'498499028448202752'
p1301
S'sympathy_and_emotional_support'
p1302
sS'498508476965212160'
p1303
S'not_related_or_irrelevant'
p1304
sS'498514283379298304'
p1305
S'injured_or_dead_people'
p1306
sS'498502878781505536'
p1307
S'not_related_or_irrelevant'
p1308
sS'498500370155732992'
p1309
S'not_related_or_irrelevant'
p1310
sS'498507528351670272'
p1311
S'displaced_people_and_evacuations'
p1312
sS'498500169248563200'
p1313
S'not_related_or_irrelevant'
p1314
sS'498512602495201280'
p1315
S'injured_or_dead_people'
p1316
sS'498501936786984960'
p1317
S'not_related_or_irrelevant'
p1318
sS'498508183476785152'
p1319
S'injured_or_dead_people'
p1320
sS'498499160728162304'
p1321
S'not_related_or_irrelevant'
p1322
sS'498514751907823616'
p1323
S'other_useful_information'
p1324
sS'498505525286690817'
p1325
S'donation_needs_or_offers_or_volunteering_services'
p1326
sS'498500923074023424'
p1327
S'not_related_or_irrelevant'
p1328
sS'498512150231400450'
p1329
S'other_useful_information'
p1330
sS'498503921032527872'
p1331
S'other_useful_information'
p1332
sS'498506814972256256'
p1333
S'injured_or_dead_people'
p1334
sS'498500314169765888'
p1335
S'not_related_or_irrelevant'
p1336
sS'498513695270764545'
p1337
S'injured_or_dead_people'
p1338
sS'498501962598342657'
p1339
S'not_related_or_irrelevant'
p1340
sS'498499498797449216'
p1341
S'not_related_or_irrelevant'
p1342
sS'498514552036659200'
p1343
S'other_useful_information'
p1344
sS'498497857981145088'
p1345
S'not_related_or_irrelevant'
p1346
sS'498513475786657793'
p1347
S'other_useful_information'
p1348
sS'498512319588995072'
p1349
S'infrastructure_and_utilities_damage'
p1350
sS'498516900989501440'
p1351
S'injured_or_dead_people'
p1352
sS'498509480611831808'
p1353
S'injured_or_dead_people'
p1354
sS'498501004628090880'
p1355
S'not_related_or_irrelevant'
p1356
sS'498505741486292992'
p1357
S'injured_or_dead_people'
p1358
sS'498504093707800576'
p1359
S'injured_or_dead_people'
p1360
sS'498511300276674560'
p1361
S'donation_needs_or_offers_or_volunteering_services'
p1362
sS'498503650218475520'
p1363
S'injured_or_dead_people'
p1364
sS'498505733240266752'
p1365
S'injured_or_dead_people'
p1366
sS'498501772474728448'
p1367
S'not_related_or_irrelevant'
p1368
sS'498501502025994242'
p1369
S'not_related_or_irrelevant'
p1370
sS'498501886886944769'
p1371
S'not_related_or_irrelevant'
p1372
sS'498508141408309248'
p1373
S'other_useful_information'
p1374
sS'498510840237416448'
p1375
S'injured_or_dead_people'
p1376
sS'498501142452523008'
p1377
S'not_related_or_irrelevant'
p1378
sS'498506876599164928'
p1379
S'other_useful_information'
p1380
sS'498509031762558976'
p1381
S'infrastructure_and_utilities_damage'
p1382
sS'498515510259384320'
p1383
S'other_useful_information'
p1384
sS'498504457638797313'
p1385
S'injured_or_dead_people'
p1386
sS'498514531983687681'
p1387
S'infrastructure_and_utilities_damage'
p1388
sS'498504693459714048'
p1389
S'other_useful_information'
p1390
sS'498513104431742976'
p1391
S'other_useful_information'
p1392
sS'498511558214189056'
p1393
S'injured_or_dead_people'
p1394
sS'498505214228705283'
p1395
S'injured_or_dead_people'
p1396
sS'498507437528186880'
p1397
S'injured_or_dead_people'
p1398
sS'498503313344966656'
p1399
S'infrastructure_and_utilities_damage'
p1400
sS'498505047181774848'
p1401
S'injured_or_dead_people'
p1402
sS'498511684232044544'
p1403
S'injured_or_dead_people'
p1404
sS'498508006209118208'
p1405
S'injured_or_dead_people'
p1406
sS'498510806783639552'
p1407
S'other_useful_information'
p1408
sS'498505439974535168'
p1409
S'caution_and_advice'
p1410
sS'498499208425402369'
p1411
S'not_related_or_irrelevant'
p1412
sS'498502837199208451'
p1413
S'not_related_or_irrelevant'
p1414
sS'498510549693788161'
p1415
S'injured_or_dead_people'
p1416
sS'498504450751729664'
p1417
S'not_related_or_irrelevant'
p1418
sS'498499781136613376'
p1419
S'not_related_or_irrelevant'
p1420
sS'498515097992822784'
p1421
S'injured_or_dead_people'
p1422
sS'498502994447851521'
p1423
S'not_related_or_irrelevant'
p1424
sS'498498722150752256'
p1425
S'not_related_or_irrelevant'
p1426
sS'498500006534729728'
p1427
S'not_related_or_irrelevant'
p1428
sS'498506804427386880'
p1429
S'injured_or_dead_people'
p1430
sS'498515340939526146'
p1431
S'sympathy_and_emotional_support'
p1432
sS'498504608072073216'
p1433
S'injured_or_dead_people'
p1434
sS'498514473024774144'
p1435
S'sympathy_and_emotional_support'
p1436
sS'498515880545116160'
p1437
S'injured_or_dead_people'
p1438
sS'498505176962310144'
p1439
S'injured_or_dead_people'
p1440
sS'498507562397224960'
p1441
S'injured_or_dead_people'
p1442
sS'498513481793273856'
p1443
S'injured_or_dead_people'
p1444
sS'498513721921396736'
p1445
S'infrastructure_and_utilities_damage'
p1446
sS'498512180720177152'
p1447
S'other_useful_information'
p1448
sS'498499422675025921'
p1449
S'not_related_or_irrelevant'
p1450
sS'498506596440236032'
p1451
S'injured_or_dead_people'
p1452
sS'498499060962443264'
p1453
S'not_related_or_irrelevant'
p1454
sS'498514531597811712'
p1455
S'injured_or_dead_people'
p1456
sS'498508696880939008'
p1457
S'injured_or_dead_people'
p1458
sS'498507999053627393'
p1459
S'displaced_people_and_evacuations'
p1460
sS'498514764893392897'
p1461
S'infrastructure_and_utilities_damage'
p1462
sS'498502753044684802'
p1463
S'not_related_or_irrelevant'
p1464
sS'498499524025778176'
p1465
S'not_related_or_irrelevant'
p1466
sS'498497893415018497'
p1467
S'not_related_or_irrelevant'
p1468
sS'498504681896017923'
p1469
S'other_useful_information'
p1470
sS'498506870965817347'
p1471
S'injured_or_dead_people'
p1472
sS'498512625853292544'
p1473
S'injured_or_dead_people'
p1474
sS'498516257134899200'
p1475
S'injured_or_dead_people'
p1476
sS'498504043841744897'
p1477
S'infrastructure_and_utilities_damage'
p1478
sS'498509320351653890'
p1479
S'injured_or_dead_people'
p1480
sS'498513006783758336'
p1481
S'not_related_or_irrelevant'
p1482
sS'498501575476670465'
p1483
S'not_related_or_irrelevant'
p1484
sS'498511021901119488'
p1485
S'other_useful_information'
p1486
sS'498508181551980545'
p1487
S'injured_or_dead_people'
p1488
sS'498514467979018240'
p1489
S'other_useful_information'
p1490
sS'498515051440242688'
p1491
S'injured_or_dead_people'
p1492
sS'498510320990953474'
p1493
S'injured_or_dead_people'
p1494
sS'498511733104058368'
p1495
S'sympathy_and_emotional_support'
p1496
sS'498514915683221504'
p1497
S'injured_or_dead_people'
p1498
sS'498502833537581056'
p1499
S'not_related_or_irrelevant'
p1500
sS'498513900032499712'
p1501
S'donation_needs_or_offers_or_volunteering_services'
p1502
sS'498507565022466050'
p1503
S'other_useful_information'
p1504
sS'498508546661969920'
p1505
S'injured_or_dead_people'
p1506
sS'498498364246622208'
p1507
S'not_related_or_irrelevant'
p1508
sS'498499351384440832'
p1509
S'not_related_or_irrelevant'
p1510
sS'498508754389073920'
p1511
S'injured_or_dead_people'
p1512
sS'498502102436429825'
p1513
S'not_related_or_irrelevant'
p1514
sS'498501217216380929'
p1515
S'not_related_or_irrelevant'
p1516
sS'498502044294979584'
p1517
S'not_related_or_irrelevant'
p1518
sS'498502874050363392'
p1519
S'not_related_or_irrelevant'
p1520
sS'498504284569223168'
p1521
S'other_useful_information'
p1522
sS'498510446128017410'
p1523
S'infrastructure_and_utilities_damage'
p1524
sS'498502718151872512'
p1525
S'not_related_or_irrelevant'
p1526
sS'498516562509582336'
p1527
S'injured_or_dead_people'
p1528
sS'498499946572959744'
p1529
S'not_related_or_irrelevant'
p1530
sS'498514038557769728'
p1531
S'injured_or_dead_people'
p1532
sS'498510415639224320'
p1533
S'infrastructure_and_utilities_damage'
p1534
sS'498509510508834816'
p1535
S'injured_or_dead_people'
p1536
sS'498512167176773632'
p1537
S'other_useful_information'
p1538
sS'498506343246860288'
p1539
S'injured_or_dead_people'
p1540
sS'498515824567922688'
p1541
S'other_useful_information'
p1542
sS'498497946342543360'
p1543
S'not_related_or_irrelevant'
p1544
sS'498515839583543296'
p1545
S'injured_or_dead_people'
p1546
sS'498513476239650818'
p1547
S'injured_or_dead_people'
p1548
sS'498515348157898752'
p1549
S'injured_or_dead_people'
p1550
sS'498501651691753472'
p1551
S'not_related_or_irrelevant'
p1552
sS'498508751234957312'
p1553
S'not_related_or_irrelevant'
p1554
sS'498505797908070400'
p1555
S'injured_or_dead_people'
p1556
sS'498512199665451008'
p1557
S'injured_or_dead_people'
p1558
sS'498514119117795329'
p1559
S'infrastructure_and_utilities_damage'
p1560
sS'498507844597977088'
p1561
S'injured_or_dead_people'
p1562
sS'498509029912883200'
p1563
S'injured_or_dead_people'
p1564
sS'498503619944394753'
p1565
S'injured_or_dead_people'
p1566
sS'498507721155817473'
p1567
S'injured_or_dead_people'
p1568
sS'498498610909417472'
p1569
S'not_related_or_irrelevant'
p1570
sS'498500218674233344'
p1571
S'not_related_or_irrelevant'
p1572
sS'498498004396290049'
p1573
S'not_related_or_irrelevant'
p1574
sS'498508270890258432'
p1575
S'not_related_or_irrelevant'
p1576
sS'498506613242986498'
p1577
S'injured_or_dead_people'
p1578
sS'498515968692609024'
p1579
S'injured_or_dead_people'
p1580
sS'498504960028315648'
p1581
S'injured_or_dead_people'
p1582
sS'498509640032727041'
p1583
S'injured_or_dead_people'
p1584
sS'498512358000832512'
p1585
S'infrastructure_and_utilities_damage'
p1586
sS'498515512071303169'
p1587
S'displaced_people_and_evacuations'
p1588
sS'498515720985391105'
p1589
S'injured_or_dead_people'
p1590
sS'498500332465692672'
p1591
S'not_related_or_irrelevant'
p1592
sS'498499844223168513'
p1593
S'not_related_or_irrelevant'
p1594
sS'498499198635880448'
p1595
S'sympathy_and_emotional_support'
p1596
sS'498511480254652416'
p1597
S'injured_or_dead_people'
p1598
sS'498499018826076161'
p1599
S'not_related_or_irrelevant'
p1600
sS'498503892959633409'
p1601
S'injured_or_dead_people'
p1602
sS'498497760543653889'
p1603
S'not_related_or_irrelevant'
p1604
sS'498499212783661056'
p1605
S'not_related_or_irrelevant'
p1606
sS'498504775395057665'
p1607
S'injured_or_dead_people'
p1608
sS'498516390823735296'
p1609
S'injured_or_dead_people'
p1610
sS'498513347466522624'
p1611
S'other_useful_information'
p1612
sS'498510834067189760'
p1613
S'not_related_or_irrelevant'
p1614
sS'498515658913882113'
p1615
S'injured_or_dead_people'
p1616
sS'498503141651132416'
p1617
S'sympathy_and_emotional_support'
p1618
sS'498502103824732160'
p1619
S'not_related_or_irrelevant'
p1620
sS'498515482170122241'
p1621
S'injured_or_dead_people'
p1622
sS'498508791407968257'
p1623
S'displaced_people_and_evacuations'
p1624
sS'498510511068041217'
p1625
S'injured_or_dead_people'
p1626
sS'498499853324791808'
p1627
S'not_related_or_irrelevant'
p1628
sS'498511725264523265'
p1629
S'injured_or_dead_people'
p1630
sS'498506288997732352'
p1631
S'other_useful_information'
p1632
sS'498502469211947009'
p1633
S'not_related_or_irrelevant'
p1634
sS'498507864131268609'
p1635
S'other_useful_information'
p1636
sS'498502398961537025'
p1637
S'not_related_or_irrelevant'
p1638
sS'498498754065215489'
p1639
S'not_related_or_irrelevant'
p1640
sS'498515127894036481'
p1641
S'injured_or_dead_people'
p1642
sS'498513793861709824'
p1643
S'other_useful_information'
p1644
sS'498505636230217729'
p1645
S'injured_or_dead_people'
p1646
sS'498514594286292992'
p1647
S'infrastructure_and_utilities_damage'
p1648
sS'498512558572462080'
p1649
S'injured_or_dead_people'
p1650
sS'498504571946168323'
p1651
S'injured_or_dead_people'
p1652
sS'498513476529045504'
p1653
S'injured_or_dead_people'
p1654
sS'498507464229552128'
p1655
S'not_related_or_irrelevant'
p1656
sS'498504687508017153'
p1657
S'injured_or_dead_people'
p1658
sS'498499866721796096'
p1659
S'not_related_or_irrelevant'
p1660
sS'498505107768893440'
p1661
S'injured_or_dead_people'
p1662
sS'498508484531326976'
p1663
S'injured_or_dead_people'
p1664
sS'498513083200192513'
p1665
S'injured_or_dead_people'
p1666
sS'498505765963837441'
p1667
S'injured_or_dead_people'
p1668
sS'498510118007214080'
p1669
S'injured_or_dead_people'
p1670
sS'498502500870520832'
p1671
S'not_related_or_irrelevant'
p1672
sS'498504027135418370'
p1673
S'other_useful_information'
p1674
sS'498511970065477632'
p1675
S'injured_or_dead_people'
p1676
sS'498498460660678657'
p1677
S'not_related_or_irrelevant'
p1678
sS'498501523324690432'
p1679
S'not_related_or_irrelevant'
p1680
sS'498514231885828097'
p1681
S'injured_or_dead_people'
p1682
sS'498508384081956865'
p1683
S'other_useful_information'
p1684
sS'498509424017698817'
p1685
S'injured_or_dead_people'
p1686
sS'498502440665505792'
p1687
S'not_related_or_irrelevant'
p1688
sS'498505847207886849'
p1689
S'other_useful_information'
p1690
sS'498514165800378368'
p1691
S'other_useful_information'
p1692
sS'498502734774296576'
p1693
S'not_related_or_irrelevant'
p1694
sS'498507596999843840'
p1695
S'other_useful_information'
p1696
sS'498510638281670656'
p1697
S'other_useful_information'
p1698
sS'498509705065816064'
p1699
S'donation_needs_or_offers_or_volunteering_services'
p1700
sS'498508162010714112'
p1701
S'injured_or_dead_people'
p1702
sS'498507677639909377'
p1703
S'injured_or_dead_people'
p1704
sS'498503907660668928'
p1705
S'donation_needs_or_offers_or_volunteering_services'
p1706
sS'498503676697124864'
p1707
S'injured_or_dead_people'
p1708
sS'498513045086560257'
p1709
S'other_useful_information'
p1710
sS'498500002470440960'
p1711
S'not_related_or_irrelevant'
p1712
sS'498499798337867776'
p1713
S'not_related_or_irrelevant'
p1714
sS'498502340845248514'
p1715
S'not_related_or_irrelevant'
p1716
sS'498509381139304448'
p1717
S'injured_or_dead_people'
p1718
sS'498499086241525760'
p1719
S'not_related_or_irrelevant'
p1720
sS'498505794888163328'
p1721
S'injured_or_dead_people'
p1722
sS'498503490487209984'
p1723
S'not_related_or_irrelevant'
p1724
sS'498502063773728768'
p1725
S'not_related_or_irrelevant'
p1726
sS'498501241950195712'
p1727
S'not_related_or_irrelevant'
p1728
sS'498513972656865280'
p1729
S'injured_or_dead_people'
p1730
sS'498500342892756992'
p1731
S'not_related_or_irrelevant'
p1732
sS'498499880000974848'
p1733
S'not_related_or_irrelevant'
p1734
sS'498509315318116352'
p1735
S'injured_or_dead_people'
p1736
sS'498516042336186368'
p1737
S'injured_or_dead_people'
p1738
sS'498505381937963008'
p1739
S'injured_or_dead_people'
p1740
sS'498513316885848064'
p1741
S'injured_or_dead_people'
p1742
sS'498510571076345856'
p1743
S'infrastructure_and_utilities_damage'
p1744
sS'498512242082869248'
p1745
S'injured_or_dead_people'
p1746
sS'498499833297383424'
p1747
S'not_related_or_irrelevant'
p1748
sS'498504259454119936'
p1749
S'injured_or_dead_people'
p1750
sS'498500336550551552'
p1751
S'not_related_or_irrelevant'
p1752
sS'498507870238171136'
p1753
S'injured_or_dead_people'
p1754
sS'498505038680301568'
p1755
S'injured_or_dead_people'
p1756
sS'498510236731584513'
p1757
S'injured_or_dead_people'
p1758
sS'498498004119474176'
p1759
S'not_related_or_irrelevant'
p1760
sS'498512283405152256'
p1761
S'injured_or_dead_people'
p1762
sS'498503378771935232'
p1763
S'caution_and_advice'
p1764
sS'498499331989975040'
p1765
S'not_related_or_irrelevant'
p1766
sS'498504474559012864'
p1767
S'injured_or_dead_people'
p1768
sS'498516837873614848'
p1769
S'injured_or_dead_people'
p1770
sS'498506527867928577'
p1771
S'injured_or_dead_people'
p1772
sS'498502999011258368'
p1773
S'not_related_or_irrelevant'
p1774
sS'498506083741470721'
p1775
S'injured_or_dead_people'
p1776
sS'498516179552833537'
p1777
S'other_useful_information'
p1778
sS'498510900030996480'
p1779
S'injured_or_dead_people'
p1780
sS'498505611814789121'
p1781
S'caution_and_advice'
p1782
sS'498509556532539392'
p1783
S'injured_or_dead_people'
p1784
sS'498501942457679872'
p1785
S'not_related_or_irrelevant'
p1786
sS'498505331090399232'
p1787
S'injured_or_dead_people'
p1788
sS'498498079721799680'
p1789
S'not_related_or_irrelevant'
p1790
sS'498512857881800704'
p1791
S'injured_or_dead_people'
p1792
sS'498510667821768705'
p1793
S'injured_or_dead_people'
p1794
sS'498502178227900416'
p1795
S'not_related_or_irrelevant'
p1796
sS'498503663858368514'
p1797
S'injured_or_dead_people'
p1798
sS'498514947530588160'
p1799
S'injured_or_dead_people'
p1800
sS'498506641680384000'
p1801
S'injured_or_dead_people'
p1802
sS'498508662265376768'
p1803
S'donation_needs_or_offers_or_volunteering_services'
p1804
sS'498510816933445632'
p1805
S'injured_or_dead_people'
p1806
sS'498509260813516800'
p1807
S'injured_or_dead_people'
p1808
sS'498513854305808384'
p1809
S'other_useful_information'
p1810
sS'498508198522155009'
p1811
S'injured_or_dead_people'
p1812
sS'498516941821050880'
p1813
S'injured_or_dead_people'
p1814
sS'498505488720723969'
p1815
S'injured_or_dead_people'
p1816
sS'498498042157608961'
p1817
S'not_related_or_irrelevant'
p1818
sS'498503506660425728'
p1819
S'caution_and_advice'
p1820
sS'498506621249912832'
p1821
S'injured_or_dead_people'
p1822
sS'498516018944565250'
p1823
S'injured_or_dead_people'
p1824
sS'498505422584946688'
p1825
S'caution_and_advice'
p1826
sS'498511739148066816'
p1827
S'other_useful_information'
p1828
sS'498499247252054016'
p1829
S'not_related_or_irrelevant'
p1830
sS'498516641945518082'
p1831
S'injured_or_dead_people'
p1832
sS'498509401645264896'
p1833
S'other_useful_information'
p1834
sS'498509313598816256'
p1835
S'injured_or_dead_people'
p1836
sS'498509740058886146'
p1837
S'injured_or_dead_people'
p1838
sS'498507842480250880'
p1839
S'injured_or_dead_people'
p1840
sS'498511967360151553'
p1841
S'injured_or_dead_people'
p1842
sS'498503538474221568'
p1843
S'injured_or_dead_people'
p1844
sS'498514105326911488'
p1845
S'other_useful_information'
p1846
sS'498499572604231680'
p1847
S'not_related_or_irrelevant'
p1848
sS'498515398216921088'
p1849
S'other_useful_information'
p1850
sS'498510579599151104'
p1851
S'injured_or_dead_people'
p1852
sS'498514478666088448'
p1853
S'injured_or_dead_people'
p1854
sS'498505005742043137'
p1855
S'injured_or_dead_people'
p1856
sS'498502199644012545'
p1857
S'not_related_or_irrelevant'
p1858
sS'498500971715371009'
p1859
S'sympathy_and_emotional_support'
p1860
sS'498513201726623744'
p1861
S'injured_or_dead_people'
p1862
sS'498505643800952832'
p1863
S'injured_or_dead_people'
p1864
sS'498511139022446592'
p1865
S'other_useful_information'
p1866
sS'498503099779010560'
p1867
S'not_related_or_irrelevant'
p1868
sS'498498589711032321'
p1869
S'not_related_or_irrelevant'
p1870
sS'498513197339795456'
p1871
S'injured_or_dead_people'
p1872
sS'498503176362811392'
p1873
S'injured_or_dead_people'
p1874
sS'498514422567305216'
p1875
S'injured_or_dead_people'
p1876
sS'498508942189006848'
p1877
S'injured_or_dead_people'
p1878
sS'498509123726872576'
p1879
S'injured_or_dead_people'
p1880
sS'498501209389424642'
p1881
S'not_related_or_irrelevant'
p1882
sS'498499933591592960'
p1883
S'not_related_or_irrelevant'
p1884
sS'498512318221672448'
p1885
S'caution_and_advice'
p1886
sS'498513953992216576'
p1887
S'injured_or_dead_people'
p1888
sS'498514538736529408'
p1889
S'not_related_or_irrelevant'
p1890
sS'498502447971565568'
p1891
S'not_related_or_irrelevant'
p1892
sS'498515299449438208'
p1893
S'injured_or_dead_people'
p1894
sS'498510243177848833'
p1895
S'injured_or_dead_people'
p1896
sS'498514674229731328'
p1897
S'injured_or_dead_people'
p1898
sS'498513635203772418'
p1899
S'injured_or_dead_people'
p1900
sS'498515681264951299'
p1901
S'injured_or_dead_people'
p1902
sS'498508294797799424'
p1903
S'other_useful_information'
p1904
sS'498510634393149440'
p1905
S'other_useful_information'
p1906
sS'498502673839046658'
p1907
S'not_related_or_irrelevant'
p1908
sS'498506919003553795'
p1909
S'injured_or_dead_people'
p1910
sS'498505939553501185'
p1911
S'injured_or_dead_people'
p1912
sS'498513551405764609'
p1913
S'caution_and_advice'
p1914
sS'498505516478636033'
p1915
S'other_useful_information'
p1916
sS'498503894767386625'
p1917
S'injured_or_dead_people'
p1918
sS'498503893257449472'
p1919
S'injured_or_dead_people'
p1920
sS'498508181606531072'
p1921
S'injured_or_dead_people'
p1922
sS'498512303013515264'
p1923
S'injured_or_dead_people'
p1924
sS'498508267333500928'
p1925
S'injured_or_dead_people'
p1926
sS'498501814749106176'
p1927
S'not_related_or_irrelevant'
p1928
sS'498505094896549888'
p1929
S'caution_and_advice'
p1930
sS'498516136926134273'
p1931
S'injured_or_dead_people'
p1932
sS'498511718851833856'
p1933
S'not_related_or_irrelevant'
p1934
sS'498503379736223744'
p1935
S'not_related_or_irrelevant'
p1936
sS'498512920767381504'
p1937
S'infrastructure_and_utilities_damage'
p1938
sS'498508953701994496'
p1939
S'injured_or_dead_people'
p1940
sS'498501665415507969'
p1941
S'not_related_or_irrelevant'
p1942
sS'498514024883953666'
p1943
S'other_useful_information'
p1944
sS'498507802424266753'
p1945
S'other_useful_information'
p1946
sS'498509886456864768'
p1947
S'injured_or_dead_people'
p1948
sS'498512876236468225'
p1949
S'injured_or_dead_people'
p1950
sS'498499166088462336'
p1951
S'not_related_or_irrelevant'
p1952
sS'498506031266156544'
p1953
S'injured_or_dead_people'
p1954
sS'498501907158413312'
p1955
S'not_related_or_irrelevant'
p1956
sS'498510805797969920'
p1957
S'injured_or_dead_people'
p1958
sS'498512256703791105'
p1959
S'injured_or_dead_people'
p1960
sS'498498509285634048'
p1961
S'not_related_or_irrelevant'
p1962
sS'498507791167152128'
p1963
S'injured_or_dead_people'
p1964
sS'498508328205832193'
p1965
S'injured_or_dead_people'
p1966
sS'498505966594174977'
p1967
S'not_related_or_irrelevant'
p1968
sS'498499853517746176'
p1969
S'not_related_or_irrelevant'
p1970
sS'498500930208546816'
p1971
S'not_related_or_irrelevant'
p1972
sS'498506999718756352'
p1973
S'other_useful_information'
p1974
sS'498497852796973056'
p1975
S'not_related_or_irrelevant'
p1976
sS'498514524362661890'
p1977
S'injured_or_dead_people'
p1978
sS'498511789681037312'
p1979
S'injured_or_dead_people'
p1980
sS'498516532017004544'
p1981
S'other_useful_information'
p1982
sS'498504236347711488'
p1983
S'sympathy_and_emotional_support'
p1984
sS'498499290818682880'
p1985
S'not_related_or_irrelevant'
p1986
sS'498509856517926912'
p1987
S'other_useful_information'
p1988
sS'498498396165259264'
p1989
S'not_related_or_irrelevant'
p1990
sS'498514448903340032'
p1991
S'other_useful_information'
p1992
sS'498506868252491776'
p1993
S'other_useful_information'
p1994
sS'498505059412758528'
p1995
S'injured_or_dead_people'
p1996
sS'498498119097937920'
p1997
S'not_related_or_irrelevant'
p1998
sS'498506429935140865'
p1999
S'injured_or_dead_people'
p2000
sS'498514868052713474'
p2001
S'injured_or_dead_people'
p2002
sS'498508929912303616'
p2003
S'infrastructure_and_utilities_damage'
p2004
sS'498509293986258945'
p2005
S'donation_needs_or_offers_or_volunteering_services'
p2006
sS'498513447748120579'
p2007
S'other_useful_information'
p2008
sS'498504882496602112'
p2009
S'injured_or_dead_people'
p2010
sS'498514598740242432'
p2011
S'injured_or_dead_people'
p2012
sS'498499456569180160'
p2013
S'not_related_or_irrelevant'
p2014
sS'498515182562590721'
p2015
S'injured_or_dead_people'
p2016
sS'498501781664456706'
p2017
S'not_related_or_irrelevant'
p2018
sS'498507067506716672'
p2019
S'not_related_or_irrelevant'
p2020
sS'498515755538071552'
p2021
S'injured_or_dead_people'
p2022
sS'498502067066253312'
p2023
S'not_related_or_irrelevant'
p2024
sS'498511764846559232'
p2025
S'injured_or_dead_people'
p2026
sS'498503560074911745'
p2027
S'not_related_or_irrelevant'
p2028
sS'498499515377147905'
p2029
S'not_related_or_irrelevant'
p2030
sS'498499471907753984'
p2031
S'missing_trapped_or_found_people'
p2032
sS'498502978500718592'
p2033
S'not_related_or_irrelevant'
p2034
sS'498514009617104896'
p2035
S'injured_or_dead_people'
p2036
sS'498504054645850115'
p2037
S'other_useful_information'
p2038
sS'498504013017796608'
p2039
S'injured_or_dead_people'
p2040
sS'498501501396869121'
p2041
S'not_related_or_irrelevant'
p2042
sS'498500651270561792'
p2043
S'not_related_or_irrelevant'
p2044
sS'498505128320970752'
p2045
S'not_related_or_irrelevant'
p2046
sS'498501914993369088'
p2047
S'not_related_or_irrelevant'
p2048
sS'498508546632605696'
p2049
S'sympathy_and_emotional_support'
p2050
sS'498513930818703361'
p2051
S'other_useful_information'
p2052
sS'498500188127113218'
p2053
S'not_related_or_irrelevant'
p2054
sS'498511313224888320'
p2055
S'not_related_or_irrelevant'
p2056
sS'498504454451101696'
p2057
S'other_useful_information'
p2058
sS'498506787843088385'
p2059
S'other_useful_information'
p2060
sS'498499120823537665'
p2061
S'not_related_or_irrelevant'
p2062
sS'498499475070263296'
p2063
S'not_related_or_irrelevant'
p2064
sS'498506598952628225'
p2065
S'donation_needs_or_offers_or_volunteering_services'
p2066
sS'498514522911412224'
p2067
S'other_useful_information'
p2068
sS'498512311632818176'
p2069
S'injured_or_dead_people'
p2070
sS'498509413226139649'
p2071
S'injured_or_dead_people'
p2072
sS'498505749233168384'
p2073
S'injured_or_dead_people'
p2074
sS'498500315881406464'
p2075
S'not_related_or_irrelevant'
p2076
sS'498510643851718657'
p2077
S'caution_and_advice'
p2078
sS'498501765353197568'
p2079
S'not_related_or_irrelevant'
p2080
sS'498504905368166401'
p2081
S'injured_or_dead_people'
p2082
sS'498507126008860674'
p2083
S'other_useful_information'
p2084
sS'498507000620527616'
p2085
S'other_useful_information'
p2086
sS'498509317155209216'
p2087
S'injured_or_dead_people'
p2088
sS'498515116363882496'
p2089
S'injured_or_dead_people'
p2090
sS'498516529697533953'
p2091
S'injured_or_dead_people'
p2092
sS'498501043093663745'
p2093
S'not_related_or_irrelevant'
p2094
sS'498511892826951680'
p2095
S'displaced_people_and_evacuations'
p2096
sS'498506597220368384'
p2097
S'injured_or_dead_people'
p2098
sS'498512806694912000'
p2099
S'injured_or_dead_people'
p2100
sS'498501615880798208'
p2101
S'not_related_or_irrelevant'
p2102
sS'498514010124193793'
p2103
S'displaced_people_and_evacuations'
p2104
sS'498513265865936897'
p2105
S'injured_or_dead_people'
p2106
sS'498507897010016256'
p2107
S'injured_or_dead_people'
p2108
sS'498512069864341504'
p2109
S'injured_or_dead_people'
p2110
sS'498504070291013633'
p2111
S'not_related_or_irrelevant'
p2112
sS'498507350282887168'
p2113
S'missing_trapped_or_found_people'
p2114
sS'498510315202420736'
p2115
S'injured_or_dead_people'
p2116
sS'498514446684520449'
p2117
S'injured_or_dead_people'
p2118
sS'498508546678345728'
p2119
S'other_useful_information'
p2120
sS'498498260395634688'
p2121
S'not_related_or_irrelevant'
p2122
sS'498500564691718144'
p2123
S'not_related_or_irrelevant'
p2124
sS'498510578264965122'
p2125
S'injured_or_dead_people'
p2126
sS'498510258885505025'
p2127
S'injured_or_dead_people'
p2128
sS'498498902010904576'
p2129
S'not_related_or_irrelevant'
p2130
sS'498501703436873728'
p2131
S'not_related_or_irrelevant'
p2132
sS'498497854626078722'
p2133
S'not_related_or_irrelevant'
p2134
sS'498501473161195520'
p2135
S'not_related_or_irrelevant'
p2136
sS'498506605533888512'
p2137
S'injured_or_dead_people'
p2138
sS'498505955198664704'
p2139
S'other_useful_information'
p2140
sS'498507047143747584'
p2141
S'injured_or_dead_people'
p2142
sS'498502341872869376'
p2143
S'not_related_or_irrelevant'
p2144
sS'498499180504305664'
p2145
S'not_related_or_irrelevant'
p2146
sS'498512889872154624'
p2147
S'injured_or_dead_people'
p2148
sS'498503889839476736'
p2149
S'injured_or_dead_people'
p2150
sS'498497910216990720'
p2151
S'not_related_or_irrelevant'
p2152
sS'498506710479540224'
p2153
S'injured_or_dead_people'
p2154
sS'498506598122131456'
p2155
S'injured_or_dead_people'
p2156
sS'498507098301665281'
p2157
S'other_useful_information'
p2158
sS'498497828906213377'
p2159
S'not_related_or_irrelevant'
p2160
sS'498512088571338753'
p2161
S'injured_or_dead_people'
p2162
sS'498510492839976963'
p2163
S'injured_or_dead_people'
p2164
sS'498509360042352640'
p2165
S'injured_or_dead_people'
p2166
sS'498510222210920448'
p2167
S'other_useful_information'
p2168
sS'498503576461643776'
p2169
S'injured_or_dead_people'
p2170
sS'498500653321572353'
p2171
S'not_related_or_irrelevant'
p2172
sS'498497811575369728'
p2173
S'not_related_or_irrelevant'
p2174
sS'498502368850243584'
p2175
S'not_related_or_irrelevant'
p2176
sS'498498307400794113'
p2177
S'not_related_or_irrelevant'
p2178
sS'498500541174263809'
p2179
S'not_related_or_irrelevant'
p2180
sS'498506787373723648'
p2181
S'injured_or_dead_people'
p2182
sS'498509612656517120'
p2183
S'other_useful_information'
p2184
sS'498513984849731586'
p2185
S'injured_or_dead_people'
p2186
sS'498501665746849792'
p2187
S'not_related_or_irrelevant'
p2188
sS'498507655322030080'
p2189
S'other_useful_information'
p2190
sS'498514569329770496'
p2191
S'injured_or_dead_people'
p2192
sS'498501050064994304'
p2193
S'other_useful_information'
p2194
sS'498511472272875521'
p2195
S'injured_or_dead_people'
p2196
sS'498506611334598656'
p2197
S'injured_or_dead_people'
p2198
sS'498507064985919490'
p2199
S'injured_or_dead_people'
p2200
sS'498504847294234624'
p2201
S'other_useful_information'
p2202
sS'498515546523336704'
p2203
S'injured_or_dead_people'
p2204
sS'498505755851358209'
p2205
S'injured_or_dead_people'
p2206
sS'498516785583251456'
p2207
S'injured_or_dead_people'
p2208
sS'498501056314482688'
p2209
S'not_related_or_irrelevant'
p2210
sS'498513510440398848'
p2211
S'not_related_or_irrelevant'
p2212
sS'498510437848072192'
p2213
S'injured_or_dead_people'
p2214
sS'498508223092359169'
p2215
S'injured_or_dead_people'
p2216
sS'498498206314270721'
p2217
S'not_related_or_irrelevant'
p2218
sS'498508220076658688'
p2219
S'injured_or_dead_people'
p2220
sS'498502037957771264'
p2221
S'not_related_or_irrelevant'
p2222
sS'498501188170813440'
p2223
S'not_related_or_irrelevant'
p2224
sS'498501529402638336'
p2225
S'not_related_or_irrelevant'
p2226
sS'498498645336276993'
p2227
S'not_related_or_irrelevant'
p2228
sS'498514561331638272'
p2229
S'other_useful_information'
p2230
sS'498507271165726720'
p2231
S'injured_or_dead_people'
p2232
sS'498504849894674432'
p2233
S'injured_or_dead_people'
p2234
sS'498499451670237184'
p2235
S'not_related_or_irrelevant'
p2236
sS'498513949906579457'
p2237
S'injured_or_dead_people'
p2238
sS'498509268371668992'
p2239
S'injured_or_dead_people'
p2240
sS'498507752168505345'
p2241
S'injured_or_dead_people'
p2242
sS'498515627049766912'
p2243
S'injured_or_dead_people'
p2244
sS'498514240408674305'
p2245
S'injured_or_dead_people'
p2246
sS'498504659687206913'
p2247
S'other_useful_information'
p2248
sS'498510413106249728'
p2249
S'injured_or_dead_people'
p2250
sS'498514038532620289'
p2251
S'injured_or_dead_people'
p2252
sS'498512423171923968'
p2253
S'injured_or_dead_people'
p2254
sS'498504176268480512'
p2255
S'injured_or_dead_people'
p2256
sS'498500746430906368'
p2257
S'not_related_or_irrelevant'
p2258
sS'498502391395012609'
p2259
S'not_related_or_irrelevant'
p2260
sS'498498493569187840'
p2261
S'not_related_or_irrelevant'
p2262
sS'498513008654430210'
p2263
S'injured_or_dead_people'
p2264
sS'498511221599924224'
p2265
S'injured_or_dead_people'
p2266
sS'498501968596586496'
p2267
S'not_related_or_irrelevant'
p2268
sS'498514994003460096'
p2269
S'other_useful_information'
p2270
sS'498509519899852800'
p2271
S'not_related_or_irrelevant'
p2272
sS'498507056534798337'
p2273
S'injured_or_dead_people'
p2274
sS'498515786940444672'
p2275
S'injured_or_dead_people'
p2276
sS'498497807645290498'
p2277
S'not_related_or_irrelevant'
p2278
sS'498504639567134720'
p2279
S'injured_or_dead_people'
p2280
sS'498515445134426113'
p2281
S'other_useful_information'
p2282
sS'498514461196443649'
p2283
S'other_useful_information'
p2284
sS'498508862689771521'
p2285
S'other_useful_information'
p2286
sS'498512794073841665'
p2287
S'injured_or_dead_people'
p2288
sS'498505086990290944'
p2289
S'injured_or_dead_people'
p2290
sS'498507695595720704'
p2291
S'injured_or_dead_people'
p2292
sS'498516728113287170'
p2293
S'other_useful_information'
p2294
sS'498507480549588993'
p2295
S'injured_or_dead_people'
p2296
sS'498499106885869570'
p2297
S'not_related_or_irrelevant'
p2298
sS'498516134350835713'
p2299
S'other_useful_information'
p2300
sS'498506526085361664'
p2301
S'injured_or_dead_people'
p2302
sS'498506416249126912'
p2303
S'missing_trapped_or_found_people'
p2304
sS'498516177585700865'
p2305
S'injured_or_dead_people'
p2306
sS'498499172115300352'
p2307
S'not_related_or_irrelevant'
p2308
sS'498516493328318465'
p2309
S'injured_or_dead_people'
p2310
sS'498505205668151296'
p2311
S'other_useful_information'
p2312
sS'498509050158788608'
p2313
S'injured_or_dead_people'
p2314
sS'498509949358456832'
p2315
S'other_useful_information'
p2316
sS'498499535157858304'
p2317
S'not_related_or_irrelevant'
p2318
sS'498510407913730048'
p2319
S'injured_or_dead_people'
p2320
sS'498506847109013504'
p2321
S'sympathy_and_emotional_support'
p2322
sS'498506811079946240'
p2323
S'injured_or_dead_people'
p2324
sS'498499764196233217'
p2325
S'not_related_or_irrelevant'
p2326
sS'498498340095393793'
p2327
S'not_related_or_irrelevant'
p2328
sS'498511672756408320'
p2329
S'injured_or_dead_people'
p2330
sS'498510095031205890'
p2331
S'injured_or_dead_people'
p2332
sS'498515992188706816'
p2333
S'injured_or_dead_people'
p2334
sS'498507532264951808'
p2335
S'other_useful_information'
p2336
sS'498515594002825217'
p2337
S'injured_or_dead_people'
p2338
sS'498511109457215488'
p2339
S'other_useful_information'
p2340
sS'498506689147326464'
p2341
S'other_useful_information'
p2342
sS'498504501213822977'
p2343
S'injured_or_dead_people'
p2344
sS'498501586969427968'
p2345
S'not_related_or_irrelevant'
p2346
sS'498516473388613632'
p2347
S'injured_or_dead_people'
p2348
sS'498511040402178049'
p2349
S'injured_or_dead_people'
p2350
sS'498504314646982656'
p2351
S'caution_and_advice'
p2352
sS'498509754390827009'
p2353
S'injured_or_dead_people'
p2354
sS'498506152922320896'
p2355
S'injured_or_dead_people'
p2356
sS'498497890835505153'
p2357
S'not_related_or_irrelevant'
p2358
sS'498502812884824064'
p2359
S'not_related_or_irrelevant'
p2360
sS'498499165299961856'
p2361
S'not_related_or_irrelevant'
p2362
sS'498506588127502336'
p2363
S'injured_or_dead_people'
p2364
sS'498497723600211968'
p2365
S'not_related_or_irrelevant'
p2366
sS'498509551340371968'
p2367
S'injured_or_dead_people'
p2368
sS'498502197701640192'
p2369
S'not_related_or_irrelevant'
p2370
sS'498507539068493824'
p2371
S'injured_or_dead_people'
p2372
sS'498503163721568256'
p2373
S'injured_or_dead_people'
p2374
sS'498509417026162689'
p2375
S'other_useful_information'
p2376
sS'498513028519059457'
p2377
S'injured_or_dead_people'
p2378
sS'498502003048599554'
p2379
S'not_related_or_irrelevant'
p2380
sS'498509425741537283'
p2381
S'injured_or_dead_people'
p2382
sS'498511947537874944'
p2383
S'injured_or_dead_people'
p2384
sS'498504172581683201'
p2385
S'injured_or_dead_people'
p2386
sS'498503487186284544'
p2387
S'injured_or_dead_people'
p2388
sS'498516685180370945'
p2389
S'injured_or_dead_people'
p2390
sS'498511913954074625'
p2391
S'injured_or_dead_people'
p2392
sS'498499723322728448'
p2393
S'not_related_or_irrelevant'
p2394
sS'498499535136903168'
p2395
S'not_related_or_irrelevant'
p2396
sS'498511254785257473'
p2397
S'other_useful_information'
p2398
sS'498516442237530113'
p2399
S'injured_or_dead_people'
p2400
sS'498499196492595200'
p2401
S'not_related_or_irrelevant'
p2402
sS'498503392038092800'
p2403
S'donation_needs_or_offers_or_volunteering_services'
p2404
sS'498499528312782850'
p2405
S'not_related_or_irrelevant'
p2406
sS'498515437122899970'
p2407
S'injured_or_dead_people'
p2408
sS'498512558274658304'
p2409
S'injured_or_dead_people'
p2410
sS'498499441482297344'
p2411
S'not_related_or_irrelevant'
p2412
sS'498514501189111809'
p2413
S'injured_or_dead_people'
p2414
sS'498500033868615682'
p2415
S'donation_needs_or_offers_or_volunteering_services'
p2416
sS'498504010367000576'
p2417
S'injured_or_dead_people'
p2418
sS'498502798066323457'
p2419
S'not_related_or_irrelevant'
p2420
sS'498504049302310912'
p2421
S'injured_or_dead_people'
p2422
sS'498498939373776896'
p2423
S'donation_needs_or_offers_or_volunteering_services'
p2424
sS'498511345453506560'
p2425
S'injured_or_dead_people'
p2426
sS'498500982914179072'
p2427
S'not_related_or_irrelevant'
p2428
sS'498506143061516290'
p2429
S'injured_or_dead_people'
p2430
sS'498502623528759297'
p2431
S'not_related_or_irrelevant'
p2432
sS'498505733814894595'
p2433
S'other_useful_information'
p2434
sS'498500236361617408'
p2435
S'not_related_or_irrelevant'
p2436
sS'498499915702468608'
p2437
S'not_related_or_irrelevant'
p2438
sS'498501182001012736'
p2439
S'not_related_or_irrelevant'
p2440
sS'498505949024235522'
p2441
S'injured_or_dead_people'
p2442
sS'498499323525885952'
p2443
S'not_related_or_irrelevant'
p2444
sS'498498134096773121'
p2445
S'not_related_or_irrelevant'
p2446
sS'498505619188768769'
p2447
S'injured_or_dead_people'
p2448
sS'498505087493226497'
p2449
S'other_useful_information'
p2450
sS'498503899540516864'
p2451
S'injured_or_dead_people'
p2452
sS'498505414258872320'
p2453
S'injured_or_dead_people'
p2454
sS'498514120858415105'
p2455
S'other_useful_information'
p2456
sS'498511347462574081'
p2457
S'other_useful_information'
p2458
sS'498510626604318722'
p2459
S'injured_or_dead_people'
p2460
sS'498506936930017281'
p2461
S'other_useful_information'
p2462
sS'498516585930584064'
p2463
S'other_useful_information'
p2464
sS'498503075905011713'
p2465
S'not_related_or_irrelevant'
p2466
sS'498507289318678528'
p2467
S'other_useful_information'
p2468
sS'498510811837370369'
p2469
S'donation_needs_or_offers_or_volunteering_services'
p2470
sS'498509090512203776'
p2471
S'injured_or_dead_people'
p2472
sS'498516383861575680'
p2473
S'other_useful_information'
p2474
sS'498497994178572289'
p2475
S'not_related_or_irrelevant'
p2476
sS'498506289224634368'
p2477
S'injured_or_dead_people'
p2478
sS'498505244008280064'
p2479
S'injured_or_dead_people'
p2480
sS'498512636213198849'
p2481
S'injured_or_dead_people'
p2482
sS'498508085074599936'
p2483
S'sympathy_and_emotional_support'
p2484
sS'498503366234746880'
p2485
S'injured_or_dead_people'
p2486
sS'498514417416679424'
p2487
S'not_related_or_irrelevant'
p2488
sS'498503916129382401'
p2489
S'injured_or_dead_people'
p2490
sS'498506721326010369'
p2491
S'donation_needs_or_offers_or_volunteering_services'
p2492
sS'498498646417997824'
p2493
S'not_related_or_irrelevant'
p2494
sS'498513758785142784'
p2495
S'injured_or_dead_people'
p2496
sS'498512240304476160'
p2497
S'other_useful_information'
p2498
sS'498501504328667136'
p2499
S'not_related_or_irrelevant'
p2500
sS'498510816820617217'
p2501
S'injured_or_dead_people'
p2502
sS'498513125403267072'
p2503
S'injured_or_dead_people'
p2504
sS'498513949977886720'
p2505
S'other_useful_information'
p2506
sS'498510111988789248'
p2507
S'injured_or_dead_people'
p2508
sS'498500355114532864'
p2509
S'not_related_or_irrelevant'
p2510
sS'498515323004284929'
p2511
S'other_useful_information'
p2512
sS'498512966191693824'
p2513
S'injured_or_dead_people'
p2514
sS'498508047661416449'
p2515
S'injured_or_dead_people'
p2516
sS'498507382004412416'
p2517
S'missing_trapped_or_found_people'
p2518
sS'498512225859289088'
p2519
S'other_useful_information'
p2520
sS'498497771310448640'
p2521
S'not_related_or_irrelevant'
p2522
sS'498501302545317888'
p2523
S'not_related_or_irrelevant'
p2524
sS'498510567695323139'
p2525
S'injured_or_dead_people'
p2526
sS'498499903266754561'
p2527
S'not_related_or_irrelevant'
p2528
sS'498513949969481729'
p2529
S'injured_or_dead_people'
p2530
sS'498499962305794048'
p2531
S'not_related_or_irrelevant'
p2532
sS'498507598207803392'
p2533
S'other_useful_information'
p2534
sS'498503188371501056'
p2535
S'other_useful_information'
p2536
sS'498501196681084929'
p2537
S'not_related_or_irrelevant'
p2538
sS'498509455404072960'
p2539
S'donation_needs_or_offers_or_volunteering_services'
p2540
sS'498500099186900992'
p2541
S'not_related_or_irrelevant'
p2542
sS'498515253693788160'
p2543
S'injured_or_dead_people'
p2544
sS'498514489549934595'
p2545
S'injured_or_dead_people'
p2546
sS'498513032927260672'
p2547
S'injured_or_dead_people'
p2548
sS'498512769403338753'
p2549
S'injured_or_dead_people'
p2550
sS'498514424689197057'
p2551
S'injured_or_dead_people'
p2552
sS'498512657771950080'
p2553
S'injured_or_dead_people'
p2554
sS'498497964461916161'
p2555
S'not_related_or_irrelevant'
p2556
sS'498511115848933376'
p2557
S'caution_and_advice'
p2558
sS'498510499848650753'
p2559
S'injured_or_dead_people'
p2560
sS'498498267723083776'
p2561
S'not_related_or_irrelevant'
p2562
sS'498503485156245505'
p2563
S'injured_or_dead_people'
p2564
sS'498500158527520768'
p2565
S'not_related_or_irrelevant'
p2566
sS'498500499646455808'
p2567
S'not_related_or_irrelevant'
p2568
sS'498511932354469888'
p2569
S'injured_or_dead_people'
p2570
sS'498508325365874689'
p2571
S'injured_or_dead_people'
p2572
sS'498507548232671232'
p2573
S'injured_or_dead_people'
p2574
sS'498516366870450176'
p2575
S'injured_or_dead_people'
p2576
sS'498512222725750784'
p2577
S'injured_or_dead_people'
p2578
sS'498499618712584192'
p2579
S'not_related_or_irrelevant'
p2580
sS'498497752574472192'
p2581
S'not_related_or_irrelevant'
p2582
sS'498501797225721857'
p2583
S'not_related_or_irrelevant'
p2584
sS'498513202079350784'
p2585
S'donation_needs_or_offers_or_volunteering_services'
p2586
sS'498516555110817793'
p2587
S'other_useful_information'
p2588
sS'498500923229233152'
p2589
S'not_related_or_irrelevant'
p2590
sS'498499273940410368'
p2591
S'not_related_or_irrelevant'
p2592
sS'498502782962241536'
p2593
S'not_related_or_irrelevant'
p2594
sS'498509747075964928'
p2595
S'injured_or_dead_people'
p2596
sS'498505352070328321'
p2597
S'injured_or_dead_people'
p2598
sS'498516615018082304'
p2599
S'injured_or_dead_people'
p2600
sS'498506088783028225'
p2601
S'caution_and_advice'
p2602
sS'498504478467690496'
p2603
S'injured_or_dead_people'
p2604
sS'498502794144669696'
p2605
S'not_related_or_irrelevant'
p2606
sS'498498145563582464'
p2607
S'not_related_or_irrelevant'
p2608
sS'498498124784992256'
p2609
S'sympathy_and_emotional_support'
p2610
sS'498514591450947584'
p2611
S'infrastructure_and_utilities_damage'
p2612
sS'498500953822466048'
p2613
S'not_related_or_irrelevant'
p2614
sS'498515666887270400'
p2615
S'injured_or_dead_people'
p2616
sS'498507729171144707'
p2617
S'missing_trapped_or_found_people'
p2618
sS'498505332382253056'
p2619
S'sympathy_and_emotional_support'
p2620
sS'498502031397904384'
p2621
S'not_related_or_irrelevant'
p2622
sS'498506536977563649'
p2623
S'injured_or_dead_people'
p2624
sS'498498142774382592'
p2625
S'not_related_or_irrelevant'
p2626
sS'498510149871755265'
p2627
S'injured_or_dead_people'
p2628
sS'498512707666976770'
p2629
S'caution_and_advice'
p2630
sS'498513929514278913'
p2631
S'injured_or_dead_people'
p2632
sS'498497977561133056'
p2633
S'not_related_or_irrelevant'
p2634
sS'498506984749301762'
p2635
S'donation_needs_or_offers_or_volunteering_services'
p2636
sS'498511001545760768'
p2637
S'injured_or_dead_people'
p2638
sS'498500189037293569'
p2639
S'not_related_or_irrelevant'
p2640
sS'498505612246786050'
p2641
S'missing_trapped_or_found_people'
p2642
sS'498501978901970944'
p2643
S'other_useful_information'
p2644
sS'498503777931264000'
p2645
S'injured_or_dead_people'
p2646
sS'498508313663774721'
p2647
S'injured_or_dead_people'
p2648
sS'498506855581110272'
p2649
S'injured_or_dead_people'
p2650
sS'498508344702009344'
p2651
S'injured_or_dead_people'
p2652
sS'498504902906109952'
p2653
S'other_useful_information'
p2654
sS'498510332411654144'
p2655
S'injured_or_dead_people'
p2656
sS'498503890565095424'
p2657
S'injured_or_dead_people'
p2658
sS'498502214843760641'
p2659
S'not_related_or_irrelevant'
p2660
sS'498513576093843457'
p2661
S'other_useful_information'
p2662
sS'498515578236461057'
p2663
S'other_useful_information'
p2664
sS'498511801475026944'
p2665
S'injured_or_dead_people'
p2666
sS'498504476685508608'
p2667
S'donation_needs_or_offers_or_volunteering_services'
p2668
sS'498514505958424577'
p2669
S'injured_or_dead_people'
p2670
sS'498503526424002560'
p2671
S'injured_or_dead_people'
p2672
sS'498514423087382528'
p2673
S'injured_or_dead_people'
p2674
sS'498506889291137024'
p2675
S'injured_or_dead_people'
p2676
sS'498502704604659712'
p2677
S'not_related_or_irrelevant'
p2678
sS'498506866117586944'
p2679
S'not_related_or_irrelevant'
p2680
sS'498507870863097856'
p2681
S'other_useful_information'
p2682
sS'498506609245437952'
p2683
S'other_useful_information'
p2684
sS'498503379354935296'
p2685
S'injured_or_dead_people'
p2686
sS'498504913295769600'
p2687
S'injured_or_dead_people'
p2688
sS'498499665336471553'
p2689
S'not_related_or_irrelevant'
p2690
sS'498506720734638080'
p2691
S'not_related_or_irrelevant'
p2692
sS'498516722886774785'
p2693
S'other_useful_information'
p2694
sS'498507218690781185'
p2695
S'other_useful_information'
p2696
sS'498514108875276288'
p2697
S'sympathy_and_emotional_support'
p2698
sS'498508203634610176'
p2699
S'injured_or_dead_people'
p2700
sS'498500379143704576'
p2701
S'not_related_or_irrelevant'
p2702
sS'498512807826972672'
p2703
S'injured_or_dead_people'
p2704
sS'498504412701405185'
p2705
S'injured_or_dead_people'
p2706
sS'498508710889525248'
p2707
S'sympathy_and_emotional_support'
p2708
sS'498505625715093504'
p2709
S'injured_or_dead_people'
p2710
sS'498513580615278592'
p2711
S'injured_or_dead_people'
p2712
sS'498502845130616833'
p2713
S'other_useful_information'
p2714
sS'498512889561755649'
p2715
S'injured_or_dead_people'
p2716
sS'498515148198674433'
p2717
S'injured_or_dead_people'
p2718
sS'498515483277025282'
p2719
S'displaced_people_and_evacuations'
p2720
sS'498499027458338816'
p2721
S'injured_or_dead_people'
p2722
sS'498508527036424192'
p2723
S'sympathy_and_emotional_support'
p2724
sS'498504456003002369'
p2725
S'injured_or_dead_people'
p2726
sS'498502664754569216'
p2727
S'not_related_or_irrelevant'
p2728
sS'498505833446379520'
p2729
S'other_useful_information'
p2730
sS'498512707285315585'
p2731
S'injured_or_dead_people'
p2732
sS'498499250666606593'
p2733
S'not_related_or_irrelevant'
p2734
sS'498516045464743936'
p2735
S'injured_or_dead_people'
p2736
sS'498512954829312000'
p2737
S'injured_or_dead_people'
p2738
sS'498508778229465088'
p2739
S'sympathy_and_emotional_support'
p2740
sS'498503396026896384'
p2741
S'injured_or_dead_people'
p2742
sS'498513390160343041'
p2743
S'injured_or_dead_people'
p2744
sS'498499996216352768'
p2745
S'not_related_or_irrelevant'
p2746
sS'498502392200331265'
p2747
S'not_related_or_irrelevant'
p2748
sS'498503201206075392'
p2749
S'other_useful_information'
p2750
sS'498507885278945280'
p2751
S'injured_or_dead_people'
p2752
sS'498516211009736704'
p2753
S'injured_or_dead_people'
p2754
sS'498509467772649473'
p2755
S'injured_or_dead_people'
p2756
sS'498509292626911232'
p2757
S'injured_or_dead_people'
p2758
sS'498516688124796929'
p2759
S'other_useful_information'
p2760
sS'498513450109517824'
p2761
S'injured_or_dead_people'
p2762
sS'498511796870086657'
p2763
S'injured_or_dead_people'
p2764
sS'498498158788616192'
p2765
S'not_related_or_irrelevant'
p2766
sS'498500551932657664'
p2767
S'not_related_or_irrelevant'
p2768
sS'498515201919311872'
p2769
S'caution_and_advice'
p2770
sS'498515539191693313'
p2771
S'injured_or_dead_people'
p2772
sS'498502181734346752'
p2773
S'not_related_or_irrelevant'
p2774
sS'498506222677819392'
p2775
S'injured_or_dead_people'
p2776
sS'498499186737053696'
p2777
S'not_related_or_irrelevant'
p2778
sS'498499333625753600'
p2779
S'not_related_or_irrelevant'
p2780
sS'498515988502294528'
p2781
S'injured_or_dead_people'
p2782
sS'498507043045933056'
p2783
S'injured_or_dead_people'
p2784
sS'498512204086665217'
p2785
S'other_useful_information'
p2786
sS'498506137298534400'
p2787
S'injured_or_dead_people'
p2788
sS'498509902181314560'
p2789
S'injured_or_dead_people'
p2790
sS'498513699792228352'
p2791
S'other_useful_information'
p2792
sS'498502448454307840'
p2793
S'not_related_or_irrelevant'
p2794
sS'498515861141872643'
p2795
S'injured_or_dead_people'
p2796
sS'498508559521677312'
p2797
S'not_related_or_irrelevant'
p2798
sS'498505337792897026'
p2799
S'infrastructure_and_utilities_damage'
p2800
sS'498508882080051200'
p2801
S'other_useful_information'
p2802
sS'498500651740319744'
p2803
S'not_related_or_irrelevant'
p2804
sS'498498541312958464'
p2805
S'not_related_or_irrelevant'
p2806
sS'498512492062986240'
p2807
S'injured_or_dead_people'
p2808
sS'498507030077128704'
p2809
S'other_useful_information'
p2810
sS'498513178125697024'
p2811
S'injured_or_dead_people'
p2812
sS'498515388960092160'
p2813
S'other_useful_information'
p2814
sS'498514230354522113'
p2815
S'donation_needs_or_offers_or_volunteering_services'
p2816
sS'498506654120693760'
p2817
S'injured_or_dead_people'
p2818
sS'498507741024239616'
p2819
S'other_useful_information'
p2820
sS'498512334688886784'
p2821
S'other_useful_information'
p2822
sS'498513965186424832'
p2823
S'caution_and_advice'
p2824
sS'498503376556929025'
p2825
S'injured_or_dead_people'
p2826
sS'498515332915806209'
p2827
S'sympathy_and_emotional_support'
p2828
sS'498514421678080000'
p2829
S'donation_needs_or_offers_or_volunteering_services'
p2830
sS'498502755456417792'
p2831
S'not_related_or_irrelevant'
p2832
sS'498507781771894784'
p2833
S'injured_or_dead_people'
p2834
sS'498503802589544448'
p2835
S'other_useful_information'
p2836
sS'498511768256516097'
p2837
S'caution_and_advice'
p2838
sS'498508650626158592'
p2839
S'injured_or_dead_people'
p2840
sS'498497699659137024'
p2841
S'not_related_or_irrelevant'
p2842
sS'498515172341055488'
p2843
S'injured_or_dead_people'
p2844
sS'498506621405102080'
p2845
S'infrastructure_and_utilities_damage'
p2846
sS'498507936453632000'
p2847
S'injured_or_dead_people'
p2848
sS'498509793158782976'
p2849
S'injured_or_dead_people'
p2850
sS'498505884402606082'
p2851
S'other_useful_information'
p2852
sS'498511450852192257'
p2853
S'injured_or_dead_people'
p2854
sS'498515545915133954'
p2855
S'other_useful_information'
p2856
sS'498506695450976256'
p2857
S'injured_or_dead_people'
p2858
sS'498515436246298624'
p2859
S'other_useful_information'
p2860
sS'498511750594297857'
p2861
S'injured_or_dead_people'
p2862
sS'498516703039332352'
p2863
S'other_useful_information'
p2864
sS'498510751406243840'
p2865
S'infrastructure_and_utilities_damage'
p2866
sS'498501951731286016'
p2867
S'not_related_or_irrelevant'
p2868
sS'498513281905352704'
p2869
S'other_useful_information'
p2870
sS'498498349180268544'
p2871
S'not_related_or_irrelevant'
p2872
sS'498515603305820160'
p2873
S'injured_or_dead_people'
p2874
sS'498514915372462080'
p2875
S'injured_or_dead_people'
p2876
sS'498515644288339968'
p2877
S'other_useful_information'
p2878
sS'498506637888745473'
p2879
S'injured_or_dead_people'
p2880
sS'498504444078592000'
p2881
S'missing_trapped_or_found_people'
p2882
sS'498506646227013633'
p2883
S'infrastructure_and_utilities_damage'
p2884
sS'498500536250142721'
p2885
S'not_related_or_irrelevant'
p2886
sS'498514698539892737'
p2887
S'injured_or_dead_people'
p2888
sS'498513533068660737'
p2889
S'injured_or_dead_people'
p2890
sS'498511991821316096'
p2891
S'injured_or_dead_people'
p2892
sS'498506963290836993'
p2893
S'injured_or_dead_people'
p2894
sS'498509930287362049'
p2895
S'injured_or_dead_people'
p2896
sS'498514362987184128'
p2897
S'other_useful_information'
p2898
sS'498515488994230272'
p2899
S'other_useful_information'
p2900
sS'498499604246036481'
p2901
S'not_related_or_irrelevant'
p2902
sS'498509896334442496'
p2903
S'injured_or_dead_people'
p2904
sS'498506517562523648'
p2905
S'injured_or_dead_people'
p2906
sS'498514565379149824'
p2907
S'donation_needs_or_offers_or_volunteering_services'
p2908
sS'498509940097822720'
p2909
S'infrastructure_and_utilities_damage'
p2910
sS'498503894624763904'
p2911
S'not_related_or_irrelevant'
p2912
sS'498504442652553217'
p2913
S'other_useful_information'
p2914
sS'498498944700518400'
p2915
S'not_related_or_irrelevant'
p2916
sS'498504296082993153'
p2917
S'injured_or_dead_people'
p2918
sS'498501038576787457'
p2919
S'not_related_or_irrelevant'
p2920
sS'498501132420128768'
p2921
S'not_related_or_irrelevant'
p2922
sS'498500261904527360'
p2923
S'not_related_or_irrelevant'
p2924
sS'498514025467351040'
p2925
S'injured_or_dead_people'
p2926
sS'498506390218870785'
p2927
S'not_related_or_irrelevant'
p2928
sS'498504895977517056'
p2929
S'caution_and_advice'
p2930
sS'498515906624901120'
p2931
S'injured_or_dead_people'
p2932
sS'498510181782007808'
p2933
S'other_useful_information'
p2934
sS'498501105811464192'
p2935
S'not_related_or_irrelevant'
p2936
sS'498505170276585473'
p2937
S'other_useful_information'
p2938
sS'498507948638089216'
p2939
S'injured_or_dead_people'
p2940
sS'498512929403449344'
p2941
S'injured_or_dead_people'
p2942
sS'498503790447050752'
p2943
S'injured_or_dead_people'
p2944
sS'498516739916042240'
p2945
S'donation_needs_or_offers_or_volunteering_services'
p2946
sS'498505975679430656'
p2947
S'injured_or_dead_people'
p2948
sS'498510127003996161'
p2949
S'injured_or_dead_people'
p2950
sS'498512047173541888'
p2951
S'displaced_people_and_evacuations'
p2952
sS'498506519181152256'
p2953
S'injured_or_dead_people'
p2954
sS'498509404921409536'
p2955
S'injured_or_dead_people'
p2956
sS'498515916464726016'
p2957
S'not_related_or_irrelevant'
p2958
sS'498509068819267585'
p2959
S'injured_or_dead_people'
p2960
sS'498506605278011392'
p2961
S'caution_and_advice'
p2962
sS'498516538954354688'
p2963
S'injured_or_dead_people'
p2964
sS'498509936679059457'
p2965
S'injured_or_dead_people'
p2966
sS'498514898218135552'
p2967
S'infrastructure_and_utilities_damage'
p2968
sS'498513203027275776'
p2969
S'injured_or_dead_people'
p2970
sS'498508180281114624'
p2971
S'infrastructure_and_utilities_damage'
p2972
sS'498512963741831169'
p2973
S'other_useful_information'
p2974
sS'498508023443111936'
p2975
S'injured_or_dead_people'
p2976
sS'498499849214754816'
p2977
S'not_related_or_irrelevant'
p2978
sS'498510455812653056'
p2979
S'other_useful_information'
p2980
sS'498512390342733825'
p2981
S'injured_or_dead_people'
p2982
sS'498507866803019776'
p2983
S'injured_or_dead_people'
p2984
sS'498506740313231362'
p2985
S'injured_or_dead_people'
p2986
sS'498504747134226432'
p2987
S'other_useful_information'
p2988
sS'498511777920208896'
p2989
S'injured_or_dead_people'
p2990
sS'498500847253610496'
p2991
S'not_related_or_irrelevant'
p2992
sS'498514800302112768'
p2993
S'other_useful_information'
p2994
sS'498507354959532032'
p2995
S'caution_and_advice'
p2996
sS'498497848196218880'
p2997
S'not_related_or_irrelevant'
p2998
sS'498505983472439296'
p2999
S'injured_or_dead_people'
p3000
sS'498514533766283265'
p3001
S'injured_or_dead_people'
p3002
sS'498516764800876545'
p3003
S'missing_trapped_or_found_people'
p3004
sS'498497830991179777'
p3005
S'not_related_or_irrelevant'
p3006
sS'498506721870872576'
p3007
S'injured_or_dead_people'
p3008
sS'498511133071122434'
p3009
S'other_useful_information'
p3010
sS'498510384949899264'
p3011
S'infrastructure_and_utilities_damage'
p3012
sS'498500088772427776'
p3013
S'not_related_or_irrelevant'
p3014
sS'498515798219317248'
p3015
S'other_useful_information'
p3016
sS'498514304170483713'
p3017
S'injured_or_dead_people'
p3018
sS'498501390684422144'
p3019
S'not_related_or_irrelevant'
p3020
sS'498509535158738944'
p3021
S'donation_needs_or_offers_or_volunteering_services'
p3022
sS'498507358381690881'
p3023
S'injured_or_dead_people'
p3024
sS'498498141985841152'
p3025
S'not_related_or_irrelevant'
p3026
sS'498511801160826880'
p3027
S'not_related_or_irrelevant'
p3028
sS'498503856125652993'
p3029
S'injured_or_dead_people'
p3030
sS'498502404661596160'
p3031
S'not_related_or_irrelevant'
p3032
sS'498505074314723328'
p3033
S'injured_or_dead_people'
p3034
sS'498511715894829056'
p3035
S'injured_or_dead_people'
p3036
sS'498501714291728384'
p3037
S'not_related_or_irrelevant'
p3038
sS'498512769432694784'
p3039
S'injured_or_dead_people'
p3040
sS'498515684520116224'
p3041
S'infrastructure_and_utilities_damage'
p3042
sS'498499768919007234'
p3043
S'not_related_or_irrelevant'
p3044
sS'498505825078767616'
p3045
S'injured_or_dead_people'
p3046
sS'498504838779387906'
p3047
S'injured_or_dead_people'
p3048
sS'498514814822404096'
p3049
S'not_related_or_irrelevant'
p3050
sS'498511751651291136'
p3051
S'injured_or_dead_people'
p3052
sS'498513569831718912'
p3053
S'not_related_or_irrelevant'
p3054
sS'498498102870147072'
p3055
S'not_related_or_irrelevant'
p3056
sS'498513624378650624'
p3057
S'injured_or_dead_people'
p3058
sS'498497788519657472'
p3059
S'not_related_or_irrelevant'
p3060
sS'498505033663926272'
p3061
S'displaced_people_and_evacuations'
p3062
sS'498506108978610176'
p3063
S'injured_or_dead_people'
p3064
sS'498501561023483904'
p3065
S'not_related_or_irrelevant'
p3066
sS'498509864717807616'
p3067
S'injured_or_dead_people'
p3068
sS'498505320042614785'
p3069
S'injured_or_dead_people'
p3070
sS'498508338003329024'
p3071
S'injured_or_dead_people'
p3072
sS'498510936605331456'
p3073
S'injured_or_dead_people'
p3074
sS'498499389535817728'
p3075
S'not_related_or_irrelevant'
p3076
sS'498514444888977410'
p3077
S'injured_or_dead_people'
p3078
sS'498505117373853696'
p3079
S'injured_or_dead_people'
p3080
sS'498514470134894593'
p3081
S'other_useful_information'
p3082
sS'498513472766742530'
p3083
S'injured_or_dead_people'
p3084
sS'498499523208310784'
p3085
S'not_related_or_irrelevant'
p3086
sS'498506857002971137'
p3087
S'injured_or_dead_people'
p3088
sS'498505420429074433'
p3089
S'caution_and_advice'
p3090
sS'498507090567364609'
p3091
S'not_related_or_irrelevant'
p3092
sS'498515199100719104'
p3093
S'other_useful_information'
p3094
sS'498505985179545600'
p3095
S'other_useful_information'
p3096
sS'498513889269911552'
p3097
S'injured_or_dead_people'
p3098
sS'498506969201008640'
p3099
S'missing_trapped_or_found_people'
p3100
sS'498503187922681856'
p3101
S'other_useful_information'
p3102
sS'498514693389316097'
p3103
S'infrastructure_and_utilities_damage'
p3104
sS'498502457144537088'
p3105
S'not_related_or_irrelevant'
p3106
sS'498506827005693953'
p3107
S'injured_or_dead_people'
p3108
sS'498509677257576448'
p3109
S'not_related_or_irrelevant'
p3110
sS'498506634243493888'
p3111
S'not_related_or_irrelevant'
p3112
sS'498515560557473793'
p3113
S'other_useful_information'
p3114
sS'498513602899230720'
p3115
S'injured_or_dead_people'
p3116
sS'498511672164614144'
p3117
S'not_related_or_irrelevant'
p3118
sS'498498253176852480'
p3119
S'not_related_or_irrelevant'
p3120
sS'498510958369976322'
p3121
S'injured_or_dead_people'
p3122
sS'498504917271580673'
p3123
S'injured_or_dead_people'
p3124
sS'498499340248178690'
p3125
S'not_related_or_irrelevant'
p3126
s.